
main.elf:     file format elf32-littleriscv


Disassembly of section .text:

00000000 <_isr_handler>:
       0:	0080006f          	j	8 <_isr_routine>
       4:	1440006f          	j	148 <_start>

00000008 <_isr_routine>:
       8:	f8010113          	addi	sp,sp,-128
       c:	00112023          	sw	ra,0(sp)
      10:	00312423          	sw	gp,8(sp)
      14:	00412623          	sw	tp,12(sp)
      18:	00512823          	sw	t0,16(sp)
      1c:	00612a23          	sw	t1,20(sp)
      20:	00712c23          	sw	t2,24(sp)
      24:	00812e23          	sw	s0,28(sp)
      28:	02912023          	sw	s1,32(sp)
      2c:	02a12223          	sw	a0,36(sp)
      30:	02b12423          	sw	a1,40(sp)
      34:	02c12623          	sw	a2,44(sp)
      38:	02d12823          	sw	a3,48(sp)
      3c:	02e12a23          	sw	a4,52(sp)
      40:	02f12c23          	sw	a5,56(sp)
      44:	03012e23          	sw	a6,60(sp)
      48:	05112023          	sw	a7,64(sp)
      4c:	05212223          	sw	s2,68(sp)
      50:	05312423          	sw	s3,72(sp)
      54:	05412623          	sw	s4,76(sp)
      58:	05512823          	sw	s5,80(sp)
      5c:	05612a23          	sw	s6,84(sp)
      60:	05712c23          	sw	s7,88(sp)
      64:	05812e23          	sw	s8,92(sp)
      68:	07912023          	sw	s9,96(sp)
      6c:	07a12223          	sw	s10,100(sp)
      70:	07b12423          	sw	s11,104(sp)
      74:	07c12623          	sw	t3,108(sp)
      78:	07d12823          	sw	t4,112(sp)
      7c:	07e12a23          	sw	t5,116(sp)
      80:	07f12c23          	sw	t6,120(sp)
      84:	342022f3          	csrr	t0,mcause
      88:	80000337          	lui	t1,0x80000
      8c:	02536463          	bltu	t1,t0,b4 <external_irq>
      90:	00028833          	add	a6,t0,zero
      94:	00b00313          	li	t1,11
      98:	00628463          	beq	t0,t1,a0 <skip_init_args>
      9c:	34102573          	csrr	a0,mepc

000000a0 <skip_init_args>:
      a0:	2fc000ef          	jal	39c <handle_exception>
      a4:	341022f3          	csrr	t0,mepc
      a8:	00428293          	addi	t0,t0,4
      ac:	34129073          	csrw	mepc,t0
      b0:	0180006f          	j	c8 <restore>

000000b4 <external_irq>:
      b4:	800002b7          	lui	t0,0x80000
      b8:	fff28293          	addi	t0,t0,-1 # 7fffffff <_stack_end+0x7fefbbb7>
      bc:	34202373          	csrr	t1,mcause
      c0:	0062f533          	and	a0,t0,t1
      c4:	3e9030ef          	jal	3cac <handle_interrupt>

000000c8 <restore>:
      c8:	00012083          	lw	ra,0(sp)
      cc:	00812183          	lw	gp,8(sp)
      d0:	00c12203          	lw	tp,12(sp)
      d4:	01012283          	lw	t0,16(sp)
      d8:	01412303          	lw	t1,20(sp)
      dc:	01812383          	lw	t2,24(sp)
      e0:	01c12403          	lw	s0,28(sp)
      e4:	02012483          	lw	s1,32(sp)
      e8:	02412503          	lw	a0,36(sp)
      ec:	02812583          	lw	a1,40(sp)
      f0:	02c12603          	lw	a2,44(sp)
      f4:	03012683          	lw	a3,48(sp)
      f8:	03412703          	lw	a4,52(sp)
      fc:	03812783          	lw	a5,56(sp)
     100:	03c12803          	lw	a6,60(sp)
     104:	04012883          	lw	a7,64(sp)
     108:	04412903          	lw	s2,68(sp)
     10c:	04812983          	lw	s3,72(sp)
     110:	04c12a03          	lw	s4,76(sp)
     114:	05012a83          	lw	s5,80(sp)
     118:	05412b03          	lw	s6,84(sp)
     11c:	05812b83          	lw	s7,88(sp)
     120:	05c12c03          	lw	s8,92(sp)
     124:	06012c83          	lw	s9,96(sp)
     128:	06412d03          	lw	s10,100(sp)
     12c:	06812d83          	lw	s11,104(sp)
     130:	06c12e03          	lw	t3,108(sp)
     134:	07012e83          	lw	t4,112(sp)
     138:	07412f03          	lw	t5,116(sp)
     13c:	07812f83          	lw	t6,120(sp)
     140:	08010113          	addi	sp,sp,128
     144:	30200073          	mret

00000148 <_start>:
     148:	30401073          	csrw	mie,zero
     14c:	00104117          	auipc	sp,0x104
     150:	2fc10113          	addi	sp,sp,764 # 104448 <_stack_end>
     154:	00004197          	auipc	gp,0x4
     158:	70918193          	addi	gp,gp,1801 # 485d <__global_pointer>
     15c:	00004517          	auipc	a0,0x4
     160:	e4c50513          	addi	a0,a0,-436 # 3fa8 <welcome_msg>
     164:	00400893          	li	a7,4
     168:	00000073          	ecall
     16c:	41d030ef          	jal	3d88 <main>

00000170 <loop>:
     170:	0000006f          	j	170 <loop>

00000174 <enable_interrupt>:
     174:	3001e073          	csrsi	mstatus,3
     178:	30486073          	csrsi	mie,16
     17c:	3048e073          	csrsi	mie,17

00000180 <set_displays>:
     180:	000047b7          	lui	a5,0x4
     184:	3b478793          	addi	a5,a5,948 # 43b4 <segm7_display>
     188:	00400737          	lui	a4,0x400
     18c:	00b787b3          	add	a5,a5,a1
     190:	0007c783          	lbu	a5,0(a5)
     194:	00570713          	addi	a4,a4,5 # 400005 <_stack_end+0x2fbbbd>
     198:	00e50533          	add	a0,a0,a4
     19c:	00451513          	slli	a0,a0,0x4
     1a0:	00f50023          	sb	a5,0(a0)
     1a4:	00008067          	ret

000001a8 <init_display>:
     1a8:	04000793          	li	a5,64
     1ac:	04000837          	lui	a6,0x4000
     1b0:	04f80823          	sb	a5,80(a6) # 4000050 <_stack_end+0x3efbc08>
     1b4:	04000537          	lui	a0,0x4000
     1b8:	06f50023          	sb	a5,96(a0) # 4000060 <_stack_end+0x3efbc18>
     1bc:	040005b7          	lui	a1,0x4000
     1c0:	06f58823          	sb	a5,112(a1) # 4000070 <_stack_end+0x3efbc28>
     1c4:	04000637          	lui	a2,0x4000
     1c8:	08f60023          	sb	a5,128(a2) # 4000080 <_stack_end+0x3efbc38>
     1cc:	040006b7          	lui	a3,0x4000
     1d0:	04000737          	lui	a4,0x4000
     1d4:	08f68823          	sb	a5,144(a3) # 4000090 <_stack_end+0x3efbc48>
     1d8:	0af70023          	sb	a5,160(a4) # 40000a0 <_stack_end+0x3efbc58>
     1dc:	00008067          	ret

000001e0 <set_score>:
     1e0:	00a00693          	li	a3,10
     1e4:	02d54733          	div	a4,a0,a3
     1e8:	000047b7          	lui	a5,0x4
     1ec:	3b478793          	addi	a5,a5,948 # 43b4 <segm7_display>
     1f0:	040008b7          	lui	a7,0x4000
     1f4:	04000837          	lui	a6,0x4000
     1f8:	04000637          	lui	a2,0x4000
     1fc:	02d745b3          	div	a1,a4,a3
     200:	02d56533          	rem	a0,a0,a3
     204:	02d76733          	rem	a4,a4,a3
     208:	00a78533          	add	a0,a5,a0
     20c:	00054503          	lbu	a0,0(a0)
     210:	04a88823          	sb	a0,80(a7) # 4000050 <_stack_end+0x3efbc08>
     214:	02d5e6b3          	rem	a3,a1,a3
     218:	00e78733          	add	a4,a5,a4
     21c:	00074703          	lbu	a4,0(a4)
     220:	06e80023          	sb	a4,96(a6) # 4000060 <_stack_end+0x3efbc18>
     224:	00d787b3          	add	a5,a5,a3
     228:	0007c783          	lbu	a5,0(a5)
     22c:	06f60823          	sb	a5,112(a2) # 4000070 <_stack_end+0x3efbc28>
     230:	00008067          	ret

00000234 <printc>:
     234:	04000737          	lui	a4,0x4000
     238:	04470713          	addi	a4,a4,68 # 4000044 <_stack_end+0x3efbbfc>
     23c:	000106b7          	lui	a3,0x10
     240:	00072783          	lw	a5,0(a4)
     244:	fed7eee3          	bltu	a5,a3,240 <printc+0xc>
     248:	040007b7          	lui	a5,0x4000
     24c:	04a7a023          	sw	a0,64(a5) # 4000040 <_stack_end+0x3efbbf8>
     250:	00008067          	ret

00000254 <print>:
     254:	00054603          	lbu	a2,0(a0)
     258:	02060863          	beqz	a2,288 <print+0x34>
     25c:	04000737          	lui	a4,0x4000
     260:	040005b7          	lui	a1,0x4000
     264:	04470713          	addi	a4,a4,68 # 4000044 <_stack_end+0x3efbbfc>
     268:	000106b7          	lui	a3,0x10
     26c:	04058593          	addi	a1,a1,64 # 4000040 <_stack_end+0x3efbbf8>
     270:	00072783          	lw	a5,0(a4)
     274:	fed7eee3          	bltu	a5,a3,270 <print+0x1c>
     278:	00c5a023          	sw	a2,0(a1)
     27c:	00154603          	lbu	a2,1(a0)
     280:	00150513          	addi	a0,a0,1
     284:	fe0616e3          	bnez	a2,270 <print+0x1c>
     288:	00008067          	ret

0000028c <print_dec>:
     28c:	3b9ad737          	lui	a4,0x3b9ad
     290:	040006b7          	lui	a3,0x4000
     294:	04000337          	lui	t1,0x4000
     298:	00a00593          	li	a1,10
     29c:	00000793          	li	a5,0
     2a0:	a0070713          	addi	a4,a4,-1536 # 3b9aca00 <_stack_end+0x3b8a85b8>
     2a4:	04468693          	addi	a3,a3,68 # 4000044 <_stack_end+0x3efbbfc>
     2a8:	00010637          	lui	a2,0x10
     2ac:	04030313          	addi	t1,t1,64 # 4000040 <_stack_end+0x3efbbf8>
     2b0:	00a00893          	li	a7,10
     2b4:	04e57063          	bgeu	a0,a4,2f4 <print_dec+0x68>
     2b8:	02079e63          	bnez	a5,2f4 <print_dec+0x68>
     2bc:	fff58593          	addi	a1,a1,-1
     2c0:	02e57533          	remu	a0,a0,a4
     2c4:	03175733          	divu	a4,a4,a7
     2c8:	fe0596e3          	bnez	a1,2b4 <print_dec+0x28>
     2cc:	02079263          	bnez	a5,2f0 <print_dec+0x64>
     2d0:	04000737          	lui	a4,0x4000
     2d4:	04470713          	addi	a4,a4,68 # 4000044 <_stack_end+0x3efbbfc>
     2d8:	000106b7          	lui	a3,0x10
     2dc:	00072783          	lw	a5,0(a4)
     2e0:	fed7eee3          	bltu	a5,a3,2dc <print_dec+0x50>
     2e4:	040007b7          	lui	a5,0x4000
     2e8:	03000713          	li	a4,48
     2ec:	04e7a023          	sw	a4,64(a5) # 4000040 <_stack_end+0x3efbbf8>
     2f0:	00008067          	ret
     2f4:	02e55833          	divu	a6,a0,a4
     2f8:	03080813          	addi	a6,a6,48
     2fc:	0ff87813          	zext.b	a6,a6
     300:	0006a783          	lw	a5,0(a3) # 10000 <__global_pointer+0xb7a3>
     304:	fec7eee3          	bltu	a5,a2,300 <print_dec+0x74>
     308:	01032023          	sw	a6,0(t1)
     30c:	00100793          	li	a5,1
     310:	fadff06f          	j	2bc <print_dec+0x30>

00000314 <print_hex32>:
     314:	04000737          	lui	a4,0x4000
     318:	04470713          	addi	a4,a4,68 # 4000044 <_stack_end+0x3efbbfc>
     31c:	000106b7          	lui	a3,0x10
     320:	00072783          	lw	a5,0(a4)
     324:	fed7eee3          	bltu	a5,a3,320 <print_hex32+0xc>
     328:	03000693          	li	a3,48
     32c:	040007b7          	lui	a5,0x4000
     330:	04000737          	lui	a4,0x4000
     334:	04d7a023          	sw	a3,64(a5) # 4000040 <_stack_end+0x3efbbf8>
     338:	04470713          	addi	a4,a4,68 # 4000044 <_stack_end+0x3efbbfc>
     33c:	000106b7          	lui	a3,0x10
     340:	00072783          	lw	a5,0(a4)
     344:	fed7eee3          	bltu	a5,a3,340 <print_hex32+0x2c>
     348:	04000837          	lui	a6,0x4000
     34c:	04080813          	addi	a6,a6,64 # 4000040 <_stack_end+0x3efbbf8>
     350:	04000737          	lui	a4,0x4000
     354:	07800793          	li	a5,120
     358:	00f82023          	sw	a5,0(a6)
     35c:	01c00613          	li	a2,28
     360:	00900313          	li	t1,9
     364:	04470713          	addi	a4,a4,68 # 4000044 <_stack_end+0x3efbbfc>
     368:	000106b7          	lui	a3,0x10
     36c:	ffc00893          	li	a7,-4
     370:	00c557b3          	srl	a5,a0,a2
     374:	00f7f793          	andi	a5,a5,15
     378:	03778593          	addi	a1,a5,55
     37c:	00f36463          	bltu	t1,a5,384 <print_hex32+0x70>
     380:	03078593          	addi	a1,a5,48
     384:	00072783          	lw	a5,0(a4)
     388:	fed7eee3          	bltu	a5,a3,384 <print_hex32+0x70>
     38c:	00b82023          	sw	a1,0(a6)
     390:	ffc60613          	addi	a2,a2,-4 # fffc <__global_pointer+0xb79f>
     394:	fd161ee3          	bne	a2,a7,370 <print_hex32+0x5c>
     398:	00008067          	ret

0000039c <handle_exception>:
     39c:	00200793          	li	a5,2
     3a0:	18f80863          	beq	a6,a5,530 <handle_exception+0x194>
     3a4:	00b00793          	li	a5,11
     3a8:	12f80063          	beq	a6,a5,4c8 <handle_exception+0x12c>
     3ac:	04000737          	lui	a4,0x4000
     3b0:	14081463          	bnez	a6,4f8 <handle_exception+0x15c>
     3b4:	04000837          	lui	a6,0x4000
     3b8:	00004637          	lui	a2,0x4
     3bc:	3c060613          	addi	a2,a2,960 # 43c0 <segm7_display+0xc>
     3c0:	00a00593          	li	a1,10
     3c4:	04470713          	addi	a4,a4,68 # 4000044 <_stack_end+0x3efbbfc>
     3c8:	000106b7          	lui	a3,0x10
     3cc:	04080813          	addi	a6,a6,64 # 4000040 <_stack_end+0x3efbbf8>
     3d0:	00072783          	lw	a5,0(a4)
     3d4:	fed7eee3          	bltu	a5,a3,3d0 <handle_exception+0x34>
     3d8:	00b82023          	sw	a1,0(a6)
     3dc:	00164583          	lbu	a1,1(a2)
     3e0:	00160613          	addi	a2,a2,1
     3e4:	fe0596e3          	bnez	a1,3d0 <handle_exception+0x34>
     3e8:	04000737          	lui	a4,0x4000
     3ec:	04000837          	lui	a6,0x4000
     3f0:	00004637          	lui	a2,0x4
     3f4:	43460613          	addi	a2,a2,1076 # 4434 <segm7_display+0x80>
     3f8:	04500593          	li	a1,69
     3fc:	04470713          	addi	a4,a4,68 # 4000044 <_stack_end+0x3efbbfc>
     400:	000106b7          	lui	a3,0x10
     404:	04080813          	addi	a6,a6,64 # 4000040 <_stack_end+0x3efbbf8>
     408:	00072783          	lw	a5,0(a4)
     40c:	fed7eee3          	bltu	a5,a3,408 <handle_exception+0x6c>
     410:	00b82023          	sw	a1,0(a6)
     414:	00164583          	lbu	a1,1(a2)
     418:	00160613          	addi	a2,a2,1
     41c:	fe0596e3          	bnez	a1,408 <handle_exception+0x6c>
     420:	04000737          	lui	a4,0x4000
     424:	04470713          	addi	a4,a4,68 # 4000044 <_stack_end+0x3efbbfc>
     428:	000106b7          	lui	a3,0x10
     42c:	00072783          	lw	a5,0(a4)
     430:	fed7eee3          	bltu	a5,a3,42c <handle_exception+0x90>
     434:	03000693          	li	a3,48
     438:	040007b7          	lui	a5,0x4000
     43c:	04000737          	lui	a4,0x4000
     440:	04d7a023          	sw	a3,64(a5) # 4000040 <_stack_end+0x3efbbf8>
     444:	04470713          	addi	a4,a4,68 # 4000044 <_stack_end+0x3efbbfc>
     448:	000106b7          	lui	a3,0x10
     44c:	00072783          	lw	a5,0(a4)
     450:	fed7eee3          	bltu	a5,a3,44c <handle_exception+0xb0>
     454:	04000837          	lui	a6,0x4000
     458:	04080813          	addi	a6,a6,64 # 4000040 <_stack_end+0x3efbbf8>
     45c:	04000737          	lui	a4,0x4000
     460:	07800793          	li	a5,120
     464:	00f82023          	sw	a5,0(a6)
     468:	01c00613          	li	a2,28
     46c:	00900313          	li	t1,9
     470:	04470713          	addi	a4,a4,68 # 4000044 <_stack_end+0x3efbbfc>
     474:	000106b7          	lui	a3,0x10
     478:	ffc00893          	li	a7,-4
     47c:	00c557b3          	srl	a5,a0,a2
     480:	00f7f793          	andi	a5,a5,15
     484:	03778593          	addi	a1,a5,55
     488:	00f36463          	bltu	t1,a5,490 <handle_exception+0xf4>
     48c:	03078593          	addi	a1,a5,48
     490:	00072783          	lw	a5,0(a4)
     494:	fed7eee3          	bltu	a5,a3,490 <handle_exception+0xf4>
     498:	00b82023          	sw	a1,0(a6)
     49c:	ffc60613          	addi	a2,a2,-4
     4a0:	fd161ee3          	bne	a2,a7,47c <handle_exception+0xe0>
     4a4:	04000737          	lui	a4,0x4000
     4a8:	04470713          	addi	a4,a4,68 # 4000044 <_stack_end+0x3efbbfc>
     4ac:	000106b7          	lui	a3,0x10
     4b0:	00072783          	lw	a5,0(a4)
     4b4:	fed7eee3          	bltu	a5,a3,4b0 <handle_exception+0x114>
     4b8:	040007b7          	lui	a5,0x4000
     4bc:	00a00713          	li	a4,10
     4c0:	04e7a023          	sw	a4,64(a5) # 4000040 <_stack_end+0x3efbbf8>
     4c4:	0000006f          	j	4c4 <handle_exception+0x128>
     4c8:	00400793          	li	a5,4
     4cc:	0af88063          	beq	a7,a5,56c <handle_exception+0x1d0>
     4d0:	0d089a63          	bne	a7,a6,5a4 <handle_exception+0x208>
     4d4:	04000737          	lui	a4,0x4000
     4d8:	04470713          	addi	a4,a4,68 # 4000044 <_stack_end+0x3efbbfc>
     4dc:	000106b7          	lui	a3,0x10
     4e0:	00072783          	lw	a5,0(a4)
     4e4:	fed7eee3          	bltu	a5,a3,4e0 <handle_exception+0x144>
     4e8:	040007b7          	lui	a5,0x4000
     4ec:	0ff57513          	zext.b	a0,a0
     4f0:	04a7a023          	sw	a0,64(a5) # 4000040 <_stack_end+0x3efbbf8>
     4f4:	00008067          	ret
     4f8:	04000837          	lui	a6,0x4000
     4fc:	00004637          	lui	a2,0x4
     500:	41460613          	addi	a2,a2,1044 # 4414 <segm7_display+0x60>
     504:	00a00593          	li	a1,10
     508:	04470713          	addi	a4,a4,68
     50c:	000106b7          	lui	a3,0x10
     510:	04080813          	addi	a6,a6,64 # 4000040 <_stack_end+0x3efbbf8>
     514:	00072783          	lw	a5,0(a4)
     518:	fed7eee3          	bltu	a5,a3,514 <handle_exception+0x178>
     51c:	00b82023          	sw	a1,0(a6)
     520:	00164583          	lbu	a1,1(a2)
     524:	00160613          	addi	a2,a2,1
     528:	fe0596e3          	bnez	a1,514 <handle_exception+0x178>
     52c:	ebdff06f          	j	3e8 <handle_exception+0x4c>
     530:	04000737          	lui	a4,0x4000
     534:	04000837          	lui	a6,0x4000
     538:	00004637          	lui	a2,0x4
     53c:	3f060613          	addi	a2,a2,1008 # 43f0 <segm7_display+0x3c>
     540:	00a00593          	li	a1,10
     544:	04470713          	addi	a4,a4,68 # 4000044 <_stack_end+0x3efbbfc>
     548:	000106b7          	lui	a3,0x10
     54c:	04080813          	addi	a6,a6,64 # 4000040 <_stack_end+0x3efbbf8>
     550:	00072783          	lw	a5,0(a4)
     554:	fed7eee3          	bltu	a5,a3,550 <handle_exception+0x1b4>
     558:	00b82023          	sw	a1,0(a6)
     55c:	00164583          	lbu	a1,1(a2)
     560:	00160613          	addi	a2,a2,1
     564:	fe0596e3          	bnez	a1,550 <handle_exception+0x1b4>
     568:	e81ff06f          	j	3e8 <handle_exception+0x4c>
     56c:	00054603          	lbu	a2,0(a0)
     570:	02060a63          	beqz	a2,5a4 <handle_exception+0x208>
     574:	04000737          	lui	a4,0x4000
     578:	040005b7          	lui	a1,0x4000
     57c:	04470713          	addi	a4,a4,68 # 4000044 <_stack_end+0x3efbbfc>
     580:	000106b7          	lui	a3,0x10
     584:	04058593          	addi	a1,a1,64 # 4000040 <_stack_end+0x3efbbf8>
     588:	00072783          	lw	a5,0(a4)
     58c:	fed7eee3          	bltu	a5,a3,588 <handle_exception+0x1ec>
     590:	00c5a023          	sw	a2,0(a1)
     594:	00154603          	lbu	a2,1(a0)
     598:	00150513          	addi	a0,a0,1
     59c:	fe0616e3          	bnez	a2,588 <handle_exception+0x1ec>
     5a0:	00008067          	ret
     5a4:	00008067          	ret

000005a8 <nextprime>:
     5a8:	00200713          	li	a4,2
     5ac:	00050793          	mv	a5,a0
     5b0:	02a74063          	blt	a4,a0,5d0 <nextprime+0x28>
     5b4:	00100513          	li	a0,1
     5b8:	00f05a63          	blez	a5,5cc <nextprime+0x24>
     5bc:	fff78793          	addi	a5,a5,-1
     5c0:	00f037b3          	snez	a5,a5
     5c4:	00278513          	addi	a0,a5,2
     5c8:	00008067          	ret
     5cc:	00008067          	ret
     5d0:	00150793          	addi	a5,a0,1
     5d4:	0017e513          	ori	a0,a5,1
     5d8:	00300613          	li	a2,3
     5dc:	02c567b3          	rem	a5,a0,a2
     5e0:	40155693          	srai	a3,a0,0x1
     5e4:	02078263          	beqz	a5,608 <nextprime+0x60>
     5e8:	00268693          	addi	a3,a3,2 # 10002 <__global_pointer+0xb7a5>
     5ec:	00300793          	li	a5,3
     5f0:	00c0006f          	j	5fc <nextprime+0x54>
     5f4:	02f56733          	rem	a4,a0,a5
     5f8:	00070863          	beqz	a4,608 <nextprime+0x60>
     5fc:	00178793          	addi	a5,a5,1
     600:	fef69ae3          	bne	a3,a5,5f4 <nextprime+0x4c>
     604:	00008067          	ret
     608:	00250513          	addi	a0,a0,2
     60c:	fd1ff06f          	j	5dc <nextprime+0x34>

00000610 <get_sw>:
     610:	040007b7          	lui	a5,0x4000
     614:	0107a503          	lw	a0,16(a5) # 4000010 <_stack_end+0x3efbbc8>
     618:	00157513          	andi	a0,a0,1
     61c:	00008067          	ret

00000620 <get_btn>:
     620:	040007b7          	lui	a5,0x4000
     624:	0d07c503          	lbu	a0,208(a5) # 40000d0 <_stack_end+0x3efbc88>
     628:	00157513          	andi	a0,a0,1
     62c:	00008067          	ret

00000630 <pseudo_random_number_generator>:
     630:	00004737          	lui	a4,0x4
     634:	06872503          	lw	a0,104(a4) # 4068 <random_number_seed>
     638:	004dc7b7          	lui	a5,0x4dc
     63c:	70178793          	addi	a5,a5,1793 # 4dc701 <_stack_end+0x3d82b9>
     640:	02f50533          	mul	a0,a0,a5
     644:	000147b7          	lui	a5,0x14
     648:	e2078793          	addi	a5,a5,-480 # 13e20 <__global_pointer+0xf5c3>
     64c:	00f50533          	add	a0,a0,a5
     650:	00c51513          	slli	a0,a0,0xc
     654:	00c55513          	srli	a0,a0,0xc
     658:	06a72423          	sw	a0,104(a4)
     65c:	00008067          	ret

00000660 <show_framebuffer>:
     660:	000047b7          	lui	a5,0x4
     664:	00004737          	lui	a4,0x4
     668:	0607a783          	lw	a5,96(a5) # 4060 <VGA_CTRL>
     66c:	06472703          	lw	a4,100(a4) # 4064 <VGA>
     670:	00e7a223          	sw	a4,4(a5)
     674:	0007a023          	sw	zero,0(a5)
     678:	00008067          	ret

0000067c <draw_block>:
     67c:	00002737          	lui	a4,0x2
     680:	00158793          	addi	a5,a1,1
     684:	90070713          	addi	a4,a4,-1792 # 1900 <draw_E+0x2d4>
     688:	02e787b3          	mul	a5,a5,a4
     68c:	00251713          	slli	a4,a0,0x2
     690:	00a70733          	add	a4,a4,a0
     694:	00002537          	lui	a0,0x2
     698:	00271713          	slli	a4,a4,0x2
     69c:	95050513          	addi	a0,a0,-1712 # 1950 <draw_E+0x324>
     6a0:	000045b7          	lui	a1,0x4
     6a4:	00f706b3          	add	a3,a4,a5
     6a8:	00a787b3          	add	a5,a5,a0
     6ac:	05068693          	addi	a3,a3,80
     6b0:	00e78533          	add	a0,a5,a4
     6b4:	fec68793          	addi	a5,a3,-20
     6b8:	0645a703          	lw	a4,100(a1) # 4064 <VGA>
     6bc:	00f70733          	add	a4,a4,a5
     6c0:	00c70023          	sb	a2,0(a4)
     6c4:	00178793          	addi	a5,a5,1
     6c8:	fed798e3          	bne	a5,a3,6b8 <draw_block+0x3c>
     6cc:	14078693          	addi	a3,a5,320
     6d0:	fea692e3          	bne	a3,a0,6b4 <draw_block+0x38>
     6d4:	00008067          	ret

000006d8 <draw_letter_block>:
     6d8:	000017b7          	lui	a5,0x1
     6dc:	c8078793          	addi	a5,a5,-896 # c80 <__heap_size+0x480>
     6e0:	02f58733          	mul	a4,a1,a5
     6e4:	00259793          	slli	a5,a1,0x2
     6e8:	00b787b3          	add	a5,a5,a1
     6ec:	00179793          	slli	a5,a5,0x1
     6f0:	01e78793          	addi	a5,a5,30
     6f4:	00251693          	slli	a3,a0,0x2
     6f8:	00279593          	slli	a1,a5,0x2
     6fc:	00a686b3          	add	a3,a3,a0
     700:	00003537          	lui	a0,0x3
     704:	00169693          	slli	a3,a3,0x1
     708:	00f587b3          	add	a5,a1,a5
     70c:	21950513          	addi	a0,a0,537 # 3219 <create_snake+0x49>
     710:	00a70733          	add	a4,a4,a0
     714:	00679793          	slli	a5,a5,0x6
     718:	01968593          	addi	a1,a3,25
     71c:	00d708b3          	add	a7,a4,a3
     720:	00b787b3          	add	a5,a5,a1
     724:	00004737          	lui	a4,0x4
     728:	06472683          	lw	a3,100(a4) # 4064 <VGA>
     72c:	00178813          	addi	a6,a5,1
     730:	00278513          	addi	a0,a5,2
     734:	00f686b3          	add	a3,a3,a5
     738:	00c68023          	sb	a2,0(a3)
     73c:	06472683          	lw	a3,100(a4)
     740:	00378593          	addi	a1,a5,3
     744:	00478e93          	addi	t4,a5,4
     748:	010686b3          	add	a3,a3,a6
     74c:	00c68023          	sb	a2,0(a3)
     750:	06472683          	lw	a3,100(a4)
     754:	00578e13          	addi	t3,a5,5
     758:	00678313          	addi	t1,a5,6
     75c:	00a686b3          	add	a3,a3,a0
     760:	00c68023          	sb	a2,0(a3)
     764:	06472683          	lw	a3,100(a4)
     768:	00778813          	addi	a6,a5,7
     76c:	00878513          	addi	a0,a5,8
     770:	00b686b3          	add	a3,a3,a1
     774:	00c68023          	sb	a2,0(a3)
     778:	06472683          	lw	a3,100(a4)
     77c:	00978593          	addi	a1,a5,9
     780:	14078793          	addi	a5,a5,320
     784:	01d686b3          	add	a3,a3,t4
     788:	00c68023          	sb	a2,0(a3)
     78c:	06472683          	lw	a3,100(a4)
     790:	01c686b3          	add	a3,a3,t3
     794:	00c68023          	sb	a2,0(a3)
     798:	06472683          	lw	a3,100(a4)
     79c:	006686b3          	add	a3,a3,t1
     7a0:	00c68023          	sb	a2,0(a3)
     7a4:	06472683          	lw	a3,100(a4)
     7a8:	010686b3          	add	a3,a3,a6
     7ac:	00c68023          	sb	a2,0(a3)
     7b0:	06472683          	lw	a3,100(a4)
     7b4:	00a686b3          	add	a3,a3,a0
     7b8:	00c68023          	sb	a2,0(a3)
     7bc:	06472683          	lw	a3,100(a4)
     7c0:	00b686b3          	add	a3,a3,a1
     7c4:	00c68023          	sb	a2,0(a3)
     7c8:	f6f890e3          	bne	a7,a5,728 <draw_letter_block+0x50>
     7cc:	00008067          	ret

000007d0 <draw_G>:
     7d0:	00005537          	lui	a0,0x5
     7d4:	000095b7          	lui	a1,0x9
     7d8:	ffffc8b7          	lui	a7,0xffffc
     7dc:	fffff337          	lui	t1,0xfffff
     7e0:	00009837          	lui	a6,0x9
     7e4:	7b750513          	addi	a0,a0,1975 # 57b7 <__global_pointer+0xf5a>
     7e8:	9b758593          	addi	a1,a1,-1609 # 89b7 <__global_pointer+0x415a>
     7ec:	000047b7          	lui	a5,0x4
     7f0:	18088893          	addi	a7,a7,384 # ffffc180 <_stack_end+0xffef7d38>
     7f4:	fe000713          	li	a4,-32
     7f8:	38030313          	addi	t1,t1,896 # fffff380 <_stack_end+0xffefaf38>
     7fc:	9df80813          	addi	a6,a6,-1569 # 89df <__global_pointer+0x4182>
     800:	011586b3          	add	a3,a1,a7
     804:	0647a603          	lw	a2,100(a5) # 4064 <VGA>
     808:	00168f13          	addi	t5,a3,1
     80c:	00268e93          	addi	t4,a3,2
     810:	00d60633          	add	a2,a2,a3
     814:	00e60023          	sb	a4,0(a2)
     818:	0647a603          	lw	a2,100(a5)
     81c:	00368e13          	addi	t3,a3,3
     820:	00468393          	addi	t2,a3,4
     824:	01e60633          	add	a2,a2,t5
     828:	00e60023          	sb	a4,0(a2)
     82c:	0647a603          	lw	a2,100(a5)
     830:	00568293          	addi	t0,a3,5
     834:	00668f93          	addi	t6,a3,6
     838:	01d60633          	add	a2,a2,t4
     83c:	00e60023          	sb	a4,0(a2)
     840:	0647a603          	lw	a2,100(a5)
     844:	00768f13          	addi	t5,a3,7
     848:	00868e93          	addi	t4,a3,8
     84c:	01c60633          	add	a2,a2,t3
     850:	00e60023          	sb	a4,0(a2)
     854:	0647a603          	lw	a2,100(a5)
     858:	00968e13          	addi	t3,a3,9
     85c:	14068693          	addi	a3,a3,320
     860:	00760633          	add	a2,a2,t2
     864:	00e60023          	sb	a4,0(a2)
     868:	0647a603          	lw	a2,100(a5)
     86c:	00560633          	add	a2,a2,t0
     870:	00e60023          	sb	a4,0(a2)
     874:	0647a603          	lw	a2,100(a5)
     878:	01f60633          	add	a2,a2,t6
     87c:	00e60023          	sb	a4,0(a2)
     880:	0647a603          	lw	a2,100(a5)
     884:	01e60633          	add	a2,a2,t5
     888:	00e60023          	sb	a4,0(a2)
     88c:	0647a603          	lw	a2,100(a5)
     890:	01d60633          	add	a2,a2,t4
     894:	00e60023          	sb	a4,0(a2)
     898:	0647a603          	lw	a2,100(a5)
     89c:	01c60633          	add	a2,a2,t3
     8a0:	00e60023          	sb	a4,0(a2)
     8a4:	f6d510e3          	bne	a0,a3,804 <__heap_size+0x4>
     8a8:	006586b3          	add	a3,a1,t1
     8ac:	0647a603          	lw	a2,100(a5)
     8b0:	00168f13          	addi	t5,a3,1
     8b4:	00268e93          	addi	t4,a3,2
     8b8:	00d60633          	add	a2,a2,a3
     8bc:	00e60023          	sb	a4,0(a2)
     8c0:	0647a603          	lw	a2,100(a5)
     8c4:	00368e13          	addi	t3,a3,3
     8c8:	00468393          	addi	t2,a3,4
     8cc:	01e60633          	add	a2,a2,t5
     8d0:	00e60023          	sb	a4,0(a2)
     8d4:	0647a603          	lw	a2,100(a5)
     8d8:	00568293          	addi	t0,a3,5
     8dc:	00668f93          	addi	t6,a3,6
     8e0:	01d60633          	add	a2,a2,t4
     8e4:	00e60023          	sb	a4,0(a2)
     8e8:	0647a603          	lw	a2,100(a5)
     8ec:	00768f13          	addi	t5,a3,7
     8f0:	00868e93          	addi	t4,a3,8
     8f4:	01c60633          	add	a2,a2,t3
     8f8:	00e60023          	sb	a4,0(a2)
     8fc:	0647a603          	lw	a2,100(a5)
     900:	00968e13          	addi	t3,a3,9
     904:	14068693          	addi	a3,a3,320
     908:	00760633          	add	a2,a2,t2
     90c:	00e60023          	sb	a4,0(a2)
     910:	0647a603          	lw	a2,100(a5)
     914:	00560633          	add	a2,a2,t0
     918:	00e60023          	sb	a4,0(a2)
     91c:	0647a603          	lw	a2,100(a5)
     920:	01f60633          	add	a2,a2,t6
     924:	00e60023          	sb	a4,0(a2)
     928:	0647a603          	lw	a2,100(a5)
     92c:	01e60633          	add	a2,a2,t5
     930:	00e60023          	sb	a4,0(a2)
     934:	0647a603          	lw	a2,100(a5)
     938:	01d60633          	add	a2,a2,t4
     93c:	00e60023          	sb	a4,0(a2)
     940:	0647a603          	lw	a2,100(a5)
     944:	01c60633          	add	a2,a2,t3
     948:	00e60023          	sb	a4,0(a2)
     94c:	f6d590e3          	bne	a1,a3,8ac <__heap_size+0xac>
     950:	00a58593          	addi	a1,a1,10
     954:	00a50513          	addi	a0,a0,10
     958:	eb0594e3          	bne	a1,a6,800 <__heap_size>
     95c:	00006537          	lui	a0,0x6
     960:	000075b7          	lui	a1,0x7
     964:	fffff837          	lui	a6,0xfffff
     968:	00001337          	lui	t1,0x1
     96c:	000078b7          	lui	a7,0x7
     970:	42d50513          	addi	a0,a0,1069 # 642d <__global_pointer+0x1bd0>
     974:	0c158593          	addi	a1,a1,193 # 70c1 <__global_pointer+0x2864>
     978:	38080813          	addi	a6,a6,896 # fffff380 <_stack_end+0xffefaf38>
     97c:	fe000713          	li	a4,-32
     980:	c8030313          	addi	t1,t1,-896 # c80 <__heap_size+0x480>
     984:	0df88893          	addi	a7,a7,223 # 70df <__global_pointer+0x2882>
     988:	010506b3          	add	a3,a0,a6
     98c:	0647a603          	lw	a2,100(a5)
     990:	00168f13          	addi	t5,a3,1
     994:	00268e93          	addi	t4,a3,2
     998:	00d60633          	add	a2,a2,a3
     99c:	00e60023          	sb	a4,0(a2)
     9a0:	0647a603          	lw	a2,100(a5)
     9a4:	00368e13          	addi	t3,a3,3
     9a8:	00468393          	addi	t2,a3,4
     9ac:	01e60633          	add	a2,a2,t5
     9b0:	00e60023          	sb	a4,0(a2)
     9b4:	0647a603          	lw	a2,100(a5)
     9b8:	00568293          	addi	t0,a3,5
     9bc:	00668f93          	addi	t6,a3,6
     9c0:	01d60633          	add	a2,a2,t4
     9c4:	00e60023          	sb	a4,0(a2)
     9c8:	0647a603          	lw	a2,100(a5)
     9cc:	00768f13          	addi	t5,a3,7
     9d0:	00868e93          	addi	t4,a3,8
     9d4:	01c60633          	add	a2,a2,t3
     9d8:	00e60023          	sb	a4,0(a2)
     9dc:	0647a603          	lw	a2,100(a5)
     9e0:	00968e13          	addi	t3,a3,9
     9e4:	14068693          	addi	a3,a3,320
     9e8:	00760633          	add	a2,a2,t2
     9ec:	00e60023          	sb	a4,0(a2)
     9f0:	0647a603          	lw	a2,100(a5)
     9f4:	00560633          	add	a2,a2,t0
     9f8:	00e60023          	sb	a4,0(a2)
     9fc:	0647a603          	lw	a2,100(a5)
     a00:	01f60633          	add	a2,a2,t6
     a04:	00e60023          	sb	a4,0(a2)
     a08:	0647a603          	lw	a2,100(a5)
     a0c:	01e60633          	add	a2,a2,t5
     a10:	00e60023          	sb	a4,0(a2)
     a14:	0647a603          	lw	a2,100(a5)
     a18:	01d60633          	add	a2,a2,t4
     a1c:	00e60023          	sb	a4,0(a2)
     a20:	0647a603          	lw	a2,100(a5)
     a24:	01c60633          	add	a2,a2,t3
     a28:	00e60023          	sb	a4,0(a2)
     a2c:	f6d510e3          	bne	a0,a3,98c <__heap_size+0x18c>
     a30:	010586b3          	add	a3,a1,a6
     a34:	0647a603          	lw	a2,100(a5)
     a38:	00168f13          	addi	t5,a3,1
     a3c:	00268e93          	addi	t4,a3,2
     a40:	00d60633          	add	a2,a2,a3
     a44:	00e60023          	sb	a4,0(a2)
     a48:	0647a603          	lw	a2,100(a5)
     a4c:	00368e13          	addi	t3,a3,3
     a50:	00468393          	addi	t2,a3,4
     a54:	01e60633          	add	a2,a2,t5
     a58:	00e60023          	sb	a4,0(a2)
     a5c:	0647a603          	lw	a2,100(a5)
     a60:	00568293          	addi	t0,a3,5
     a64:	00668f93          	addi	t6,a3,6
     a68:	01d60633          	add	a2,a2,t4
     a6c:	00e60023          	sb	a4,0(a2)
     a70:	0647a603          	lw	a2,100(a5)
     a74:	00768f13          	addi	t5,a3,7
     a78:	00868e93          	addi	t4,a3,8
     a7c:	01c60633          	add	a2,a2,t3
     a80:	00e60023          	sb	a4,0(a2)
     a84:	0647a603          	lw	a2,100(a5)
     a88:	00968e13          	addi	t3,a3,9
     a8c:	14068693          	addi	a3,a3,320
     a90:	00760633          	add	a2,a2,t2
     a94:	00e60023          	sb	a4,0(a2)
     a98:	0647a603          	lw	a2,100(a5)
     a9c:	00560633          	add	a2,a2,t0
     aa0:	00e60023          	sb	a4,0(a2)
     aa4:	0647a603          	lw	a2,100(a5)
     aa8:	01f60633          	add	a2,a2,t6
     aac:	00e60023          	sb	a4,0(a2)
     ab0:	0647a603          	lw	a2,100(a5)
     ab4:	01e60633          	add	a2,a2,t5
     ab8:	00e60023          	sb	a4,0(a2)
     abc:	0647a603          	lw	a2,100(a5)
     ac0:	01d60633          	add	a2,a2,t4
     ac4:	00e60023          	sb	a4,0(a2)
     ac8:	0647a603          	lw	a2,100(a5)
     acc:	01c60633          	add	a2,a2,t3
     ad0:	00e60023          	sb	a4,0(a2)
     ad4:	f6d590e3          	bne	a1,a3,a34 <__heap_size+0x234>
     ad8:	00a58593          	addi	a1,a1,10
     adc:	00650533          	add	a0,a0,t1
     ae0:	eb1594e3          	bne	a1,a7,988 <__heap_size+0x188>
     ae4:	0647a683          	lw	a3,100(a5)
     ae8:	000077b7          	lui	a5,0x7
     aec:	00008637          	lui	a2,0x8
     af0:	00f687b3          	add	a5,a3,a5
     af4:	0ce78aa3          	sb	a4,213(a5) # 70d5 <__global_pointer+0x2878>
     af8:	0ce78b23          	sb	a4,214(a5)
     afc:	0ce78ba3          	sb	a4,215(a5)
     b00:	0ce78c23          	sb	a4,216(a5)
     b04:	0ce78ca3          	sb	a4,217(a5)
     b08:	0ce78d23          	sb	a4,218(a5)
     b0c:	0ce78da3          	sb	a4,219(a5)
     b10:	0ce78e23          	sb	a4,220(a5)
     b14:	0ce78ea3          	sb	a4,221(a5)
     b18:	0ce78f23          	sb	a4,222(a5)
     b1c:	20e78aa3          	sb	a4,533(a5)
     b20:	20e78b23          	sb	a4,534(a5)
     b24:	20e78ba3          	sb	a4,535(a5)
     b28:	20e78c23          	sb	a4,536(a5)
     b2c:	20e78ca3          	sb	a4,537(a5)
     b30:	20e78d23          	sb	a4,538(a5)
     b34:	20e78da3          	sb	a4,539(a5)
     b38:	20e78e23          	sb	a4,540(a5)
     b3c:	20e78ea3          	sb	a4,541(a5)
     b40:	20e78f23          	sb	a4,542(a5)
     b44:	34e78aa3          	sb	a4,853(a5)
     b48:	34e78b23          	sb	a4,854(a5)
     b4c:	34e78ba3          	sb	a4,855(a5)
     b50:	34e78c23          	sb	a4,856(a5)
     b54:	34e78ca3          	sb	a4,857(a5)
     b58:	34e78d23          	sb	a4,858(a5)
     b5c:	34e78da3          	sb	a4,859(a5)
     b60:	34e78e23          	sb	a4,860(a5)
     b64:	34e78ea3          	sb	a4,861(a5)
     b68:	34e78f23          	sb	a4,862(a5)
     b6c:	48e78aa3          	sb	a4,1173(a5)
     b70:	48e78b23          	sb	a4,1174(a5)
     b74:	48e78ba3          	sb	a4,1175(a5)
     b78:	48e78c23          	sb	a4,1176(a5)
     b7c:	48e78ca3          	sb	a4,1177(a5)
     b80:	48e78d23          	sb	a4,1178(a5)
     b84:	48e78da3          	sb	a4,1179(a5)
     b88:	48e78e23          	sb	a4,1180(a5)
     b8c:	48e78ea3          	sb	a4,1181(a5)
     b90:	48e78f23          	sb	a4,1182(a5)
     b94:	5ce78aa3          	sb	a4,1493(a5)
     b98:	5ce78b23          	sb	a4,1494(a5)
     b9c:	5ce78ba3          	sb	a4,1495(a5)
     ba0:	5ce78c23          	sb	a4,1496(a5)
     ba4:	5ce78ca3          	sb	a4,1497(a5)
     ba8:	5ce78d23          	sb	a4,1498(a5)
     bac:	5ce78da3          	sb	a4,1499(a5)
     bb0:	5ce78e23          	sb	a4,1500(a5)
     bb4:	5ce78ea3          	sb	a4,1501(a5)
     bb8:	5ce78f23          	sb	a4,1502(a5)
     bbc:	70e78aa3          	sb	a4,1813(a5)
     bc0:	70e78b23          	sb	a4,1814(a5)
     bc4:	70e78ba3          	sb	a4,1815(a5)
     bc8:	70e78c23          	sb	a4,1816(a5)
     bcc:	70e78ca3          	sb	a4,1817(a5)
     bd0:	70e78d23          	sb	a4,1818(a5)
     bd4:	70e78da3          	sb	a4,1819(a5)
     bd8:	70e78e23          	sb	a4,1820(a5)
     bdc:	70e78ea3          	sb	a4,1821(a5)
     be0:	00c686b3          	add	a3,a3,a2
     be4:	70e78f23          	sb	a4,1822(a5)
     be8:	84e68aa3          	sb	a4,-1963(a3)
     bec:	84e68b23          	sb	a4,-1962(a3)
     bf0:	84e68ba3          	sb	a4,-1961(a3)
     bf4:	84e68c23          	sb	a4,-1960(a3)
     bf8:	84e68ca3          	sb	a4,-1959(a3)
     bfc:	84e68d23          	sb	a4,-1958(a3)
     c00:	84e68da3          	sb	a4,-1957(a3)
     c04:	84e68e23          	sb	a4,-1956(a3)
     c08:	84e68ea3          	sb	a4,-1955(a3)
     c0c:	84e68f23          	sb	a4,-1954(a3)
     c10:	98e68aa3          	sb	a4,-1643(a3)
     c14:	98e68b23          	sb	a4,-1642(a3)
     c18:	98e68ba3          	sb	a4,-1641(a3)
     c1c:	98e68c23          	sb	a4,-1640(a3)
     c20:	98e68ca3          	sb	a4,-1639(a3)
     c24:	98e68d23          	sb	a4,-1638(a3)
     c28:	98e68da3          	sb	a4,-1637(a3)
     c2c:	98e68e23          	sb	a4,-1636(a3)
     c30:	98e68ea3          	sb	a4,-1635(a3)
     c34:	98e68f23          	sb	a4,-1634(a3)
     c38:	ace68aa3          	sb	a4,-1323(a3)
     c3c:	ace68b23          	sb	a4,-1322(a3)
     c40:	ace68ba3          	sb	a4,-1321(a3)
     c44:	ace68c23          	sb	a4,-1320(a3)
     c48:	ace68ca3          	sb	a4,-1319(a3)
     c4c:	ace68d23          	sb	a4,-1318(a3)
     c50:	ace68da3          	sb	a4,-1317(a3)
     c54:	ace68e23          	sb	a4,-1316(a3)
     c58:	ace68ea3          	sb	a4,-1315(a3)
     c5c:	ace68f23          	sb	a4,-1314(a3)
     c60:	c0e68aa3          	sb	a4,-1003(a3)
     c64:	c0e68b23          	sb	a4,-1002(a3)
     c68:	c0e68ba3          	sb	a4,-1001(a3)
     c6c:	c0e68c23          	sb	a4,-1000(a3)
     c70:	c0e68ca3          	sb	a4,-999(a3)
     c74:	c0e68d23          	sb	a4,-998(a3)
     c78:	c0e68da3          	sb	a4,-997(a3)
     c7c:	c0e68e23          	sb	a4,-996(a3)
     c80:	c0e68ea3          	sb	a4,-995(a3)
     c84:	c0e68f23          	sb	a4,-994(a3)
     c88:	00008067          	ret

00000c8c <draw_A>:
     c8c:	ff010113          	addi	sp,sp,-16
     c90:	00005537          	lui	a0,0x5
     c94:	fffff8b7          	lui	a7,0xfffff
     c98:	00006837          	lui	a6,0x6
     c9c:	00812623          	sw	s0,12(sp)
     ca0:	00912423          	sw	s1,8(sp)
     ca4:	7f350513          	addi	a0,a0,2035 # 57f3 <__global_pointer+0xf96>
     ca8:	000047b7          	lui	a5,0x4
     cac:	38088893          	addi	a7,a7,896 # fffff380 <_stack_end+0xffefaf38>
     cb0:	fe000693          	li	a3,-32
     cb4:	81180813          	addi	a6,a6,-2031 # 5811 <__global_pointer+0xfb4>
     cb8:	01150733          	add	a4,a0,a7
     cbc:	0647a603          	lw	a2,100(a5) # 4064 <VGA>
     cc0:	00170e13          	addi	t3,a4,1
     cc4:	00270313          	addi	t1,a4,2
     cc8:	00e60633          	add	a2,a2,a4
     ccc:	00d60023          	sb	a3,0(a2) # 8000 <__global_pointer+0x37a3>
     cd0:	0647a603          	lw	a2,100(a5)
     cd4:	00370593          	addi	a1,a4,3
     cd8:	00470f93          	addi	t6,a4,4
     cdc:	01c60633          	add	a2,a2,t3
     ce0:	00d60023          	sb	a3,0(a2)
     ce4:	0647a603          	lw	a2,100(a5)
     ce8:	00570f13          	addi	t5,a4,5
     cec:	00670e93          	addi	t4,a4,6
     cf0:	00660633          	add	a2,a2,t1
     cf4:	00d60023          	sb	a3,0(a2)
     cf8:	0647a603          	lw	a2,100(a5)
     cfc:	00770e13          	addi	t3,a4,7
     d00:	00870313          	addi	t1,a4,8
     d04:	00b60633          	add	a2,a2,a1
     d08:	00d60023          	sb	a3,0(a2)
     d0c:	0647a603          	lw	a2,100(a5)
     d10:	00970593          	addi	a1,a4,9
     d14:	14070713          	addi	a4,a4,320
     d18:	01f60633          	add	a2,a2,t6
     d1c:	00d60023          	sb	a3,0(a2)
     d20:	0647a603          	lw	a2,100(a5)
     d24:	01e60633          	add	a2,a2,t5
     d28:	00d60023          	sb	a3,0(a2)
     d2c:	0647a603          	lw	a2,100(a5)
     d30:	01d60633          	add	a2,a2,t4
     d34:	00d60023          	sb	a3,0(a2)
     d38:	0647a603          	lw	a2,100(a5)
     d3c:	01c60633          	add	a2,a2,t3
     d40:	00d60023          	sb	a3,0(a2)
     d44:	0647a603          	lw	a2,100(a5)
     d48:	00660633          	add	a2,a2,t1
     d4c:	00d60023          	sb	a3,0(a2)
     d50:	0647a603          	lw	a2,100(a5)
     d54:	00b60633          	add	a2,a2,a1
     d58:	00d60023          	sb	a3,0(a2)
     d5c:	f6e510e3          	bne	a0,a4,cbc <draw_A+0x30>
     d60:	00a50513          	addi	a0,a0,10
     d64:	f5051ae3          	bne	a0,a6,cb8 <draw_A+0x2c>
     d68:	000075b7          	lui	a1,0x7
     d6c:	00006837          	lui	a6,0x6
     d70:	00006537          	lui	a0,0x6
     d74:	fffff337          	lui	t1,0xfffff
     d78:	fffffeb7          	lui	t4,0xfffff
     d7c:	000018b7          	lui	a7,0x1
     d80:	00007e37          	lui	t3,0x7
     d84:	0e958593          	addi	a1,a1,233 # 70e9 <__global_pointer+0x288c>
     d88:	46980813          	addi	a6,a6,1129 # 6469 <__global_pointer+0x1c0c>
     d8c:	49150513          	addi	a0,a0,1169 # 6491 <__global_pointer+0x1c34>
     d90:	38030313          	addi	t1,t1,896 # fffff380 <_stack_end+0xffefaf38>
     d94:	fe000713          	li	a4,-32
     d98:	358e8e93          	addi	t4,t4,856 # fffff358 <_stack_end+0xffefaf10>
     d9c:	c8088893          	addi	a7,a7,-896 # c80 <__heap_size+0x480>
     da0:	111e0e13          	addi	t3,t3,273 # 7111 <__global_pointer+0x28b4>
     da4:	006586b3          	add	a3,a1,t1
     da8:	0647a603          	lw	a2,100(a5)
     dac:	00168293          	addi	t0,a3,1
     db0:	00268f93          	addi	t6,a3,2
     db4:	00d60633          	add	a2,a2,a3
     db8:	00e60023          	sb	a4,0(a2)
     dbc:	0647a603          	lw	a2,100(a5)
     dc0:	00368f13          	addi	t5,a3,3
     dc4:	00468493          	addi	s1,a3,4
     dc8:	00560633          	add	a2,a2,t0
     dcc:	00e60023          	sb	a4,0(a2)
     dd0:	0647a603          	lw	a2,100(a5)
     dd4:	00568413          	addi	s0,a3,5
     dd8:	00668393          	addi	t2,a3,6
     ddc:	01f60633          	add	a2,a2,t6
     de0:	00e60023          	sb	a4,0(a2)
     de4:	0647a603          	lw	a2,100(a5)
     de8:	00768293          	addi	t0,a3,7
     dec:	00868f93          	addi	t6,a3,8
     df0:	01e60633          	add	a2,a2,t5
     df4:	00e60023          	sb	a4,0(a2)
     df8:	0647a603          	lw	a2,100(a5)
     dfc:	00968f13          	addi	t5,a3,9
     e00:	14068693          	addi	a3,a3,320
     e04:	00960633          	add	a2,a2,s1
     e08:	00e60023          	sb	a4,0(a2)
     e0c:	0647a603          	lw	a2,100(a5)
     e10:	00860633          	add	a2,a2,s0
     e14:	00e60023          	sb	a4,0(a2)
     e18:	0647a603          	lw	a2,100(a5)
     e1c:	00760633          	add	a2,a2,t2
     e20:	00e60023          	sb	a4,0(a2)
     e24:	0647a603          	lw	a2,100(a5)
     e28:	00560633          	add	a2,a2,t0
     e2c:	00e60023          	sb	a4,0(a2)
     e30:	0647a603          	lw	a2,100(a5)
     e34:	01f60633          	add	a2,a2,t6
     e38:	00e60023          	sb	a4,0(a2)
     e3c:	0647a603          	lw	a2,100(a5)
     e40:	01e60633          	add	a2,a2,t5
     e44:	00e60023          	sb	a4,0(a2)
     e48:	f6d590e3          	bne	a1,a3,da8 <draw_A+0x11c>
     e4c:	01d506b3          	add	a3,a0,t4
     e50:	0647a603          	lw	a2,100(a5)
     e54:	00168293          	addi	t0,a3,1
     e58:	00268f93          	addi	t6,a3,2
     e5c:	00d60633          	add	a2,a2,a3
     e60:	00e60023          	sb	a4,0(a2)
     e64:	0647a603          	lw	a2,100(a5)
     e68:	00368f13          	addi	t5,a3,3
     e6c:	00468493          	addi	s1,a3,4
     e70:	00560633          	add	a2,a2,t0
     e74:	00e60023          	sb	a4,0(a2)
     e78:	0647a603          	lw	a2,100(a5)
     e7c:	00568413          	addi	s0,a3,5
     e80:	00668393          	addi	t2,a3,6
     e84:	01f60633          	add	a2,a2,t6
     e88:	00e60023          	sb	a4,0(a2)
     e8c:	0647a603          	lw	a2,100(a5)
     e90:	00768293          	addi	t0,a3,7
     e94:	00868f93          	addi	t6,a3,8
     e98:	01e60633          	add	a2,a2,t5
     e9c:	00e60023          	sb	a4,0(a2)
     ea0:	0647a603          	lw	a2,100(a5)
     ea4:	00968f13          	addi	t5,a3,9
     ea8:	14068693          	addi	a3,a3,320
     eac:	00960633          	add	a2,a2,s1
     eb0:	00e60023          	sb	a4,0(a2)
     eb4:	0647a603          	lw	a2,100(a5)
     eb8:	00860633          	add	a2,a2,s0
     ebc:	00e60023          	sb	a4,0(a2)
     ec0:	0647a603          	lw	a2,100(a5)
     ec4:	00760633          	add	a2,a2,t2
     ec8:	00e60023          	sb	a4,0(a2)
     ecc:	0647a603          	lw	a2,100(a5)
     ed0:	00560633          	add	a2,a2,t0
     ed4:	00e60023          	sb	a4,0(a2)
     ed8:	0647a603          	lw	a2,100(a5)
     edc:	01f60633          	add	a2,a2,t6
     ee0:	00e60023          	sb	a4,0(a2)
     ee4:	0647a603          	lw	a2,100(a5)
     ee8:	01e60633          	add	a2,a2,t5
     eec:	00e60023          	sb	a4,0(a2)
     ef0:	f6d810e3          	bne	a6,a3,e50 <draw_A+0x1c4>
     ef4:	006506b3          	add	a3,a0,t1
     ef8:	0647a603          	lw	a2,100(a5)
     efc:	00168293          	addi	t0,a3,1
     f00:	00268f93          	addi	t6,a3,2
     f04:	00d60633          	add	a2,a2,a3
     f08:	00e60023          	sb	a4,0(a2)
     f0c:	0647a603          	lw	a2,100(a5)
     f10:	00368f13          	addi	t5,a3,3
     f14:	00468493          	addi	s1,a3,4
     f18:	00560633          	add	a2,a2,t0
     f1c:	00e60023          	sb	a4,0(a2)
     f20:	0647a603          	lw	a2,100(a5)
     f24:	00568413          	addi	s0,a3,5
     f28:	00668393          	addi	t2,a3,6
     f2c:	01f60633          	add	a2,a2,t6
     f30:	00e60023          	sb	a4,0(a2)
     f34:	0647a603          	lw	a2,100(a5)
     f38:	00768293          	addi	t0,a3,7
     f3c:	00868f93          	addi	t6,a3,8
     f40:	01e60633          	add	a2,a2,t5
     f44:	00e60023          	sb	a4,0(a2)
     f48:	0647a603          	lw	a2,100(a5)
     f4c:	00968f13          	addi	t5,a3,9
     f50:	14068693          	addi	a3,a3,320
     f54:	00960633          	add	a2,a2,s1
     f58:	00e60023          	sb	a4,0(a2)
     f5c:	0647a603          	lw	a2,100(a5)
     f60:	00860633          	add	a2,a2,s0
     f64:	00e60023          	sb	a4,0(a2)
     f68:	0647a603          	lw	a2,100(a5)
     f6c:	00760633          	add	a2,a2,t2
     f70:	00e60023          	sb	a4,0(a2)
     f74:	0647a603          	lw	a2,100(a5)
     f78:	00560633          	add	a2,a2,t0
     f7c:	00e60023          	sb	a4,0(a2)
     f80:	0647a603          	lw	a2,100(a5)
     f84:	01f60633          	add	a2,a2,t6
     f88:	00e60023          	sb	a4,0(a2)
     f8c:	0647a603          	lw	a2,100(a5)
     f90:	01e60633          	add	a2,a2,t5
     f94:	00e60023          	sb	a4,0(a2)
     f98:	f6d510e3          	bne	a0,a3,ef8 <draw_A+0x26c>
     f9c:	00a58593          	addi	a1,a1,10
     fa0:	01150533          	add	a0,a0,a7
     fa4:	01180833          	add	a6,a6,a7
     fa8:	dfc59ee3          	bne	a1,t3,da4 <draw_A+0x118>
     fac:	00c12403          	lw	s0,12(sp)
     fb0:	00812483          	lw	s1,8(sp)
     fb4:	01010113          	addi	sp,sp,16
     fb8:	00008067          	ret

00000fbc <draw_M>:
     fbc:	ff010113          	addi	sp,sp,-16
     fc0:	00006537          	lui	a0,0x6
     fc4:	000065b7          	lui	a1,0x6
     fc8:	fffff337          	lui	t1,0xfffff
     fcc:	fffffe37          	lui	t3,0xfffff
     fd0:	00001837          	lui	a6,0x1
     fd4:	000098b7          	lui	a7,0x9
     fd8:	00812623          	sw	s0,12(sp)
     fdc:	82550513          	addi	a0,a0,-2011 # 5825 <__global_pointer+0xfc8>
     fe0:	84d58593          	addi	a1,a1,-1971 # 584d <__global_pointer+0xff0>
     fe4:	00004737          	lui	a4,0x4
     fe8:	35830313          	addi	t1,t1,856 # fffff358 <_stack_end+0xffefaf10>
     fec:	fe000793          	li	a5,-32
     ff0:	380e0e13          	addi	t3,t3,896 # fffff380 <_stack_end+0xffefaf38>
     ff4:	c8080813          	addi	a6,a6,-896 # c80 <__heap_size+0x480>
     ff8:	6cd88893          	addi	a7,a7,1741 # 96cd <__global_pointer+0x4e70>
     ffc:	006586b3          	add	a3,a1,t1
    1000:	06472603          	lw	a2,100(a4) # 4064 <VGA>
    1004:	00168f93          	addi	t6,a3,1
    1008:	00268f13          	addi	t5,a3,2
    100c:	00d60633          	add	a2,a2,a3
    1010:	00f60023          	sb	a5,0(a2)
    1014:	06472603          	lw	a2,100(a4)
    1018:	00368e93          	addi	t4,a3,3
    101c:	00468413          	addi	s0,a3,4
    1020:	01f60633          	add	a2,a2,t6
    1024:	00f60023          	sb	a5,0(a2)
    1028:	06472603          	lw	a2,100(a4)
    102c:	00568393          	addi	t2,a3,5
    1030:	00668293          	addi	t0,a3,6
    1034:	01e60633          	add	a2,a2,t5
    1038:	00f60023          	sb	a5,0(a2)
    103c:	06472603          	lw	a2,100(a4)
    1040:	00768f93          	addi	t6,a3,7
    1044:	00868f13          	addi	t5,a3,8
    1048:	01d60633          	add	a2,a2,t4
    104c:	00f60023          	sb	a5,0(a2)
    1050:	06472603          	lw	a2,100(a4)
    1054:	00968e93          	addi	t4,a3,9
    1058:	14068693          	addi	a3,a3,320
    105c:	00860633          	add	a2,a2,s0
    1060:	00f60023          	sb	a5,0(a2)
    1064:	06472603          	lw	a2,100(a4)
    1068:	00760633          	add	a2,a2,t2
    106c:	00f60023          	sb	a5,0(a2)
    1070:	06472603          	lw	a2,100(a4)
    1074:	00560633          	add	a2,a2,t0
    1078:	00f60023          	sb	a5,0(a2)
    107c:	06472603          	lw	a2,100(a4)
    1080:	01f60633          	add	a2,a2,t6
    1084:	00f60023          	sb	a5,0(a2)
    1088:	06472603          	lw	a2,100(a4)
    108c:	01e60633          	add	a2,a2,t5
    1090:	00f60023          	sb	a5,0(a2)
    1094:	06472603          	lw	a2,100(a4)
    1098:	01d60633          	add	a2,a2,t4
    109c:	00f60023          	sb	a5,0(a2)
    10a0:	f6a690e3          	bne	a3,a0,1000 <draw_M+0x44>
    10a4:	01c586b3          	add	a3,a1,t3
    10a8:	06472603          	lw	a2,100(a4)
    10ac:	00168f93          	addi	t6,a3,1
    10b0:	00268f13          	addi	t5,a3,2
    10b4:	00d60633          	add	a2,a2,a3
    10b8:	00f60023          	sb	a5,0(a2)
    10bc:	06472603          	lw	a2,100(a4)
    10c0:	00368e93          	addi	t4,a3,3
    10c4:	00468413          	addi	s0,a3,4
    10c8:	01f60633          	add	a2,a2,t6
    10cc:	00f60023          	sb	a5,0(a2)
    10d0:	06472603          	lw	a2,100(a4)
    10d4:	00568393          	addi	t2,a3,5
    10d8:	00668293          	addi	t0,a3,6
    10dc:	01e60633          	add	a2,a2,t5
    10e0:	00f60023          	sb	a5,0(a2)
    10e4:	06472603          	lw	a2,100(a4)
    10e8:	00768f93          	addi	t6,a3,7
    10ec:	00868f13          	addi	t5,a3,8
    10f0:	01d60633          	add	a2,a2,t4
    10f4:	00f60023          	sb	a5,0(a2)
    10f8:	06472603          	lw	a2,100(a4)
    10fc:	00968e93          	addi	t4,a3,9
    1100:	14068693          	addi	a3,a3,320
    1104:	00860633          	add	a2,a2,s0
    1108:	00f60023          	sb	a5,0(a2)
    110c:	06472603          	lw	a2,100(a4)
    1110:	00760633          	add	a2,a2,t2
    1114:	00f60023          	sb	a5,0(a2)
    1118:	06472603          	lw	a2,100(a4)
    111c:	00560633          	add	a2,a2,t0
    1120:	00f60023          	sb	a5,0(a2)
    1124:	06472603          	lw	a2,100(a4)
    1128:	01f60633          	add	a2,a2,t6
    112c:	00f60023          	sb	a5,0(a2)
    1130:	06472603          	lw	a2,100(a4)
    1134:	01e60633          	add	a2,a2,t5
    1138:	00f60023          	sb	a5,0(a2)
    113c:	06472603          	lw	a2,100(a4)
    1140:	01d60633          	add	a2,a2,t4
    1144:	00f60023          	sb	a5,0(a2)
    1148:	f6b690e3          	bne	a3,a1,10a8 <draw_M+0xec>
    114c:	010685b3          	add	a1,a3,a6
    1150:	01050533          	add	a0,a0,a6
    1154:	eb1594e3          	bne	a1,a7,ffc <draw_M+0x40>
    1158:	06472683          	lw	a3,100(a4)
    115c:	00006737          	lui	a4,0x6
    1160:	00007637          	lui	a2,0x7
    1164:	00e68733          	add	a4,a3,a4
    1168:	82f707a3          	sb	a5,-2001(a4) # 582f <__global_pointer+0xfd2>
    116c:	82f70823          	sb	a5,-2000(a4)
    1170:	82f708a3          	sb	a5,-1999(a4)
    1174:	82f70923          	sb	a5,-1998(a4)
    1178:	82f709a3          	sb	a5,-1997(a4)
    117c:	82f70a23          	sb	a5,-1996(a4)
    1180:	82f70aa3          	sb	a5,-1995(a4)
    1184:	82f70b23          	sb	a5,-1994(a4)
    1188:	82f70ba3          	sb	a5,-1993(a4)
    118c:	82f70c23          	sb	a5,-1992(a4)
    1190:	96f707a3          	sb	a5,-1681(a4)
    1194:	96f70823          	sb	a5,-1680(a4)
    1198:	96f708a3          	sb	a5,-1679(a4)
    119c:	96f70923          	sb	a5,-1678(a4)
    11a0:	96f709a3          	sb	a5,-1677(a4)
    11a4:	96f70a23          	sb	a5,-1676(a4)
    11a8:	96f70aa3          	sb	a5,-1675(a4)
    11ac:	96f70b23          	sb	a5,-1674(a4)
    11b0:	96f70ba3          	sb	a5,-1673(a4)
    11b4:	96f70c23          	sb	a5,-1672(a4)
    11b8:	aaf707a3          	sb	a5,-1361(a4)
    11bc:	aaf70823          	sb	a5,-1360(a4)
    11c0:	aaf708a3          	sb	a5,-1359(a4)
    11c4:	aaf70923          	sb	a5,-1358(a4)
    11c8:	aaf709a3          	sb	a5,-1357(a4)
    11cc:	aaf70a23          	sb	a5,-1356(a4)
    11d0:	aaf70aa3          	sb	a5,-1355(a4)
    11d4:	aaf70b23          	sb	a5,-1354(a4)
    11d8:	aaf70ba3          	sb	a5,-1353(a4)
    11dc:	aaf70c23          	sb	a5,-1352(a4)
    11e0:	bef707a3          	sb	a5,-1041(a4)
    11e4:	bef70823          	sb	a5,-1040(a4)
    11e8:	bef708a3          	sb	a5,-1039(a4)
    11ec:	bef70923          	sb	a5,-1038(a4)
    11f0:	bef709a3          	sb	a5,-1037(a4)
    11f4:	bef70a23          	sb	a5,-1036(a4)
    11f8:	bef70aa3          	sb	a5,-1035(a4)
    11fc:	bef70b23          	sb	a5,-1034(a4)
    1200:	bef70ba3          	sb	a5,-1033(a4)
    1204:	bef70c23          	sb	a5,-1032(a4)
    1208:	d2f707a3          	sb	a5,-721(a4)
    120c:	d2f70823          	sb	a5,-720(a4)
    1210:	d2f708a3          	sb	a5,-719(a4)
    1214:	d2f70923          	sb	a5,-718(a4)
    1218:	d2f709a3          	sb	a5,-717(a4)
    121c:	d2f70a23          	sb	a5,-716(a4)
    1220:	d2f70aa3          	sb	a5,-715(a4)
    1224:	d2f70b23          	sb	a5,-714(a4)
    1228:	d2f70ba3          	sb	a5,-713(a4)
    122c:	d2f70c23          	sb	a5,-712(a4)
    1230:	e6f707a3          	sb	a5,-401(a4)
    1234:	e6f70823          	sb	a5,-400(a4)
    1238:	e6f708a3          	sb	a5,-399(a4)
    123c:	e6f70923          	sb	a5,-398(a4)
    1240:	e6f709a3          	sb	a5,-397(a4)
    1244:	e6f70a23          	sb	a5,-396(a4)
    1248:	e6f70aa3          	sb	a5,-395(a4)
    124c:	e6f70b23          	sb	a5,-394(a4)
    1250:	e6f70ba3          	sb	a5,-393(a4)
    1254:	e6f70c23          	sb	a5,-392(a4)
    1258:	faf707a3          	sb	a5,-81(a4)
    125c:	faf70823          	sb	a5,-80(a4)
    1260:	faf708a3          	sb	a5,-79(a4)
    1264:	faf70923          	sb	a5,-78(a4)
    1268:	faf709a3          	sb	a5,-77(a4)
    126c:	faf70a23          	sb	a5,-76(a4)
    1270:	faf70aa3          	sb	a5,-75(a4)
    1274:	faf70b23          	sb	a5,-74(a4)
    1278:	faf70ba3          	sb	a5,-73(a4)
    127c:	faf70c23          	sb	a5,-72(a4)
    1280:	0ef707a3          	sb	a5,239(a4)
    1284:	0ef70823          	sb	a5,240(a4)
    1288:	0ef708a3          	sb	a5,241(a4)
    128c:	0ef70923          	sb	a5,242(a4)
    1290:	0ef709a3          	sb	a5,243(a4)
    1294:	0ef70a23          	sb	a5,244(a4)
    1298:	0ef70aa3          	sb	a5,245(a4)
    129c:	0ef70b23          	sb	a5,246(a4)
    12a0:	0ef70ba3          	sb	a5,247(a4)
    12a4:	0ef70c23          	sb	a5,248(a4)
    12a8:	22f707a3          	sb	a5,559(a4)
    12ac:	22f70823          	sb	a5,560(a4)
    12b0:	22f708a3          	sb	a5,561(a4)
    12b4:	22f70923          	sb	a5,562(a4)
    12b8:	22f709a3          	sb	a5,563(a4)
    12bc:	22f70a23          	sb	a5,564(a4)
    12c0:	22f70aa3          	sb	a5,565(a4)
    12c4:	22f70b23          	sb	a5,566(a4)
    12c8:	22f70ba3          	sb	a5,567(a4)
    12cc:	22f70c23          	sb	a5,568(a4)
    12d0:	36f707a3          	sb	a5,879(a4)
    12d4:	36f70823          	sb	a5,880(a4)
    12d8:	36f708a3          	sb	a5,881(a4)
    12dc:	36f70923          	sb	a5,882(a4)
    12e0:	36f709a3          	sb	a5,883(a4)
    12e4:	36f70a23          	sb	a5,884(a4)
    12e8:	36f70aa3          	sb	a5,885(a4)
    12ec:	36f70b23          	sb	a5,886(a4)
    12f0:	36f70ba3          	sb	a5,887(a4)
    12f4:	36f70c23          	sb	a5,888(a4)
    12f8:	4af70ca3          	sb	a5,1209(a4)
    12fc:	4af70d23          	sb	a5,1210(a4)
    1300:	4af70da3          	sb	a5,1211(a4)
    1304:	4af70e23          	sb	a5,1212(a4)
    1308:	4af70ea3          	sb	a5,1213(a4)
    130c:	4af70f23          	sb	a5,1214(a4)
    1310:	4af70fa3          	sb	a5,1215(a4)
    1314:	4cf70023          	sb	a5,1216(a4)
    1318:	4cf700a3          	sb	a5,1217(a4)
    131c:	4cf70123          	sb	a5,1218(a4)
    1320:	5ef70ca3          	sb	a5,1529(a4)
    1324:	5ef70d23          	sb	a5,1530(a4)
    1328:	5ef70da3          	sb	a5,1531(a4)
    132c:	5ef70e23          	sb	a5,1532(a4)
    1330:	5ef70ea3          	sb	a5,1533(a4)
    1334:	5ef70f23          	sb	a5,1534(a4)
    1338:	5ef70fa3          	sb	a5,1535(a4)
    133c:	60f70023          	sb	a5,1536(a4)
    1340:	60f700a3          	sb	a5,1537(a4)
    1344:	60f70123          	sb	a5,1538(a4)
    1348:	72f70ca3          	sb	a5,1849(a4)
    134c:	72f70d23          	sb	a5,1850(a4)
    1350:	72f70da3          	sb	a5,1851(a4)
    1354:	72f70e23          	sb	a5,1852(a4)
    1358:	72f70ea3          	sb	a5,1853(a4)
    135c:	72f70f23          	sb	a5,1854(a4)
    1360:	72f70fa3          	sb	a5,1855(a4)
    1364:	74f70023          	sb	a5,1856(a4)
    1368:	74f700a3          	sb	a5,1857(a4)
    136c:	00c686b3          	add	a3,a3,a2
    1370:	74f70123          	sb	a5,1858(a4)
    1374:	86f68ca3          	sb	a5,-1927(a3)
    1378:	86f68d23          	sb	a5,-1926(a3)
    137c:	86f68da3          	sb	a5,-1925(a3)
    1380:	86f68e23          	sb	a5,-1924(a3)
    1384:	86f68ea3          	sb	a5,-1923(a3)
    1388:	86f68f23          	sb	a5,-1922(a3)
    138c:	86f68fa3          	sb	a5,-1921(a3)
    1390:	88f68023          	sb	a5,-1920(a3)
    1394:	88f680a3          	sb	a5,-1919(a3)
    1398:	88f68123          	sb	a5,-1918(a3)
    139c:	9af68ca3          	sb	a5,-1607(a3)
    13a0:	9af68d23          	sb	a5,-1606(a3)
    13a4:	9af68da3          	sb	a5,-1605(a3)
    13a8:	9af68e23          	sb	a5,-1604(a3)
    13ac:	9af68ea3          	sb	a5,-1603(a3)
    13b0:	9af68f23          	sb	a5,-1602(a3)
    13b4:	9af68fa3          	sb	a5,-1601(a3)
    13b8:	9cf68023          	sb	a5,-1600(a3)
    13bc:	9cf680a3          	sb	a5,-1599(a3)
    13c0:	9cf68123          	sb	a5,-1598(a3)
    13c4:	aef68ca3          	sb	a5,-1287(a3)
    13c8:	aef68d23          	sb	a5,-1286(a3)
    13cc:	aef68da3          	sb	a5,-1285(a3)
    13d0:	aef68e23          	sb	a5,-1284(a3)
    13d4:	aef68ea3          	sb	a5,-1283(a3)
    13d8:	aef68f23          	sb	a5,-1282(a3)
    13dc:	aef68fa3          	sb	a5,-1281(a3)
    13e0:	b0f68023          	sb	a5,-1280(a3)
    13e4:	b0f680a3          	sb	a5,-1279(a3)
    13e8:	b0f68123          	sb	a5,-1278(a3)
    13ec:	c2f68ca3          	sb	a5,-967(a3)
    13f0:	c2f68d23          	sb	a5,-966(a3)
    13f4:	c2f68da3          	sb	a5,-965(a3)
    13f8:	c2f68e23          	sb	a5,-964(a3)
    13fc:	c2f68ea3          	sb	a5,-963(a3)
    1400:	c2f68f23          	sb	a5,-962(a3)
    1404:	c2f68fa3          	sb	a5,-961(a3)
    1408:	c4f68023          	sb	a5,-960(a3)
    140c:	c4f680a3          	sb	a5,-959(a3)
    1410:	c4f68123          	sb	a5,-958(a3)
    1414:	d6f68ca3          	sb	a5,-647(a3)
    1418:	d6f68d23          	sb	a5,-646(a3)
    141c:	d6f68da3          	sb	a5,-645(a3)
    1420:	d6f68e23          	sb	a5,-644(a3)
    1424:	d6f68ea3          	sb	a5,-643(a3)
    1428:	d6f68f23          	sb	a5,-642(a3)
    142c:	d6f68fa3          	sb	a5,-641(a3)
    1430:	d8f68023          	sb	a5,-640(a3)
    1434:	d8f680a3          	sb	a5,-639(a3)
    1438:	d8f68123          	sb	a5,-638(a3)
    143c:	eaf68ca3          	sb	a5,-327(a3)
    1440:	eaf68d23          	sb	a5,-326(a3)
    1444:	eaf68da3          	sb	a5,-325(a3)
    1448:	eaf68e23          	sb	a5,-324(a3)
    144c:	eaf68ea3          	sb	a5,-323(a3)
    1450:	eaf68f23          	sb	a5,-322(a3)
    1454:	eaf68fa3          	sb	a5,-321(a3)
    1458:	ecf68023          	sb	a5,-320(a3)
    145c:	ecf680a3          	sb	a5,-319(a3)
    1460:	ecf68123          	sb	a5,-318(a3)
    1464:	fef68ca3          	sb	a5,-7(a3)
    1468:	fef68d23          	sb	a5,-6(a3)
    146c:	fef68da3          	sb	a5,-5(a3)
    1470:	fef68e23          	sb	a5,-4(a3)
    1474:	fef68ea3          	sb	a5,-3(a3)
    1478:	fef68f23          	sb	a5,-2(a3)
    147c:	fef68fa3          	sb	a5,-1(a3)
    1480:	00f68023          	sb	a5,0(a3)
    1484:	00f680a3          	sb	a5,1(a3)
    1488:	00f68123          	sb	a5,2(a3)
    148c:	84f701a3          	sb	a5,-1981(a4)
    1490:	84f70223          	sb	a5,-1980(a4)
    1494:	84f702a3          	sb	a5,-1979(a4)
    1498:	84f70323          	sb	a5,-1978(a4)
    149c:	84f703a3          	sb	a5,-1977(a4)
    14a0:	84f70423          	sb	a5,-1976(a4)
    14a4:	84f704a3          	sb	a5,-1975(a4)
    14a8:	84f70523          	sb	a5,-1974(a4)
    14ac:	84f705a3          	sb	a5,-1973(a4)
    14b0:	84f70623          	sb	a5,-1972(a4)
    14b4:	98f701a3          	sb	a5,-1661(a4)
    14b8:	98f70223          	sb	a5,-1660(a4)
    14bc:	98f702a3          	sb	a5,-1659(a4)
    14c0:	98f70323          	sb	a5,-1658(a4)
    14c4:	98f703a3          	sb	a5,-1657(a4)
    14c8:	98f70423          	sb	a5,-1656(a4)
    14cc:	98f704a3          	sb	a5,-1655(a4)
    14d0:	98f70523          	sb	a5,-1654(a4)
    14d4:	98f705a3          	sb	a5,-1653(a4)
    14d8:	98f70623          	sb	a5,-1652(a4)
    14dc:	acf701a3          	sb	a5,-1341(a4)
    14e0:	acf70223          	sb	a5,-1340(a4)
    14e4:	acf702a3          	sb	a5,-1339(a4)
    14e8:	acf70323          	sb	a5,-1338(a4)
    14ec:	acf703a3          	sb	a5,-1337(a4)
    14f0:	acf70423          	sb	a5,-1336(a4)
    14f4:	acf704a3          	sb	a5,-1335(a4)
    14f8:	acf70523          	sb	a5,-1334(a4)
    14fc:	acf705a3          	sb	a5,-1333(a4)
    1500:	acf70623          	sb	a5,-1332(a4)
    1504:	c0f701a3          	sb	a5,-1021(a4)
    1508:	fe000693          	li	a3,-32
    150c:	c0f70223          	sb	a5,-1020(a4)
    1510:	c0d702a3          	sb	a3,-1019(a4)
    1514:	c0d70323          	sb	a3,-1018(a4)
    1518:	c0d703a3          	sb	a3,-1017(a4)
    151c:	c0d70423          	sb	a3,-1016(a4)
    1520:	c0d704a3          	sb	a3,-1015(a4)
    1524:	c0d70523          	sb	a3,-1014(a4)
    1528:	c0d705a3          	sb	a3,-1013(a4)
    152c:	c0d70623          	sb	a3,-1012(a4)
    1530:	d4d701a3          	sb	a3,-701(a4)
    1534:	d4d70223          	sb	a3,-700(a4)
    1538:	d4d702a3          	sb	a3,-699(a4)
    153c:	d4d70323          	sb	a3,-698(a4)
    1540:	d4d703a3          	sb	a3,-697(a4)
    1544:	d4d70423          	sb	a3,-696(a4)
    1548:	d4d704a3          	sb	a3,-695(a4)
    154c:	d4d70523          	sb	a3,-694(a4)
    1550:	d4d705a3          	sb	a3,-693(a4)
    1554:	d4d70623          	sb	a3,-692(a4)
    1558:	e8d701a3          	sb	a3,-381(a4)
    155c:	e8d70223          	sb	a3,-380(a4)
    1560:	e8d702a3          	sb	a3,-379(a4)
    1564:	e8d70323          	sb	a3,-378(a4)
    1568:	e8d703a3          	sb	a3,-377(a4)
    156c:	e8d70423          	sb	a3,-376(a4)
    1570:	e8d704a3          	sb	a3,-375(a4)
    1574:	e8d70523          	sb	a3,-374(a4)
    1578:	e8d705a3          	sb	a3,-373(a4)
    157c:	e8d70623          	sb	a3,-372(a4)
    1580:	fcd701a3          	sb	a3,-61(a4)
    1584:	fcd70223          	sb	a3,-60(a4)
    1588:	fcd702a3          	sb	a3,-59(a4)
    158c:	fcd70323          	sb	a3,-58(a4)
    1590:	fcd703a3          	sb	a3,-57(a4)
    1594:	fcd70423          	sb	a3,-56(a4)
    1598:	fcd704a3          	sb	a3,-55(a4)
    159c:	fcd70523          	sb	a3,-54(a4)
    15a0:	fcd705a3          	sb	a3,-53(a4)
    15a4:	fcd70623          	sb	a3,-52(a4)
    15a8:	10d701a3          	sb	a3,259(a4)
    15ac:	10d70223          	sb	a3,260(a4)
    15b0:	10d702a3          	sb	a3,261(a4)
    15b4:	10d70323          	sb	a3,262(a4)
    15b8:	10d703a3          	sb	a3,263(a4)
    15bc:	10d70423          	sb	a3,264(a4)
    15c0:	10d704a3          	sb	a3,265(a4)
    15c4:	10d70523          	sb	a3,266(a4)
    15c8:	10d705a3          	sb	a3,267(a4)
    15cc:	10d70623          	sb	a3,268(a4)
    15d0:	24d701a3          	sb	a3,579(a4)
    15d4:	24d70223          	sb	a3,580(a4)
    15d8:	24d702a3          	sb	a3,581(a4)
    15dc:	24d70323          	sb	a3,582(a4)
    15e0:	24d703a3          	sb	a3,583(a4)
    15e4:	24d70423          	sb	a3,584(a4)
    15e8:	24d704a3          	sb	a3,585(a4)
    15ec:	24d70523          	sb	a3,586(a4)
    15f0:	24d705a3          	sb	a3,587(a4)
    15f4:	24d70623          	sb	a3,588(a4)
    15f8:	38d701a3          	sb	a3,899(a4)
    15fc:	38d70223          	sb	a3,900(a4)
    1600:	38d702a3          	sb	a3,901(a4)
    1604:	38d70323          	sb	a3,902(a4)
    1608:	38d703a3          	sb	a3,903(a4)
    160c:	38d70423          	sb	a3,904(a4)
    1610:	38d704a3          	sb	a3,905(a4)
    1614:	38d70523          	sb	a3,906(a4)
    1618:	38d705a3          	sb	a3,907(a4)
    161c:	38d70623          	sb	a3,908(a4)
    1620:	00c12403          	lw	s0,12(sp)
    1624:	01010113          	addi	sp,sp,16
    1628:	00008067          	ret

0000162c <draw_E>:
    162c:	00001e37          	lui	t3,0x1
    1630:	00358713          	addi	a4,a1,3
    1634:	c80e0e13          	addi	t3,t3,-896 # c80 <__heap_size+0x480>
    1638:	03c70eb3          	mul	t4,a4,t3
    163c:	00251893          	slli	a7,a0,0x2
    1640:	01450693          	addi	a3,a0,20
    1644:	00a888b3          	add	a7,a7,a0
    1648:	00271313          	slli	t1,a4,0x2
    164c:	000037b7          	lui	a5,0x3
    1650:	00269513          	slli	a0,a3,0x2
    1654:	00e30333          	add	t1,t1,a4
    1658:	00189893          	slli	a7,a7,0x1
    165c:	2e178793          	addi	a5,a5,737 # 32e1 <increment_score+0x5>
    1660:	ff010113          	addi	sp,sp,-16
    1664:	00131313          	slli	t1,t1,0x1
    1668:	00d50533          	add	a0,a0,a3
    166c:	00f887b3          	add	a5,a7,a5
    1670:	ffffff37          	lui	t5,0xfffff
    1674:	01e30813          	addi	a6,t1,30
    1678:	01d785b3          	add	a1,a5,t4
    167c:	00812623          	sw	s0,12(sp)
    1680:	00912423          	sw	s1,8(sp)
    1684:	01212223          	sw	s2,4(sp)
    1688:	00151513          	slli	a0,a0,0x1
    168c:	05030313          	addi	t1,t1,80
    1690:	000047b7          	lui	a5,0x4
    1694:	380f0f13          	addi	t5,t5,896 # fffff380 <_stack_end+0xffefaf38>
    1698:	fe000693          	li	a3,-32
    169c:	01e58733          	add	a4,a1,t5
    16a0:	0647a603          	lw	a2,100(a5) # 4064 <VGA>
    16a4:	00170393          	addi	t2,a4,1
    16a8:	00270293          	addi	t0,a4,2
    16ac:	00e60633          	add	a2,a2,a4
    16b0:	00d60023          	sb	a3,0(a2) # 7000 <__global_pointer+0x27a3>
    16b4:	0647a603          	lw	a2,100(a5)
    16b8:	00370f93          	addi	t6,a4,3
    16bc:	00470913          	addi	s2,a4,4
    16c0:	00760633          	add	a2,a2,t2
    16c4:	00d60023          	sb	a3,0(a2)
    16c8:	0647a603          	lw	a2,100(a5)
    16cc:	00570493          	addi	s1,a4,5
    16d0:	00670413          	addi	s0,a4,6
    16d4:	00560633          	add	a2,a2,t0
    16d8:	00d60023          	sb	a3,0(a2)
    16dc:	0647a603          	lw	a2,100(a5)
    16e0:	00770393          	addi	t2,a4,7
    16e4:	00870293          	addi	t0,a4,8
    16e8:	01f60633          	add	a2,a2,t6
    16ec:	00d60023          	sb	a3,0(a2)
    16f0:	0647a603          	lw	a2,100(a5)
    16f4:	00970f93          	addi	t6,a4,9
    16f8:	14070713          	addi	a4,a4,320
    16fc:	01260633          	add	a2,a2,s2
    1700:	00d60023          	sb	a3,0(a2)
    1704:	0647a603          	lw	a2,100(a5)
    1708:	00960633          	add	a2,a2,s1
    170c:	00d60023          	sb	a3,0(a2)
    1710:	0647a603          	lw	a2,100(a5)
    1714:	00860633          	add	a2,a2,s0
    1718:	00d60023          	sb	a3,0(a2)
    171c:	0647a603          	lw	a2,100(a5)
    1720:	00760633          	add	a2,a2,t2
    1724:	00d60023          	sb	a3,0(a2)
    1728:	0647a603          	lw	a2,100(a5)
    172c:	00560633          	add	a2,a2,t0
    1730:	00d60023          	sb	a3,0(a2)
    1734:	0647a603          	lw	a2,100(a5)
    1738:	01f60633          	add	a2,a2,t6
    173c:	00d60023          	sb	a3,0(a2)
    1740:	f6e590e3          	bne	a1,a4,16a0 <draw_E+0x74>
    1744:	00a80813          	addi	a6,a6,10
    1748:	01c585b3          	add	a1,a1,t3
    174c:	f50318e3          	bne	t1,a6,169c <draw_E+0x70>
    1750:	ffffef37          	lui	t5,0xffffe
    1754:	00009637          	lui	a2,0x9
    1758:	000076b7          	lui	a3,0x7
    175c:	00006737          	lui	a4,0x6
    1760:	a80f0f13          	addi	t5,t5,-1408 # ffffda80 <_stack_end+0xffef9638>
    1764:	a6b60613          	addi	a2,a2,-1429 # 8a6b <__global_pointer+0x420e>
    1768:	16b68693          	addi	a3,a3,363 # 716b <__global_pointer+0x290e>
    176c:	86b70713          	addi	a4,a4,-1941 # 586b <__global_pointer+0x100e>
    1770:	01ee8eb3          	add	t4,t4,t5
    1774:	00e88733          	add	a4,a7,a4
    1778:	00c88633          	add	a2,a7,a2
    177c:	00d886b3          	add	a3,a7,a3
    1780:	ffffce37          	lui	t3,0xffffc
    1784:	ffffffb7          	lui	t6,0xfffff
    1788:	01d70833          	add	a6,a4,t4
    178c:	02350513          	addi	a0,a0,35
    1790:	01d605b3          	add	a1,a2,t4
    1794:	01d68333          	add	t1,a3,t4
    1798:	11388893          	addi	a7,a7,275
    179c:	180e0e13          	addi	t3,t3,384 # ffffc180 <_stack_end+0xffef7d38>
    17a0:	fe000713          	li	a4,-32
    17a4:	380f8f93          	addi	t6,t6,896 # fffff380 <_stack_end+0xffefaf38>
    17a8:	01c586b3          	add	a3,a1,t3
    17ac:	0647a603          	lw	a2,100(a5)
    17b0:	00168393          	addi	t2,a3,1
    17b4:	00268293          	addi	t0,a3,2
    17b8:	00d60633          	add	a2,a2,a3
    17bc:	00e60023          	sb	a4,0(a2)
    17c0:	0647a603          	lw	a2,100(a5)
    17c4:	00368e93          	addi	t4,a3,3
    17c8:	00468913          	addi	s2,a3,4
    17cc:	00760633          	add	a2,a2,t2
    17d0:	00e60023          	sb	a4,0(a2)
    17d4:	0647a603          	lw	a2,100(a5)
    17d8:	00568493          	addi	s1,a3,5
    17dc:	00668413          	addi	s0,a3,6
    17e0:	00560633          	add	a2,a2,t0
    17e4:	00e60023          	sb	a4,0(a2)
    17e8:	0647a603          	lw	a2,100(a5)
    17ec:	00768393          	addi	t2,a3,7
    17f0:	00868293          	addi	t0,a3,8
    17f4:	01d60633          	add	a2,a2,t4
    17f8:	00e60023          	sb	a4,0(a2)
    17fc:	0647a603          	lw	a2,100(a5)
    1800:	00968e93          	addi	t4,a3,9
    1804:	14068693          	addi	a3,a3,320
    1808:	01260633          	add	a2,a2,s2
    180c:	00e60023          	sb	a4,0(a2)
    1810:	0647a603          	lw	a2,100(a5)
    1814:	00960633          	add	a2,a2,s1
    1818:	00e60023          	sb	a4,0(a2)
    181c:	0647a603          	lw	a2,100(a5)
    1820:	00860633          	add	a2,a2,s0
    1824:	00e60023          	sb	a4,0(a2)
    1828:	0647a603          	lw	a2,100(a5)
    182c:	00760633          	add	a2,a2,t2
    1830:	00e60023          	sb	a4,0(a2)
    1834:	0647a603          	lw	a2,100(a5)
    1838:	00560633          	add	a2,a2,t0
    183c:	00e60023          	sb	a4,0(a2)
    1840:	0647a603          	lw	a2,100(a5)
    1844:	01d60633          	add	a2,a2,t4
    1848:	00e60023          	sb	a4,0(a2)
    184c:	f6d810e3          	bne	a6,a3,17ac <draw_E+0x180>
    1850:	01e586b3          	add	a3,a1,t5
    1854:	0647a603          	lw	a2,100(a5)
    1858:	00168393          	addi	t2,a3,1
    185c:	00268293          	addi	t0,a3,2
    1860:	00d60633          	add	a2,a2,a3
    1864:	00e60023          	sb	a4,0(a2)
    1868:	0647a603          	lw	a2,100(a5)
    186c:	00368e93          	addi	t4,a3,3
    1870:	00468913          	addi	s2,a3,4
    1874:	00760633          	add	a2,a2,t2
    1878:	00e60023          	sb	a4,0(a2)
    187c:	0647a603          	lw	a2,100(a5)
    1880:	00568493          	addi	s1,a3,5
    1884:	00668413          	addi	s0,a3,6
    1888:	00560633          	add	a2,a2,t0
    188c:	00e60023          	sb	a4,0(a2)
    1890:	0647a603          	lw	a2,100(a5)
    1894:	00768393          	addi	t2,a3,7
    1898:	00868293          	addi	t0,a3,8
    189c:	01d60633          	add	a2,a2,t4
    18a0:	00e60023          	sb	a4,0(a2)
    18a4:	0647a603          	lw	a2,100(a5)
    18a8:	00968e93          	addi	t4,a3,9
    18ac:	14068693          	addi	a3,a3,320
    18b0:	01260633          	add	a2,a2,s2
    18b4:	00e60023          	sb	a4,0(a2)
    18b8:	0647a603          	lw	a2,100(a5)
    18bc:	00960633          	add	a2,a2,s1
    18c0:	00e60023          	sb	a4,0(a2)
    18c4:	0647a603          	lw	a2,100(a5)
    18c8:	00860633          	add	a2,a2,s0
    18cc:	00e60023          	sb	a4,0(a2)
    18d0:	0647a603          	lw	a2,100(a5)
    18d4:	00760633          	add	a2,a2,t2
    18d8:	00e60023          	sb	a4,0(a2)
    18dc:	0647a603          	lw	a2,100(a5)
    18e0:	00560633          	add	a2,a2,t0
    18e4:	00e60023          	sb	a4,0(a2)
    18e8:	0647a603          	lw	a2,100(a5)
    18ec:	01d60633          	add	a2,a2,t4
    18f0:	00e60023          	sb	a4,0(a2)
    18f4:	f6d310e3          	bne	t1,a3,1854 <draw_E+0x228>
    18f8:	01f586b3          	add	a3,a1,t6
    18fc:	0647a603          	lw	a2,100(a5)
    1900:	00168393          	addi	t2,a3,1
    1904:	00268293          	addi	t0,a3,2
    1908:	00d60633          	add	a2,a2,a3
    190c:	00e60023          	sb	a4,0(a2)
    1910:	0647a603          	lw	a2,100(a5)
    1914:	00368e93          	addi	t4,a3,3
    1918:	00468913          	addi	s2,a3,4
    191c:	00760633          	add	a2,a2,t2
    1920:	00e60023          	sb	a4,0(a2)
    1924:	0647a603          	lw	a2,100(a5)
    1928:	00568493          	addi	s1,a3,5
    192c:	00668413          	addi	s0,a3,6
    1930:	00560633          	add	a2,a2,t0
    1934:	00e60023          	sb	a4,0(a2)
    1938:	0647a603          	lw	a2,100(a5)
    193c:	00768393          	addi	t2,a3,7
    1940:	00868293          	addi	t0,a3,8
    1944:	01d60633          	add	a2,a2,t4
    1948:	00e60023          	sb	a4,0(a2)
    194c:	0647a603          	lw	a2,100(a5)
    1950:	00968e93          	addi	t4,a3,9
    1954:	14068693          	addi	a3,a3,320
    1958:	01260633          	add	a2,a2,s2
    195c:	00e60023          	sb	a4,0(a2)
    1960:	0647a603          	lw	a2,100(a5)
    1964:	00960633          	add	a2,a2,s1
    1968:	00e60023          	sb	a4,0(a2)
    196c:	0647a603          	lw	a2,100(a5)
    1970:	00860633          	add	a2,a2,s0
    1974:	00e60023          	sb	a4,0(a2)
    1978:	0647a603          	lw	a2,100(a5)
    197c:	00760633          	add	a2,a2,t2
    1980:	00e60023          	sb	a4,0(a2)
    1984:	0647a603          	lw	a2,100(a5)
    1988:	00560633          	add	a2,a2,t0
    198c:	00e60023          	sb	a4,0(a2)
    1990:	0647a603          	lw	a2,100(a5)
    1994:	01d60633          	add	a2,a2,t4
    1998:	00e60023          	sb	a4,0(a2)
    199c:	f6d590e3          	bne	a1,a3,18fc <draw_E+0x2d0>
    19a0:	00a50513          	addi	a0,a0,10
    19a4:	00a58593          	addi	a1,a1,10
    19a8:	00a30313          	addi	t1,t1,10
    19ac:	00a80813          	addi	a6,a6,10
    19b0:	dea89ce3          	bne	a7,a0,17a8 <draw_E+0x17c>
    19b4:	00c12403          	lw	s0,12(sp)
    19b8:	00812483          	lw	s1,8(sp)
    19bc:	00412903          	lw	s2,4(sp)
    19c0:	01010113          	addi	sp,sp,16
    19c4:	00008067          	ret

000019c8 <draw_O>:
    19c8:	ff010113          	addi	sp,sp,-16
    19cc:	0000a537          	lui	a0,0xa
    19d0:	0000d5b7          	lui	a1,0xd
    19d4:	ffffc8b7          	lui	a7,0xffffc
    19d8:	fffff337          	lui	t1,0xfffff
    19dc:	0000d837          	lui	a6,0xd
    19e0:	00812623          	sw	s0,12(sp)
    19e4:	2b750513          	addi	a0,a0,695 # a2b7 <__global_pointer+0x5a5a>
    19e8:	4b758593          	addi	a1,a1,1207 # d4b7 <__global_pointer+0x8c5a>
    19ec:	000047b7          	lui	a5,0x4
    19f0:	18088893          	addi	a7,a7,384 # ffffc180 <_stack_end+0xffef7d38>
    19f4:	fe000713          	li	a4,-32
    19f8:	38030313          	addi	t1,t1,896 # fffff380 <_stack_end+0xffefaf38>
    19fc:	4d580813          	addi	a6,a6,1237 # d4d5 <__global_pointer+0x8c78>
    1a00:	011586b3          	add	a3,a1,a7
    1a04:	0647a603          	lw	a2,100(a5) # 4064 <VGA>
    1a08:	00168f13          	addi	t5,a3,1
    1a0c:	00268e93          	addi	t4,a3,2
    1a10:	00d60633          	add	a2,a2,a3
    1a14:	00e60023          	sb	a4,0(a2)
    1a18:	0647a603          	lw	a2,100(a5)
    1a1c:	00368e13          	addi	t3,a3,3
    1a20:	00468393          	addi	t2,a3,4
    1a24:	01e60633          	add	a2,a2,t5
    1a28:	00e60023          	sb	a4,0(a2)
    1a2c:	0647a603          	lw	a2,100(a5)
    1a30:	00568293          	addi	t0,a3,5
    1a34:	00668f93          	addi	t6,a3,6
    1a38:	01d60633          	add	a2,a2,t4
    1a3c:	00e60023          	sb	a4,0(a2)
    1a40:	0647a603          	lw	a2,100(a5)
    1a44:	00768f13          	addi	t5,a3,7
    1a48:	00868e93          	addi	t4,a3,8
    1a4c:	01c60633          	add	a2,a2,t3
    1a50:	00e60023          	sb	a4,0(a2)
    1a54:	0647a603          	lw	a2,100(a5)
    1a58:	00968e13          	addi	t3,a3,9
    1a5c:	14068693          	addi	a3,a3,320
    1a60:	00760633          	add	a2,a2,t2
    1a64:	00e60023          	sb	a4,0(a2)
    1a68:	0647a603          	lw	a2,100(a5)
    1a6c:	00560633          	add	a2,a2,t0
    1a70:	00e60023          	sb	a4,0(a2)
    1a74:	0647a603          	lw	a2,100(a5)
    1a78:	01f60633          	add	a2,a2,t6
    1a7c:	00e60023          	sb	a4,0(a2)
    1a80:	0647a603          	lw	a2,100(a5)
    1a84:	01e60633          	add	a2,a2,t5
    1a88:	00e60023          	sb	a4,0(a2)
    1a8c:	0647a603          	lw	a2,100(a5)
    1a90:	01d60633          	add	a2,a2,t4
    1a94:	00e60023          	sb	a4,0(a2)
    1a98:	0647a603          	lw	a2,100(a5)
    1a9c:	01c60633          	add	a2,a2,t3
    1aa0:	00e60023          	sb	a4,0(a2)
    1aa4:	f6d510e3          	bne	a0,a3,1a04 <draw_O+0x3c>
    1aa8:	006586b3          	add	a3,a1,t1
    1aac:	0647a603          	lw	a2,100(a5)
    1ab0:	00168f13          	addi	t5,a3,1
    1ab4:	00268e93          	addi	t4,a3,2
    1ab8:	00d60633          	add	a2,a2,a3
    1abc:	00e60023          	sb	a4,0(a2)
    1ac0:	0647a603          	lw	a2,100(a5)
    1ac4:	00368e13          	addi	t3,a3,3
    1ac8:	00468393          	addi	t2,a3,4
    1acc:	01e60633          	add	a2,a2,t5
    1ad0:	00e60023          	sb	a4,0(a2)
    1ad4:	0647a603          	lw	a2,100(a5)
    1ad8:	00568293          	addi	t0,a3,5
    1adc:	00668f93          	addi	t6,a3,6
    1ae0:	01d60633          	add	a2,a2,t4
    1ae4:	00e60023          	sb	a4,0(a2)
    1ae8:	0647a603          	lw	a2,100(a5)
    1aec:	00768f13          	addi	t5,a3,7
    1af0:	00868e93          	addi	t4,a3,8
    1af4:	01c60633          	add	a2,a2,t3
    1af8:	00e60023          	sb	a4,0(a2)
    1afc:	0647a603          	lw	a2,100(a5)
    1b00:	00968e13          	addi	t3,a3,9
    1b04:	14068693          	addi	a3,a3,320
    1b08:	00760633          	add	a2,a2,t2
    1b0c:	00e60023          	sb	a4,0(a2)
    1b10:	0647a603          	lw	a2,100(a5)
    1b14:	00560633          	add	a2,a2,t0
    1b18:	00e60023          	sb	a4,0(a2)
    1b1c:	0647a603          	lw	a2,100(a5)
    1b20:	01f60633          	add	a2,a2,t6
    1b24:	00e60023          	sb	a4,0(a2)
    1b28:	0647a603          	lw	a2,100(a5)
    1b2c:	01e60633          	add	a2,a2,t5
    1b30:	00e60023          	sb	a4,0(a2)
    1b34:	0647a603          	lw	a2,100(a5)
    1b38:	01d60633          	add	a2,a2,t4
    1b3c:	00e60023          	sb	a4,0(a2)
    1b40:	0647a603          	lw	a2,100(a5)
    1b44:	01c60633          	add	a2,a2,t3
    1b48:	00e60023          	sb	a4,0(a2)
    1b4c:	f6d590e3          	bne	a1,a3,1aac <draw_O+0xe4>
    1b50:	00a58593          	addi	a1,a1,10
    1b54:	00a50513          	addi	a0,a0,10
    1b58:	eb0594e3          	bne	a1,a6,1a00 <draw_O+0x38>
    1b5c:	0000b537          	lui	a0,0xb
    1b60:	0000b5b7          	lui	a1,0xb
    1b64:	fffff337          	lui	t1,0xfffff
    1b68:	fffffe37          	lui	t3,0xfffff
    1b6c:	00001837          	lui	a6,0x1
    1b70:	0000d8b7          	lui	a7,0xd
    1b74:	f2d50513          	addi	a0,a0,-211 # af2d <__global_pointer+0x66d0>
    1b78:	f5558593          	addi	a1,a1,-171 # af55 <__global_pointer+0x66f8>
    1b7c:	35830313          	addi	t1,t1,856 # fffff358 <_stack_end+0xffefaf10>
    1b80:	fe000713          	li	a4,-32
    1b84:	380e0e13          	addi	t3,t3,896 # fffff380 <_stack_end+0xffefaf38>
    1b88:	c8080813          	addi	a6,a6,-896 # c80 <__heap_size+0x480>
    1b8c:	4d588893          	addi	a7,a7,1237 # d4d5 <__global_pointer+0x8c78>
    1b90:	006586b3          	add	a3,a1,t1
    1b94:	0647a603          	lw	a2,100(a5)
    1b98:	00168f93          	addi	t6,a3,1
    1b9c:	00268f13          	addi	t5,a3,2
    1ba0:	00d60633          	add	a2,a2,a3
    1ba4:	00e60023          	sb	a4,0(a2)
    1ba8:	0647a603          	lw	a2,100(a5)
    1bac:	00368e93          	addi	t4,a3,3
    1bb0:	00468413          	addi	s0,a3,4
    1bb4:	01f60633          	add	a2,a2,t6
    1bb8:	00e60023          	sb	a4,0(a2)
    1bbc:	0647a603          	lw	a2,100(a5)
    1bc0:	00568393          	addi	t2,a3,5
    1bc4:	00668293          	addi	t0,a3,6
    1bc8:	01e60633          	add	a2,a2,t5
    1bcc:	00e60023          	sb	a4,0(a2)
    1bd0:	0647a603          	lw	a2,100(a5)
    1bd4:	00768f93          	addi	t6,a3,7
    1bd8:	00868f13          	addi	t5,a3,8
    1bdc:	01d60633          	add	a2,a2,t4
    1be0:	00e60023          	sb	a4,0(a2)
    1be4:	0647a603          	lw	a2,100(a5)
    1be8:	00968e93          	addi	t4,a3,9
    1bec:	14068693          	addi	a3,a3,320
    1bf0:	00860633          	add	a2,a2,s0
    1bf4:	00e60023          	sb	a4,0(a2)
    1bf8:	0647a603          	lw	a2,100(a5)
    1bfc:	00760633          	add	a2,a2,t2
    1c00:	00e60023          	sb	a4,0(a2)
    1c04:	0647a603          	lw	a2,100(a5)
    1c08:	00560633          	add	a2,a2,t0
    1c0c:	00e60023          	sb	a4,0(a2)
    1c10:	0647a603          	lw	a2,100(a5)
    1c14:	01f60633          	add	a2,a2,t6
    1c18:	00e60023          	sb	a4,0(a2)
    1c1c:	0647a603          	lw	a2,100(a5)
    1c20:	01e60633          	add	a2,a2,t5
    1c24:	00e60023          	sb	a4,0(a2)
    1c28:	0647a603          	lw	a2,100(a5)
    1c2c:	01d60633          	add	a2,a2,t4
    1c30:	00e60023          	sb	a4,0(a2)
    1c34:	f6d510e3          	bne	a0,a3,1b94 <draw_O+0x1cc>
    1c38:	01c586b3          	add	a3,a1,t3
    1c3c:	0647a603          	lw	a2,100(a5)
    1c40:	00168f93          	addi	t6,a3,1
    1c44:	00268f13          	addi	t5,a3,2
    1c48:	00d60633          	add	a2,a2,a3
    1c4c:	00e60023          	sb	a4,0(a2)
    1c50:	0647a603          	lw	a2,100(a5)
    1c54:	00368e93          	addi	t4,a3,3
    1c58:	00468413          	addi	s0,a3,4
    1c5c:	01f60633          	add	a2,a2,t6
    1c60:	00e60023          	sb	a4,0(a2)
    1c64:	0647a603          	lw	a2,100(a5)
    1c68:	00568393          	addi	t2,a3,5
    1c6c:	00668293          	addi	t0,a3,6
    1c70:	01e60633          	add	a2,a2,t5
    1c74:	00e60023          	sb	a4,0(a2)
    1c78:	0647a603          	lw	a2,100(a5)
    1c7c:	00768f93          	addi	t6,a3,7
    1c80:	00868f13          	addi	t5,a3,8
    1c84:	01d60633          	add	a2,a2,t4
    1c88:	00e60023          	sb	a4,0(a2)
    1c8c:	0647a603          	lw	a2,100(a5)
    1c90:	00968e93          	addi	t4,a3,9
    1c94:	14068693          	addi	a3,a3,320
    1c98:	00860633          	add	a2,a2,s0
    1c9c:	00e60023          	sb	a4,0(a2)
    1ca0:	0647a603          	lw	a2,100(a5)
    1ca4:	00760633          	add	a2,a2,t2
    1ca8:	00e60023          	sb	a4,0(a2)
    1cac:	0647a603          	lw	a2,100(a5)
    1cb0:	00560633          	add	a2,a2,t0
    1cb4:	00e60023          	sb	a4,0(a2)
    1cb8:	0647a603          	lw	a2,100(a5)
    1cbc:	01f60633          	add	a2,a2,t6
    1cc0:	00e60023          	sb	a4,0(a2)
    1cc4:	0647a603          	lw	a2,100(a5)
    1cc8:	01e60633          	add	a2,a2,t5
    1ccc:	00e60023          	sb	a4,0(a2)
    1cd0:	0647a603          	lw	a2,100(a5)
    1cd4:	01d60633          	add	a2,a2,t4
    1cd8:	00e60023          	sb	a4,0(a2)
    1cdc:	f6d590e3          	bne	a1,a3,1c3c <draw_O+0x274>
    1ce0:	010585b3          	add	a1,a1,a6
    1ce4:	01050533          	add	a0,a0,a6
    1ce8:	eb1594e3          	bne	a1,a7,1b90 <draw_O+0x1c8>
    1cec:	00c12403          	lw	s0,12(sp)
    1cf0:	01010113          	addi	sp,sp,16
    1cf4:	00008067          	ret

00001cf8 <draw_V>:
    1cf8:	ff010113          	addi	sp,sp,-16
    1cfc:	0000a537          	lui	a0,0xa
    1d00:	0000a5b7          	lui	a1,0xa
    1d04:	fffff337          	lui	t1,0xfffff
    1d08:	fffffe37          	lui	t3,0xfffff
    1d0c:	00001837          	lui	a6,0x1
    1d10:	0000d8b7          	lui	a7,0xd
    1d14:	00812623          	sw	s0,12(sp)
    1d18:	2e950513          	addi	a0,a0,745 # a2e9 <__global_pointer+0x5a8c>
    1d1c:	31158593          	addi	a1,a1,785 # a311 <__global_pointer+0x5ab4>
    1d20:	00004737          	lui	a4,0x4
    1d24:	35830313          	addi	t1,t1,856 # fffff358 <_stack_end+0xffefaf10>
    1d28:	fe000793          	li	a5,-32
    1d2c:	380e0e13          	addi	t3,t3,896 # fffff380 <_stack_end+0xffefaf38>
    1d30:	c8080813          	addi	a6,a6,-896 # c80 <__heap_size+0x480>
    1d34:	89188893          	addi	a7,a7,-1903 # c891 <__global_pointer+0x8034>
    1d38:	006586b3          	add	a3,a1,t1
    1d3c:	06472603          	lw	a2,100(a4) # 4064 <VGA>
    1d40:	00168f93          	addi	t6,a3,1
    1d44:	00268f13          	addi	t5,a3,2
    1d48:	00d60633          	add	a2,a2,a3
    1d4c:	00f60023          	sb	a5,0(a2)
    1d50:	06472603          	lw	a2,100(a4)
    1d54:	00368e93          	addi	t4,a3,3
    1d58:	00468413          	addi	s0,a3,4
    1d5c:	01f60633          	add	a2,a2,t6
    1d60:	00f60023          	sb	a5,0(a2)
    1d64:	06472603          	lw	a2,100(a4)
    1d68:	00568393          	addi	t2,a3,5
    1d6c:	00668293          	addi	t0,a3,6
    1d70:	01e60633          	add	a2,a2,t5
    1d74:	00f60023          	sb	a5,0(a2)
    1d78:	06472603          	lw	a2,100(a4)
    1d7c:	00768f93          	addi	t6,a3,7
    1d80:	00868f13          	addi	t5,a3,8
    1d84:	01d60633          	add	a2,a2,t4
    1d88:	00f60023          	sb	a5,0(a2)
    1d8c:	06472603          	lw	a2,100(a4)
    1d90:	00968e93          	addi	t4,a3,9
    1d94:	14068693          	addi	a3,a3,320
    1d98:	00860633          	add	a2,a2,s0
    1d9c:	00f60023          	sb	a5,0(a2)
    1da0:	06472603          	lw	a2,100(a4)
    1da4:	00760633          	add	a2,a2,t2
    1da8:	00f60023          	sb	a5,0(a2)
    1dac:	06472603          	lw	a2,100(a4)
    1db0:	00560633          	add	a2,a2,t0
    1db4:	00f60023          	sb	a5,0(a2)
    1db8:	06472603          	lw	a2,100(a4)
    1dbc:	01f60633          	add	a2,a2,t6
    1dc0:	00f60023          	sb	a5,0(a2)
    1dc4:	06472603          	lw	a2,100(a4)
    1dc8:	01e60633          	add	a2,a2,t5
    1dcc:	00f60023          	sb	a5,0(a2)
    1dd0:	06472603          	lw	a2,100(a4)
    1dd4:	01d60633          	add	a2,a2,t4
    1dd8:	00f60023          	sb	a5,0(a2)
    1ddc:	f6a690e3          	bne	a3,a0,1d3c <draw_V+0x44>
    1de0:	01c586b3          	add	a3,a1,t3
    1de4:	06472603          	lw	a2,100(a4)
    1de8:	00168f93          	addi	t6,a3,1
    1dec:	00268f13          	addi	t5,a3,2
    1df0:	00d60633          	add	a2,a2,a3
    1df4:	00f60023          	sb	a5,0(a2)
    1df8:	06472603          	lw	a2,100(a4)
    1dfc:	00368e93          	addi	t4,a3,3
    1e00:	00468413          	addi	s0,a3,4
    1e04:	01f60633          	add	a2,a2,t6
    1e08:	00f60023          	sb	a5,0(a2)
    1e0c:	06472603          	lw	a2,100(a4)
    1e10:	00568393          	addi	t2,a3,5
    1e14:	00668293          	addi	t0,a3,6
    1e18:	01e60633          	add	a2,a2,t5
    1e1c:	00f60023          	sb	a5,0(a2)
    1e20:	06472603          	lw	a2,100(a4)
    1e24:	00768f93          	addi	t6,a3,7
    1e28:	00868f13          	addi	t5,a3,8
    1e2c:	01d60633          	add	a2,a2,t4
    1e30:	00f60023          	sb	a5,0(a2)
    1e34:	06472603          	lw	a2,100(a4)
    1e38:	00968e93          	addi	t4,a3,9
    1e3c:	14068693          	addi	a3,a3,320
    1e40:	00860633          	add	a2,a2,s0
    1e44:	00f60023          	sb	a5,0(a2)
    1e48:	06472603          	lw	a2,100(a4)
    1e4c:	00760633          	add	a2,a2,t2
    1e50:	00f60023          	sb	a5,0(a2)
    1e54:	06472603          	lw	a2,100(a4)
    1e58:	00560633          	add	a2,a2,t0
    1e5c:	00f60023          	sb	a5,0(a2)
    1e60:	06472603          	lw	a2,100(a4)
    1e64:	01f60633          	add	a2,a2,t6
    1e68:	00f60023          	sb	a5,0(a2)
    1e6c:	06472603          	lw	a2,100(a4)
    1e70:	01e60633          	add	a2,a2,t5
    1e74:	00f60023          	sb	a5,0(a2)
    1e78:	06472603          	lw	a2,100(a4)
    1e7c:	01d60633          	add	a2,a2,t4
    1e80:	00f60023          	sb	a5,0(a2)
    1e84:	f6b690e3          	bne	a3,a1,1de4 <draw_V+0xec>
    1e88:	010685b3          	add	a1,a3,a6
    1e8c:	01050533          	add	a0,a0,a6
    1e90:	eb1594e3          	bne	a1,a7,1d38 <draw_V+0x40>
    1e94:	06472683          	lw	a3,100(a4)
    1e98:	0000c737          	lui	a4,0xc
    1e9c:	0000d5b7          	lui	a1,0xd
    1ea0:	00e68733          	add	a4,a3,a4
    1ea4:	bef709a3          	sb	a5,-1037(a4) # bbf3 <__global_pointer+0x7396>
    1ea8:	bef70a23          	sb	a5,-1036(a4)
    1eac:	bef70aa3          	sb	a5,-1035(a4)
    1eb0:	bef70b23          	sb	a5,-1034(a4)
    1eb4:	bef70ba3          	sb	a5,-1033(a4)
    1eb8:	bef70c23          	sb	a5,-1032(a4)
    1ebc:	bef70ca3          	sb	a5,-1031(a4)
    1ec0:	bef70d23          	sb	a5,-1030(a4)
    1ec4:	bef70da3          	sb	a5,-1029(a4)
    1ec8:	bef70e23          	sb	a5,-1028(a4)
    1ecc:	d2f709a3          	sb	a5,-717(a4)
    1ed0:	d2f70a23          	sb	a5,-716(a4)
    1ed4:	d2f70aa3          	sb	a5,-715(a4)
    1ed8:	d2f70b23          	sb	a5,-714(a4)
    1edc:	d2f70ba3          	sb	a5,-713(a4)
    1ee0:	d2f70c23          	sb	a5,-712(a4)
    1ee4:	d2f70ca3          	sb	a5,-711(a4)
    1ee8:	d2f70d23          	sb	a5,-710(a4)
    1eec:	d2f70da3          	sb	a5,-709(a4)
    1ef0:	d2f70e23          	sb	a5,-708(a4)
    1ef4:	e6f709a3          	sb	a5,-397(a4)
    1ef8:	e6f70a23          	sb	a5,-396(a4)
    1efc:	e6f70aa3          	sb	a5,-395(a4)
    1f00:	e6f70b23          	sb	a5,-394(a4)
    1f04:	e6f70ba3          	sb	a5,-393(a4)
    1f08:	e6f70c23          	sb	a5,-392(a4)
    1f0c:	e6f70ca3          	sb	a5,-391(a4)
    1f10:	e6f70d23          	sb	a5,-390(a4)
    1f14:	e6f70da3          	sb	a5,-389(a4)
    1f18:	e6f70e23          	sb	a5,-388(a4)
    1f1c:	faf709a3          	sb	a5,-77(a4)
    1f20:	faf70a23          	sb	a5,-76(a4)
    1f24:	faf70aa3          	sb	a5,-75(a4)
    1f28:	faf70b23          	sb	a5,-74(a4)
    1f2c:	faf70ba3          	sb	a5,-73(a4)
    1f30:	faf70c23          	sb	a5,-72(a4)
    1f34:	faf70ca3          	sb	a5,-71(a4)
    1f38:	faf70d23          	sb	a5,-70(a4)
    1f3c:	faf70da3          	sb	a5,-69(a4)
    1f40:	faf70e23          	sb	a5,-68(a4)
    1f44:	0ef709a3          	sb	a5,243(a4)
    1f48:	0ef70a23          	sb	a5,244(a4)
    1f4c:	0ef70aa3          	sb	a5,245(a4)
    1f50:	0ef70b23          	sb	a5,246(a4)
    1f54:	0ef70ba3          	sb	a5,247(a4)
    1f58:	0ef70c23          	sb	a5,248(a4)
    1f5c:	0ef70ca3          	sb	a5,249(a4)
    1f60:	0ef70d23          	sb	a5,250(a4)
    1f64:	0ef70da3          	sb	a5,251(a4)
    1f68:	0ef70e23          	sb	a5,252(a4)
    1f6c:	22f709a3          	sb	a5,563(a4)
    1f70:	22f70a23          	sb	a5,564(a4)
    1f74:	22f70aa3          	sb	a5,565(a4)
    1f78:	22f70b23          	sb	a5,566(a4)
    1f7c:	22f70ba3          	sb	a5,567(a4)
    1f80:	22f70c23          	sb	a5,568(a4)
    1f84:	22f70ca3          	sb	a5,569(a4)
    1f88:	22f70d23          	sb	a5,570(a4)
    1f8c:	22f70da3          	sb	a5,571(a4)
    1f90:	22f70e23          	sb	a5,572(a4)
    1f94:	36f709a3          	sb	a5,883(a4)
    1f98:	36f70a23          	sb	a5,884(a4)
    1f9c:	36f70aa3          	sb	a5,885(a4)
    1fa0:	36f70b23          	sb	a5,886(a4)
    1fa4:	36f70ba3          	sb	a5,887(a4)
    1fa8:	36f70c23          	sb	a5,888(a4)
    1fac:	36f70ca3          	sb	a5,889(a4)
    1fb0:	36f70d23          	sb	a5,890(a4)
    1fb4:	36f70da3          	sb	a5,891(a4)
    1fb8:	36f70e23          	sb	a5,892(a4)
    1fbc:	4af709a3          	sb	a5,1203(a4)
    1fc0:	4af70a23          	sb	a5,1204(a4)
    1fc4:	4af70aa3          	sb	a5,1205(a4)
    1fc8:	4af70b23          	sb	a5,1206(a4)
    1fcc:	4af70ba3          	sb	a5,1207(a4)
    1fd0:	4af70c23          	sb	a5,1208(a4)
    1fd4:	4af70ca3          	sb	a5,1209(a4)
    1fd8:	4af70d23          	sb	a5,1210(a4)
    1fdc:	4af70da3          	sb	a5,1211(a4)
    1fe0:	4af70e23          	sb	a5,1212(a4)
    1fe4:	5ef709a3          	sb	a5,1523(a4)
    1fe8:	5ef70a23          	sb	a5,1524(a4)
    1fec:	5ef70aa3          	sb	a5,1525(a4)
    1ff0:	5ef70b23          	sb	a5,1526(a4)
    1ff4:	5ef70ba3          	sb	a5,1527(a4)
    1ff8:	5ef70c23          	sb	a5,1528(a4)
    1ffc:	5ef70ca3          	sb	a5,1529(a4)
    2000:	5ef70d23          	sb	a5,1530(a4)
    2004:	5ef70da3          	sb	a5,1531(a4)
    2008:	5ef70e23          	sb	a5,1532(a4)
    200c:	72f709a3          	sb	a5,1843(a4)
    2010:	72f70a23          	sb	a5,1844(a4)
    2014:	72f70aa3          	sb	a5,1845(a4)
    2018:	72f70b23          	sb	a5,1846(a4)
    201c:	72f70ba3          	sb	a5,1847(a4)
    2020:	72f70c23          	sb	a5,1848(a4)
    2024:	72f70ca3          	sb	a5,1849(a4)
    2028:	72f70d23          	sb	a5,1850(a4)
    202c:	72f70da3          	sb	a5,1851(a4)
    2030:	72f70e23          	sb	a5,1852(a4)
    2034:	c0f703a3          	sb	a5,-1017(a4)
    2038:	c0f70423          	sb	a5,-1016(a4)
    203c:	c0f704a3          	sb	a5,-1015(a4)
    2040:	c0f70523          	sb	a5,-1014(a4)
    2044:	c0f705a3          	sb	a5,-1013(a4)
    2048:	c0f70623          	sb	a5,-1012(a4)
    204c:	c0f706a3          	sb	a5,-1011(a4)
    2050:	c0f70723          	sb	a5,-1010(a4)
    2054:	c0f707a3          	sb	a5,-1009(a4)
    2058:	c0f70823          	sb	a5,-1008(a4)
    205c:	d4f703a3          	sb	a5,-697(a4)
    2060:	d4f70423          	sb	a5,-696(a4)
    2064:	d4f704a3          	sb	a5,-695(a4)
    2068:	d4f70523          	sb	a5,-694(a4)
    206c:	d4f705a3          	sb	a5,-693(a4)
    2070:	d4f70623          	sb	a5,-692(a4)
    2074:	d4f706a3          	sb	a5,-691(a4)
    2078:	d4f70723          	sb	a5,-690(a4)
    207c:	d4f707a3          	sb	a5,-689(a4)
    2080:	d4f70823          	sb	a5,-688(a4)
    2084:	e8f703a3          	sb	a5,-377(a4)
    2088:	e8f70423          	sb	a5,-376(a4)
    208c:	e8f704a3          	sb	a5,-375(a4)
    2090:	e8f70523          	sb	a5,-374(a4)
    2094:	e8f705a3          	sb	a5,-373(a4)
    2098:	e8f70623          	sb	a5,-372(a4)
    209c:	e8f706a3          	sb	a5,-371(a4)
    20a0:	e8f70723          	sb	a5,-370(a4)
    20a4:	e8f707a3          	sb	a5,-369(a4)
    20a8:	e8f70823          	sb	a5,-368(a4)
    20ac:	fcf703a3          	sb	a5,-57(a4)
    20b0:	fcf70423          	sb	a5,-56(a4)
    20b4:	fcf704a3          	sb	a5,-55(a4)
    20b8:	fcf70523          	sb	a5,-54(a4)
    20bc:	fcf705a3          	sb	a5,-53(a4)
    20c0:	fcf70623          	sb	a5,-52(a4)
    20c4:	fcf706a3          	sb	a5,-51(a4)
    20c8:	fcf70723          	sb	a5,-50(a4)
    20cc:	fcf707a3          	sb	a5,-49(a4)
    20d0:	fcf70823          	sb	a5,-48(a4)
    20d4:	10f703a3          	sb	a5,263(a4)
    20d8:	10f70423          	sb	a5,264(a4)
    20dc:	10f704a3          	sb	a5,265(a4)
    20e0:	10f70523          	sb	a5,266(a4)
    20e4:	10f705a3          	sb	a5,267(a4)
    20e8:	10f70623          	sb	a5,268(a4)
    20ec:	10f706a3          	sb	a5,269(a4)
    20f0:	10f70723          	sb	a5,270(a4)
    20f4:	10f707a3          	sb	a5,271(a4)
    20f8:	10f70823          	sb	a5,272(a4)
    20fc:	24f703a3          	sb	a5,583(a4)
    2100:	24f70423          	sb	a5,584(a4)
    2104:	24f704a3          	sb	a5,585(a4)
    2108:	24f70523          	sb	a5,586(a4)
    210c:	24f705a3          	sb	a5,587(a4)
    2110:	24f70623          	sb	a5,588(a4)
    2114:	24f706a3          	sb	a5,589(a4)
    2118:	24f70723          	sb	a5,590(a4)
    211c:	24f707a3          	sb	a5,591(a4)
    2120:	24f70823          	sb	a5,592(a4)
    2124:	38f703a3          	sb	a5,903(a4)
    2128:	38f70423          	sb	a5,904(a4)
    212c:	38f704a3          	sb	a5,905(a4)
    2130:	38f70523          	sb	a5,906(a4)
    2134:	38f705a3          	sb	a5,907(a4)
    2138:	38f70623          	sb	a5,908(a4)
    213c:	38f706a3          	sb	a5,909(a4)
    2140:	38f70723          	sb	a5,910(a4)
    2144:	38f707a3          	sb	a5,911(a4)
    2148:	38f70823          	sb	a5,912(a4)
    214c:	4cf703a3          	sb	a5,1223(a4)
    2150:	4cf70423          	sb	a5,1224(a4)
    2154:	4cf704a3          	sb	a5,1225(a4)
    2158:	4cf70523          	sb	a5,1226(a4)
    215c:	4cf705a3          	sb	a5,1227(a4)
    2160:	4cf70623          	sb	a5,1228(a4)
    2164:	4cf706a3          	sb	a5,1229(a4)
    2168:	4cf70723          	sb	a5,1230(a4)
    216c:	4cf707a3          	sb	a5,1231(a4)
    2170:	4cf70823          	sb	a5,1232(a4)
    2174:	60f703a3          	sb	a5,1543(a4)
    2178:	60f70423          	sb	a5,1544(a4)
    217c:	60f704a3          	sb	a5,1545(a4)
    2180:	60f70523          	sb	a5,1546(a4)
    2184:	60f705a3          	sb	a5,1547(a4)
    2188:	60f70623          	sb	a5,1548(a4)
    218c:	60f706a3          	sb	a5,1549(a4)
    2190:	60f70723          	sb	a5,1550(a4)
    2194:	60f707a3          	sb	a5,1551(a4)
    2198:	60f70823          	sb	a5,1552(a4)
    219c:	74f703a3          	sb	a5,1863(a4)
    21a0:	74f70423          	sb	a5,1864(a4)
    21a4:	74f704a3          	sb	a5,1865(a4)
    21a8:	74f70523          	sb	a5,1866(a4)
    21ac:	74f705a3          	sb	a5,1867(a4)
    21b0:	74f70623          	sb	a5,1868(a4)
    21b4:	74f706a3          	sb	a5,1869(a4)
    21b8:	74f70723          	sb	a5,1870(a4)
    21bc:	74f707a3          	sb	a5,1871(a4)
    21c0:	00b686b3          	add	a3,a3,a1
    21c4:	74f70823          	sb	a5,1872(a4)
    21c8:	86f68ea3          	sb	a5,-1923(a3)
    21cc:	86f68f23          	sb	a5,-1922(a3)
    21d0:	86f68fa3          	sb	a5,-1921(a3)
    21d4:	88f68023          	sb	a5,-1920(a3)
    21d8:	88f680a3          	sb	a5,-1919(a3)
    21dc:	88f68123          	sb	a5,-1918(a3)
    21e0:	88f681a3          	sb	a5,-1917(a3)
    21e4:	88f68223          	sb	a5,-1916(a3)
    21e8:	88f682a3          	sb	a5,-1915(a3)
    21ec:	88f68323          	sb	a5,-1914(a3)
    21f0:	9af68ea3          	sb	a5,-1603(a3)
    21f4:	9af68f23          	sb	a5,-1602(a3)
    21f8:	9af68fa3          	sb	a5,-1601(a3)
    21fc:	9cf68023          	sb	a5,-1600(a3)
    2200:	9cf680a3          	sb	a5,-1599(a3)
    2204:	9cf68123          	sb	a5,-1598(a3)
    2208:	9cf681a3          	sb	a5,-1597(a3)
    220c:	9cf68223          	sb	a5,-1596(a3)
    2210:	9cf682a3          	sb	a5,-1595(a3)
    2214:	9cf68323          	sb	a5,-1594(a3)
    2218:	aef68ea3          	sb	a5,-1283(a3)
    221c:	aef68f23          	sb	a5,-1282(a3)
    2220:	aef68fa3          	sb	a5,-1281(a3)
    2224:	b0f68023          	sb	a5,-1280(a3)
    2228:	b0f680a3          	sb	a5,-1279(a3)
    222c:	b0f68123          	sb	a5,-1278(a3)
    2230:	b0f681a3          	sb	a5,-1277(a3)
    2234:	b0f68223          	sb	a5,-1276(a3)
    2238:	b0f682a3          	sb	a5,-1275(a3)
    223c:	b0f68323          	sb	a5,-1274(a3)
    2240:	c2f68ea3          	sb	a5,-963(a3)
    2244:	fe000613          	li	a2,-32
    2248:	c2f68f23          	sb	a5,-962(a3)
    224c:	c2c68fa3          	sb	a2,-961(a3)
    2250:	c4c68023          	sb	a2,-960(a3)
    2254:	c4c680a3          	sb	a2,-959(a3)
    2258:	c4c68123          	sb	a2,-958(a3)
    225c:	c4c681a3          	sb	a2,-957(a3)
    2260:	c4c68223          	sb	a2,-956(a3)
    2264:	c4c682a3          	sb	a2,-955(a3)
    2268:	c4c68323          	sb	a2,-954(a3)
    226c:	d6c68ea3          	sb	a2,-643(a3)
    2270:	d6c68f23          	sb	a2,-642(a3)
    2274:	d6c68fa3          	sb	a2,-641(a3)
    2278:	d8c68023          	sb	a2,-640(a3)
    227c:	d8c680a3          	sb	a2,-639(a3)
    2280:	d8c68123          	sb	a2,-638(a3)
    2284:	d8c681a3          	sb	a2,-637(a3)
    2288:	d8c68223          	sb	a2,-636(a3)
    228c:	d8c682a3          	sb	a2,-635(a3)
    2290:	d8c68323          	sb	a2,-634(a3)
    2294:	eac68ea3          	sb	a2,-323(a3)
    2298:	eac68f23          	sb	a2,-322(a3)
    229c:	eac68fa3          	sb	a2,-321(a3)
    22a0:	ecc68023          	sb	a2,-320(a3)
    22a4:	ecc680a3          	sb	a2,-319(a3)
    22a8:	ecc68123          	sb	a2,-318(a3)
    22ac:	ecc681a3          	sb	a2,-317(a3)
    22b0:	ecc68223          	sb	a2,-316(a3)
    22b4:	ecc682a3          	sb	a2,-315(a3)
    22b8:	ecc68323          	sb	a2,-314(a3)
    22bc:	fec68ea3          	sb	a2,-3(a3)
    22c0:	fec68f23          	sb	a2,-2(a3)
    22c4:	fec68fa3          	sb	a2,-1(a3)
    22c8:	00c68023          	sb	a2,0(a3)
    22cc:	00c680a3          	sb	a2,1(a3)
    22d0:	00c68123          	sb	a2,2(a3)
    22d4:	00c681a3          	sb	a2,3(a3)
    22d8:	00c68223          	sb	a2,4(a3)
    22dc:	00c682a3          	sb	a2,5(a3)
    22e0:	00c68323          	sb	a2,6(a3)
    22e4:	12c68ea3          	sb	a2,317(a3)
    22e8:	12c68f23          	sb	a2,318(a3)
    22ec:	12c68fa3          	sb	a2,319(a3)
    22f0:	14c68023          	sb	a2,320(a3)
    22f4:	14c680a3          	sb	a2,321(a3)
    22f8:	14c68123          	sb	a2,322(a3)
    22fc:	14c681a3          	sb	a2,323(a3)
    2300:	14c68223          	sb	a2,324(a3)
    2304:	14c682a3          	sb	a2,325(a3)
    2308:	14c68323          	sb	a2,326(a3)
    230c:	26c68ea3          	sb	a2,637(a3)
    2310:	26c68f23          	sb	a2,638(a3)
    2314:	26c68fa3          	sb	a2,639(a3)
    2318:	28c68023          	sb	a2,640(a3)
    231c:	28c680a3          	sb	a2,641(a3)
    2320:	28c68123          	sb	a2,642(a3)
    2324:	28c681a3          	sb	a2,643(a3)
    2328:	28c68223          	sb	a2,644(a3)
    232c:	28c682a3          	sb	a2,645(a3)
    2330:	28c68323          	sb	a2,646(a3)
    2334:	3ac68ea3          	sb	a2,957(a3)
    2338:	3ac68f23          	sb	a2,958(a3)
    233c:	3ac68fa3          	sb	a2,959(a3)
    2340:	3cc68023          	sb	a2,960(a3)
    2344:	3cc680a3          	sb	a2,961(a3)
    2348:	3cc68123          	sb	a2,962(a3)
    234c:	3cc681a3          	sb	a2,963(a3)
    2350:	3cc68223          	sb	a2,964(a3)
    2354:	3cc682a3          	sb	a2,965(a3)
    2358:	3cc68323          	sb	a2,966(a3)
    235c:	00c12403          	lw	s0,12(sp)
    2360:	01010113          	addi	sp,sp,16
    2364:	00008067          	ret

00002368 <draw_R>:
    2368:	0000a5b7          	lui	a1,0xa
    236c:	fffff8b7          	lui	a7,0xfffff
    2370:	00001837          	lui	a6,0x1
    2374:	0000e537          	lui	a0,0xe
    2378:	36158593          	addi	a1,a1,865 # a361 <__global_pointer+0x5b04>
    237c:	000047b7          	lui	a5,0x4
    2380:	38088893          	addi	a7,a7,896 # fffff380 <_stack_end+0xffefaf38>
    2384:	fe000693          	li	a3,-32
    2388:	c8080813          	addi	a6,a6,-896 # c80 <__heap_size+0x480>
    238c:	1e150513          	addi	a0,a0,481 # e1e1 <__global_pointer+0x9984>
    2390:	01158733          	add	a4,a1,a7
    2394:	0647a603          	lw	a2,100(a5) # 4064 <VGA>
    2398:	00170e93          	addi	t4,a4,1
    239c:	00270e13          	addi	t3,a4,2
    23a0:	00e60633          	add	a2,a2,a4
    23a4:	00d60023          	sb	a3,0(a2)
    23a8:	0647a603          	lw	a2,100(a5)
    23ac:	00370313          	addi	t1,a4,3
    23b0:	00470293          	addi	t0,a4,4
    23b4:	01d60633          	add	a2,a2,t4
    23b8:	00d60023          	sb	a3,0(a2)
    23bc:	0647a603          	lw	a2,100(a5)
    23c0:	00570f93          	addi	t6,a4,5
    23c4:	00670f13          	addi	t5,a4,6
    23c8:	01c60633          	add	a2,a2,t3
    23cc:	00d60023          	sb	a3,0(a2)
    23d0:	0647a603          	lw	a2,100(a5)
    23d4:	00770e93          	addi	t4,a4,7
    23d8:	00870e13          	addi	t3,a4,8
    23dc:	00660633          	add	a2,a2,t1
    23e0:	00d60023          	sb	a3,0(a2)
    23e4:	0647a603          	lw	a2,100(a5)
    23e8:	00970313          	addi	t1,a4,9
    23ec:	14070713          	addi	a4,a4,320
    23f0:	00560633          	add	a2,a2,t0
    23f4:	00d60023          	sb	a3,0(a2)
    23f8:	0647a603          	lw	a2,100(a5)
    23fc:	01f60633          	add	a2,a2,t6
    2400:	00d60023          	sb	a3,0(a2)
    2404:	0647a603          	lw	a2,100(a5)
    2408:	01e60633          	add	a2,a2,t5
    240c:	00d60023          	sb	a3,0(a2)
    2410:	0647a603          	lw	a2,100(a5)
    2414:	01d60633          	add	a2,a2,t4
    2418:	00d60023          	sb	a3,0(a2)
    241c:	0647a603          	lw	a2,100(a5)
    2420:	01c60633          	add	a2,a2,t3
    2424:	00d60023          	sb	a3,0(a2)
    2428:	0647a603          	lw	a2,100(a5)
    242c:	00660633          	add	a2,a2,t1
    2430:	00d60023          	sb	a3,0(a2)
    2434:	f6b710e3          	bne	a4,a1,2394 <draw_R+0x2c>
    2438:	010705b3          	add	a1,a4,a6
    243c:	f4a59ae3          	bne	a1,a0,2390 <draw_R+0x28>
    2440:	0000a537          	lui	a0,0xa
    2444:	0000c5b7          	lui	a1,0xc
    2448:	ffffe8b7          	lui	a7,0xffffe
    244c:	fffff337          	lui	t1,0xfffff
    2450:	0000c837          	lui	a6,0xc
    2454:	36b50513          	addi	a0,a0,875 # a36b <__global_pointer+0x5b0e>
    2458:	c6b58593          	addi	a1,a1,-917 # bc6b <__global_pointer+0x740e>
    245c:	a8088893          	addi	a7,a7,-1408 # ffffda80 <_stack_end+0xffef9638>
    2460:	fe000713          	li	a4,-32
    2464:	38030313          	addi	t1,t1,896 # fffff380 <_stack_end+0xffefaf38>
    2468:	c9380813          	addi	a6,a6,-877 # bc93 <__global_pointer+0x7436>
    246c:	011586b3          	add	a3,a1,a7
    2470:	0647a603          	lw	a2,100(a5)
    2474:	00168f13          	addi	t5,a3,1
    2478:	00268e93          	addi	t4,a3,2
    247c:	00d60633          	add	a2,a2,a3
    2480:	00e60023          	sb	a4,0(a2)
    2484:	0647a603          	lw	a2,100(a5)
    2488:	00368e13          	addi	t3,a3,3
    248c:	00468393          	addi	t2,a3,4
    2490:	01e60633          	add	a2,a2,t5
    2494:	00e60023          	sb	a4,0(a2)
    2498:	0647a603          	lw	a2,100(a5)
    249c:	00568293          	addi	t0,a3,5
    24a0:	00668f93          	addi	t6,a3,6
    24a4:	01d60633          	add	a2,a2,t4
    24a8:	00e60023          	sb	a4,0(a2)
    24ac:	0647a603          	lw	a2,100(a5)
    24b0:	00768f13          	addi	t5,a3,7
    24b4:	00868e93          	addi	t4,a3,8
    24b8:	01c60633          	add	a2,a2,t3
    24bc:	00e60023          	sb	a4,0(a2)
    24c0:	0647a603          	lw	a2,100(a5)
    24c4:	00968e13          	addi	t3,a3,9
    24c8:	14068693          	addi	a3,a3,320
    24cc:	00760633          	add	a2,a2,t2
    24d0:	00e60023          	sb	a4,0(a2)
    24d4:	0647a603          	lw	a2,100(a5)
    24d8:	00560633          	add	a2,a2,t0
    24dc:	00e60023          	sb	a4,0(a2)
    24e0:	0647a603          	lw	a2,100(a5)
    24e4:	01f60633          	add	a2,a2,t6
    24e8:	00e60023          	sb	a4,0(a2)
    24ec:	0647a603          	lw	a2,100(a5)
    24f0:	01e60633          	add	a2,a2,t5
    24f4:	00e60023          	sb	a4,0(a2)
    24f8:	0647a603          	lw	a2,100(a5)
    24fc:	01d60633          	add	a2,a2,t4
    2500:	00e60023          	sb	a4,0(a2)
    2504:	0647a603          	lw	a2,100(a5)
    2508:	01c60633          	add	a2,a2,t3
    250c:	00e60023          	sb	a4,0(a2)
    2510:	f6a690e3          	bne	a3,a0,2470 <draw_R+0x108>
    2514:	006586b3          	add	a3,a1,t1
    2518:	0647a603          	lw	a2,100(a5)
    251c:	00168f13          	addi	t5,a3,1
    2520:	00268e93          	addi	t4,a3,2
    2524:	00d60633          	add	a2,a2,a3
    2528:	00e60023          	sb	a4,0(a2)
    252c:	0647a603          	lw	a2,100(a5)
    2530:	00368e13          	addi	t3,a3,3
    2534:	00468393          	addi	t2,a3,4
    2538:	01e60633          	add	a2,a2,t5
    253c:	00e60023          	sb	a4,0(a2)
    2540:	0647a603          	lw	a2,100(a5)
    2544:	00568293          	addi	t0,a3,5
    2548:	00668f93          	addi	t6,a3,6
    254c:	01d60633          	add	a2,a2,t4
    2550:	00e60023          	sb	a4,0(a2)
    2554:	0647a603          	lw	a2,100(a5)
    2558:	00768f13          	addi	t5,a3,7
    255c:	00868e93          	addi	t4,a3,8
    2560:	01c60633          	add	a2,a2,t3
    2564:	00e60023          	sb	a4,0(a2)
    2568:	0647a603          	lw	a2,100(a5)
    256c:	00968e13          	addi	t3,a3,9
    2570:	14068693          	addi	a3,a3,320
    2574:	00760633          	add	a2,a2,t2
    2578:	00e60023          	sb	a4,0(a2)
    257c:	0647a603          	lw	a2,100(a5)
    2580:	00560633          	add	a2,a2,t0
    2584:	00e60023          	sb	a4,0(a2)
    2588:	0647a603          	lw	a2,100(a5)
    258c:	01f60633          	add	a2,a2,t6
    2590:	00e60023          	sb	a4,0(a2)
    2594:	0647a603          	lw	a2,100(a5)
    2598:	01e60633          	add	a2,a2,t5
    259c:	00e60023          	sb	a4,0(a2)
    25a0:	0647a603          	lw	a2,100(a5)
    25a4:	01d60633          	add	a2,a2,t4
    25a8:	00e60023          	sb	a4,0(a2)
    25ac:	0647a603          	lw	a2,100(a5)
    25b0:	01c60633          	add	a2,a2,t3
    25b4:	00e60023          	sb	a4,0(a2)
    25b8:	f6b690e3          	bne	a3,a1,2518 <draw_R+0x1b0>
    25bc:	00a68593          	addi	a1,a3,10
    25c0:	00a50513          	addi	a0,a0,10
    25c4:	eb0594e3          	bne	a1,a6,246c <draw_R+0x104>
    25c8:	0647a783          	lw	a5,100(a5)
    25cc:	0000a6b7          	lui	a3,0xa
    25d0:	0000b637          	lui	a2,0xb
    25d4:	00d786b3          	add	a3,a5,a3
    25d8:	38e684a3          	sb	a4,905(a3) # a389 <__global_pointer+0x5b2c>
    25dc:	38e68523          	sb	a4,906(a3)
    25e0:	38e685a3          	sb	a4,907(a3)
    25e4:	38e68623          	sb	a4,908(a3)
    25e8:	38e686a3          	sb	a4,909(a3)
    25ec:	38e68723          	sb	a4,910(a3)
    25f0:	38e687a3          	sb	a4,911(a3)
    25f4:	38e68823          	sb	a4,912(a3)
    25f8:	38e688a3          	sb	a4,913(a3)
    25fc:	38e68923          	sb	a4,914(a3)
    2600:	4ce684a3          	sb	a4,1225(a3)
    2604:	4ce68523          	sb	a4,1226(a3)
    2608:	4ce685a3          	sb	a4,1227(a3)
    260c:	4ce68623          	sb	a4,1228(a3)
    2610:	4ce686a3          	sb	a4,1229(a3)
    2614:	4ce68723          	sb	a4,1230(a3)
    2618:	4ce687a3          	sb	a4,1231(a3)
    261c:	4ce68823          	sb	a4,1232(a3)
    2620:	4ce688a3          	sb	a4,1233(a3)
    2624:	4ce68923          	sb	a4,1234(a3)
    2628:	60e684a3          	sb	a4,1545(a3)
    262c:	60e68523          	sb	a4,1546(a3)
    2630:	60e685a3          	sb	a4,1547(a3)
    2634:	60e68623          	sb	a4,1548(a3)
    2638:	60e686a3          	sb	a4,1549(a3)
    263c:	60e68723          	sb	a4,1550(a3)
    2640:	60e687a3          	sb	a4,1551(a3)
    2644:	60e68823          	sb	a4,1552(a3)
    2648:	60e688a3          	sb	a4,1553(a3)
    264c:	60e68923          	sb	a4,1554(a3)
    2650:	74e684a3          	sb	a4,1865(a3)
    2654:	74e68523          	sb	a4,1866(a3)
    2658:	74e685a3          	sb	a4,1867(a3)
    265c:	74e68623          	sb	a4,1868(a3)
    2660:	74e686a3          	sb	a4,1869(a3)
    2664:	74e68723          	sb	a4,1870(a3)
    2668:	74e687a3          	sb	a4,1871(a3)
    266c:	74e68823          	sb	a4,1872(a3)
    2670:	74e688a3          	sb	a4,1873(a3)
    2674:	00c78633          	add	a2,a5,a2
    2678:	74e68923          	sb	a4,1874(a3)
    267c:	88e604a3          	sb	a4,-1911(a2) # a889 <__global_pointer+0x602c>
    2680:	88e60523          	sb	a4,-1910(a2)
    2684:	88e605a3          	sb	a4,-1909(a2)
    2688:	88e60623          	sb	a4,-1908(a2)
    268c:	88e606a3          	sb	a4,-1907(a2)
    2690:	88e60723          	sb	a4,-1906(a2)
    2694:	88e607a3          	sb	a4,-1905(a2)
    2698:	88e60823          	sb	a4,-1904(a2)
    269c:	88e608a3          	sb	a4,-1903(a2)
    26a0:	88e60923          	sb	a4,-1902(a2)
    26a4:	9ce604a3          	sb	a4,-1591(a2)
    26a8:	9ce60523          	sb	a4,-1590(a2)
    26ac:	9ce605a3          	sb	a4,-1589(a2)
    26b0:	9ce60623          	sb	a4,-1588(a2)
    26b4:	9ce606a3          	sb	a4,-1587(a2)
    26b8:	9ce60723          	sb	a4,-1586(a2)
    26bc:	9ce607a3          	sb	a4,-1585(a2)
    26c0:	9ce60823          	sb	a4,-1584(a2)
    26c4:	9ce608a3          	sb	a4,-1583(a2)
    26c8:	9ce60923          	sb	a4,-1582(a2)
    26cc:	b0e604a3          	sb	a4,-1271(a2)
    26d0:	b0e60523          	sb	a4,-1270(a2)
    26d4:	b0e605a3          	sb	a4,-1269(a2)
    26d8:	b0e60623          	sb	a4,-1268(a2)
    26dc:	b0e606a3          	sb	a4,-1267(a2)
    26e0:	b0e60723          	sb	a4,-1266(a2)
    26e4:	b0e607a3          	sb	a4,-1265(a2)
    26e8:	b0e60823          	sb	a4,-1264(a2)
    26ec:	b0e608a3          	sb	a4,-1263(a2)
    26f0:	b0e60923          	sb	a4,-1262(a2)
    26f4:	c4e604a3          	sb	a4,-951(a2)
    26f8:	c4e60523          	sb	a4,-950(a2)
    26fc:	c4e605a3          	sb	a4,-949(a2)
    2700:	c4e60623          	sb	a4,-948(a2)
    2704:	c4e606a3          	sb	a4,-947(a2)
    2708:	c4e60723          	sb	a4,-946(a2)
    270c:	c4e607a3          	sb	a4,-945(a2)
    2710:	c4e60823          	sb	a4,-944(a2)
    2714:	c4e608a3          	sb	a4,-943(a2)
    2718:	c4e60923          	sb	a4,-942(a2)
    271c:	d8e604a3          	sb	a4,-631(a2)
    2720:	d8e60523          	sb	a4,-630(a2)
    2724:	d8e605a3          	sb	a4,-629(a2)
    2728:	d8e60623          	sb	a4,-628(a2)
    272c:	d8e606a3          	sb	a4,-627(a2)
    2730:	d8e60723          	sb	a4,-626(a2)
    2734:	d8e607a3          	sb	a4,-625(a2)
    2738:	d8e60823          	sb	a4,-624(a2)
    273c:	d8e608a3          	sb	a4,-623(a2)
    2740:	d8e60923          	sb	a4,-622(a2)
    2744:	ece604a3          	sb	a4,-311(a2)
    2748:	ece60523          	sb	a4,-310(a2)
    274c:	ece605a3          	sb	a4,-309(a2)
    2750:	ece60623          	sb	a4,-308(a2)
    2754:	ece606a3          	sb	a4,-307(a2)
    2758:	ece60723          	sb	a4,-306(a2)
    275c:	ece607a3          	sb	a4,-305(a2)
    2760:	ece60823          	sb	a4,-304(a2)
    2764:	0000c6b7          	lui	a3,0xc
    2768:	ece608a3          	sb	a4,-303(a2)
    276c:	00d786b3          	add	a3,a5,a3
    2770:	ece60923          	sb	a4,-302(a2)
    2774:	c6e68fa3          	sb	a4,-897(a3) # bc7f <__global_pointer+0x7422>
    2778:	c8e68023          	sb	a4,-896(a3)
    277c:	c8e680a3          	sb	a4,-895(a3)
    2780:	c8e68123          	sb	a4,-894(a3)
    2784:	c8e681a3          	sb	a4,-893(a3)
    2788:	c8e68223          	sb	a4,-892(a3)
    278c:	c8e682a3          	sb	a4,-891(a3)
    2790:	c8e68323          	sb	a4,-890(a3)
    2794:	c8e683a3          	sb	a4,-889(a3)
    2798:	c8e68423          	sb	a4,-888(a3)
    279c:	dae68fa3          	sb	a4,-577(a3)
    27a0:	dce68023          	sb	a4,-576(a3)
    27a4:	dce680a3          	sb	a4,-575(a3)
    27a8:	dce68123          	sb	a4,-574(a3)
    27ac:	dce681a3          	sb	a4,-573(a3)
    27b0:	dce68223          	sb	a4,-572(a3)
    27b4:	dce682a3          	sb	a4,-571(a3)
    27b8:	dce68323          	sb	a4,-570(a3)
    27bc:	dce683a3          	sb	a4,-569(a3)
    27c0:	dce68423          	sb	a4,-568(a3)
    27c4:	eee68fa3          	sb	a4,-257(a3)
    27c8:	f0e68023          	sb	a4,-256(a3)
    27cc:	f0e680a3          	sb	a4,-255(a3)
    27d0:	f0e68123          	sb	a4,-254(a3)
    27d4:	f0e681a3          	sb	a4,-253(a3)
    27d8:	f0e68223          	sb	a4,-252(a3)
    27dc:	f0e682a3          	sb	a4,-251(a3)
    27e0:	f0e68323          	sb	a4,-250(a3)
    27e4:	f0e683a3          	sb	a4,-249(a3)
    27e8:	f0e68423          	sb	a4,-248(a3)
    27ec:	02e68fa3          	sb	a4,63(a3)
    27f0:	04e68023          	sb	a4,64(a3)
    27f4:	04e680a3          	sb	a4,65(a3)
    27f8:	04e68123          	sb	a4,66(a3)
    27fc:	04e681a3          	sb	a4,67(a3)
    2800:	04e68223          	sb	a4,68(a3)
    2804:	04e682a3          	sb	a4,69(a3)
    2808:	04e68323          	sb	a4,70(a3)
    280c:	04e683a3          	sb	a4,71(a3)
    2810:	04e68423          	sb	a4,72(a3)
    2814:	16e68fa3          	sb	a4,383(a3)
    2818:	18e68023          	sb	a4,384(a3)
    281c:	18e680a3          	sb	a4,385(a3)
    2820:	18e68123          	sb	a4,386(a3)
    2824:	18e681a3          	sb	a4,387(a3)
    2828:	18e68223          	sb	a4,388(a3)
    282c:	18e682a3          	sb	a4,389(a3)
    2830:	18e68323          	sb	a4,390(a3)
    2834:	18e683a3          	sb	a4,391(a3)
    2838:	18e68423          	sb	a4,392(a3)
    283c:	2ae68fa3          	sb	a4,703(a3)
    2840:	2ce68023          	sb	a4,704(a3)
    2844:	2ce680a3          	sb	a4,705(a3)
    2848:	2ce68123          	sb	a4,706(a3)
    284c:	2ce681a3          	sb	a4,707(a3)
    2850:	2ce68223          	sb	a4,708(a3)
    2854:	2ce682a3          	sb	a4,709(a3)
    2858:	2ce68323          	sb	a4,710(a3)
    285c:	2ce683a3          	sb	a4,711(a3)
    2860:	2ce68423          	sb	a4,712(a3)
    2864:	3ee68fa3          	sb	a4,1023(a3)
    2868:	40e68023          	sb	a4,1024(a3)
    286c:	40e680a3          	sb	a4,1025(a3)
    2870:	40e68123          	sb	a4,1026(a3)
    2874:	40e681a3          	sb	a4,1027(a3)
    2878:	40e68223          	sb	a4,1028(a3)
    287c:	40e682a3          	sb	a4,1029(a3)
    2880:	40e68323          	sb	a4,1030(a3)
    2884:	40e683a3          	sb	a4,1031(a3)
    2888:	40e68423          	sb	a4,1032(a3)
    288c:	52e68fa3          	sb	a4,1343(a3)
    2890:	54e68023          	sb	a4,1344(a3)
    2894:	54e680a3          	sb	a4,1345(a3)
    2898:	54e68123          	sb	a4,1346(a3)
    289c:	54e681a3          	sb	a4,1347(a3)
    28a0:	54e68223          	sb	a4,1348(a3)
    28a4:	54e682a3          	sb	a4,1349(a3)
    28a8:	54e68323          	sb	a4,1350(a3)
    28ac:	54e683a3          	sb	a4,1351(a3)
    28b0:	54e68423          	sb	a4,1352(a3)
    28b4:	66e68fa3          	sb	a4,1663(a3)
    28b8:	68e68023          	sb	a4,1664(a3)
    28bc:	68e680a3          	sb	a4,1665(a3)
    28c0:	68e68123          	sb	a4,1666(a3)
    28c4:	68e681a3          	sb	a4,1667(a3)
    28c8:	68e68223          	sb	a4,1668(a3)
    28cc:	68e682a3          	sb	a4,1669(a3)
    28d0:	68e68323          	sb	a4,1670(a3)
    28d4:	68e683a3          	sb	a4,1671(a3)
    28d8:	68e68423          	sb	a4,1672(a3)
    28dc:	7ae68fa3          	sb	a4,1983(a3)
    28e0:	7ce68023          	sb	a4,1984(a3)
    28e4:	7ce680a3          	sb	a4,1985(a3)
    28e8:	7ce68123          	sb	a4,1986(a3)
    28ec:	7ce681a3          	sb	a4,1987(a3)
    28f0:	7ce68223          	sb	a4,1988(a3)
    28f4:	7ce682a3          	sb	a4,1989(a3)
    28f8:	7ce68323          	sb	a4,1990(a3)
    28fc:	7ce683a3          	sb	a4,1991(a3)
    2900:	0000d637          	lui	a2,0xd
    2904:	00c787b3          	add	a5,a5,a2
    2908:	7ce68423          	sb	a4,1992(a3)
    290c:	90e784a3          	sb	a4,-1783(a5)
    2910:	90e78523          	sb	a4,-1782(a5)
    2914:	90e785a3          	sb	a4,-1781(a5)
    2918:	90e78623          	sb	a4,-1780(a5)
    291c:	90e786a3          	sb	a4,-1779(a5)
    2920:	90e78723          	sb	a4,-1778(a5)
    2924:	90e787a3          	sb	a4,-1777(a5)
    2928:	90e78823          	sb	a4,-1776(a5)
    292c:	90e788a3          	sb	a4,-1775(a5)
    2930:	90e78923          	sb	a4,-1774(a5)
    2934:	a4e784a3          	sb	a4,-1463(a5)
    2938:	a4e78523          	sb	a4,-1462(a5)
    293c:	a4e785a3          	sb	a4,-1461(a5)
    2940:	a4e78623          	sb	a4,-1460(a5)
    2944:	a4e786a3          	sb	a4,-1459(a5)
    2948:	a4e78723          	sb	a4,-1458(a5)
    294c:	a4e787a3          	sb	a4,-1457(a5)
    2950:	a4e78823          	sb	a4,-1456(a5)
    2954:	a4e788a3          	sb	a4,-1455(a5)
    2958:	a4e78923          	sb	a4,-1454(a5)
    295c:	b8e784a3          	sb	a4,-1143(a5)
    2960:	b8e78523          	sb	a4,-1142(a5)
    2964:	b8e785a3          	sb	a4,-1141(a5)
    2968:	b8e78623          	sb	a4,-1140(a5)
    296c:	b8e786a3          	sb	a4,-1139(a5)
    2970:	b8e78723          	sb	a4,-1138(a5)
    2974:	b8e787a3          	sb	a4,-1137(a5)
    2978:	b8e78823          	sb	a4,-1136(a5)
    297c:	b8e788a3          	sb	a4,-1135(a5)
    2980:	b8e78923          	sb	a4,-1134(a5)
    2984:	cce784a3          	sb	a4,-823(a5)
    2988:	cce78523          	sb	a4,-822(a5)
    298c:	fe000693          	li	a3,-32
    2990:	cce785a3          	sb	a4,-821(a5)
    2994:	ccd78623          	sb	a3,-820(a5)
    2998:	ccd786a3          	sb	a3,-819(a5)
    299c:	ccd78723          	sb	a3,-818(a5)
    29a0:	ccd787a3          	sb	a3,-817(a5)
    29a4:	ccd78823          	sb	a3,-816(a5)
    29a8:	ccd788a3          	sb	a3,-815(a5)
    29ac:	ccd78923          	sb	a3,-814(a5)
    29b0:	e0d784a3          	sb	a3,-503(a5)
    29b4:	e0d78523          	sb	a3,-502(a5)
    29b8:	e0d785a3          	sb	a3,-501(a5)
    29bc:	e0d78623          	sb	a3,-500(a5)
    29c0:	e0d786a3          	sb	a3,-499(a5)
    29c4:	e0d78723          	sb	a3,-498(a5)
    29c8:	e0d787a3          	sb	a3,-497(a5)
    29cc:	e0d78823          	sb	a3,-496(a5)
    29d0:	e0d788a3          	sb	a3,-495(a5)
    29d4:	e0d78923          	sb	a3,-494(a5)
    29d8:	f4d784a3          	sb	a3,-183(a5)
    29dc:	f4d78523          	sb	a3,-182(a5)
    29e0:	f4d785a3          	sb	a3,-181(a5)
    29e4:	f4d78623          	sb	a3,-180(a5)
    29e8:	f4d786a3          	sb	a3,-179(a5)
    29ec:	f4d78723          	sb	a3,-178(a5)
    29f0:	f4d787a3          	sb	a3,-177(a5)
    29f4:	f4d78823          	sb	a3,-176(a5)
    29f8:	f4d788a3          	sb	a3,-175(a5)
    29fc:	f4d78923          	sb	a3,-174(a5)
    2a00:	08d784a3          	sb	a3,137(a5)
    2a04:	08d78523          	sb	a3,138(a5)
    2a08:	08d785a3          	sb	a3,139(a5)
    2a0c:	08d78623          	sb	a3,140(a5)
    2a10:	08d786a3          	sb	a3,141(a5)
    2a14:	08d78723          	sb	a3,142(a5)
    2a18:	08d787a3          	sb	a3,143(a5)
    2a1c:	08d78823          	sb	a3,144(a5)
    2a20:	08d788a3          	sb	a3,145(a5)
    2a24:	08d78923          	sb	a3,146(a5)
    2a28:	1cd784a3          	sb	a3,457(a5)
    2a2c:	1cd78523          	sb	a3,458(a5)
    2a30:	1cd785a3          	sb	a3,459(a5)
    2a34:	1cd78623          	sb	a3,460(a5)
    2a38:	1cd786a3          	sb	a3,461(a5)
    2a3c:	1cd78723          	sb	a3,462(a5)
    2a40:	1cd787a3          	sb	a3,463(a5)
    2a44:	1cd78823          	sb	a3,464(a5)
    2a48:	1cd788a3          	sb	a3,465(a5)
    2a4c:	1cd78923          	sb	a3,466(a5)
    2a50:	30d784a3          	sb	a3,777(a5)
    2a54:	30d78523          	sb	a3,778(a5)
    2a58:	30d785a3          	sb	a3,779(a5)
    2a5c:	30d78623          	sb	a3,780(a5)
    2a60:	30d786a3          	sb	a3,781(a5)
    2a64:	30d78723          	sb	a3,782(a5)
    2a68:	30d787a3          	sb	a3,783(a5)
    2a6c:	30d78823          	sb	a3,784(a5)
    2a70:	30d788a3          	sb	a3,785(a5)
    2a74:	30d78923          	sb	a3,786(a5)
    2a78:	44d784a3          	sb	a3,1097(a5)
    2a7c:	44d78523          	sb	a3,1098(a5)
    2a80:	44d785a3          	sb	a3,1099(a5)
    2a84:	44d78623          	sb	a3,1100(a5)
    2a88:	44d786a3          	sb	a3,1101(a5)
    2a8c:	44d78723          	sb	a3,1102(a5)
    2a90:	44d787a3          	sb	a3,1103(a5)
    2a94:	44d78823          	sb	a3,1104(a5)
    2a98:	44d788a3          	sb	a3,1105(a5)
    2a9c:	44d78923          	sb	a3,1106(a5)
    2aa0:	00008067          	ret

00002aa4 <draw_GAMEOVER>:
    2aa4:	ff010113          	addi	sp,sp,-16
    2aa8:	00112623          	sw	ra,12(sp)
    2aac:	00812423          	sw	s0,8(sp)
    2ab0:	00912223          	sw	s1,4(sp)
    2ab4:	d1dfd0ef          	jal	7d0 <draw_G>
    2ab8:	9d4fe0ef          	jal	c8c <draw_A>
    2abc:	d00fe0ef          	jal	fbc <draw_M>
    2ac0:	000065b7          	lui	a1,0x6
    2ac4:	fffff8b7          	lui	a7,0xfffff
    2ac8:	00001837          	lui	a6,0x1
    2acc:	00009537          	lui	a0,0x9
    2ad0:	86158593          	addi	a1,a1,-1951 # 5861 <__global_pointer+0x1004>
    2ad4:	00004437          	lui	s0,0x4
    2ad8:	38088893          	addi	a7,a7,896 # fffff380 <_stack_end+0xffefaf38>
    2adc:	fe000713          	li	a4,-32
    2ae0:	c8080813          	addi	a6,a6,-896 # c80 <__heap_size+0x480>
    2ae4:	6e150513          	addi	a0,a0,1761 # 96e1 <__global_pointer+0x4e84>
    2ae8:	011587b3          	add	a5,a1,a7
    2aec:	06442683          	lw	a3,100(s0) # 4064 <VGA>
    2af0:	00178e13          	addi	t3,a5,1
    2af4:	00278313          	addi	t1,a5,2
    2af8:	00f686b3          	add	a3,a3,a5
    2afc:	00e68023          	sb	a4,0(a3)
    2b00:	06442683          	lw	a3,100(s0)
    2b04:	00378613          	addi	a2,a5,3
    2b08:	00478f93          	addi	t6,a5,4
    2b0c:	01c686b3          	add	a3,a3,t3
    2b10:	00e68023          	sb	a4,0(a3)
    2b14:	06442683          	lw	a3,100(s0)
    2b18:	00578f13          	addi	t5,a5,5
    2b1c:	00678e93          	addi	t4,a5,6
    2b20:	006686b3          	add	a3,a3,t1
    2b24:	00e68023          	sb	a4,0(a3)
    2b28:	06442683          	lw	a3,100(s0)
    2b2c:	00778e13          	addi	t3,a5,7
    2b30:	00878313          	addi	t1,a5,8
    2b34:	00c686b3          	add	a3,a3,a2
    2b38:	00e68023          	sb	a4,0(a3)
    2b3c:	06442683          	lw	a3,100(s0)
    2b40:	00978613          	addi	a2,a5,9
    2b44:	14078793          	addi	a5,a5,320
    2b48:	01f686b3          	add	a3,a3,t6
    2b4c:	00e68023          	sb	a4,0(a3)
    2b50:	06442683          	lw	a3,100(s0)
    2b54:	01e686b3          	add	a3,a3,t5
    2b58:	00e68023          	sb	a4,0(a3)
    2b5c:	06442683          	lw	a3,100(s0)
    2b60:	01d686b3          	add	a3,a3,t4
    2b64:	00e68023          	sb	a4,0(a3)
    2b68:	06442683          	lw	a3,100(s0)
    2b6c:	01c686b3          	add	a3,a3,t3
    2b70:	00e68023          	sb	a4,0(a3)
    2b74:	06442683          	lw	a3,100(s0)
    2b78:	006686b3          	add	a3,a3,t1
    2b7c:	00e68023          	sb	a4,0(a3)
    2b80:	06442683          	lw	a3,100(s0)
    2b84:	00c686b3          	add	a3,a3,a2
    2b88:	00e68023          	sb	a4,0(a3)
    2b8c:	f6f590e3          	bne	a1,a5,2aec <draw_GAMEOVER+0x48>
    2b90:	010585b3          	add	a1,a1,a6
    2b94:	f4a59ae3          	bne	a1,a0,2ae8 <draw_GAMEOVER+0x44>
    2b98:	00006537          	lui	a0,0x6
    2b9c:	000075b7          	lui	a1,0x7
    2ba0:	00009637          	lui	a2,0x9
    2ba4:	ffffc8b7          	lui	a7,0xffffc
    2ba8:	ffffee37          	lui	t3,0xffffe
    2bac:	fffff337          	lui	t1,0xfffff
    2bb0:	00009837          	lui	a6,0x9
    2bb4:	86b50513          	addi	a0,a0,-1941 # 586b <__global_pointer+0x100e>
    2bb8:	16b58593          	addi	a1,a1,363 # 716b <__global_pointer+0x290e>
    2bbc:	a6b60613          	addi	a2,a2,-1429 # 8a6b <__global_pointer+0x420e>
    2bc0:	18088893          	addi	a7,a7,384 # ffffc180 <_stack_end+0xffef7d38>
    2bc4:	fe000793          	li	a5,-32
    2bc8:	a80e0e13          	addi	t3,t3,-1408 # ffffda80 <_stack_end+0xffef9638>
    2bcc:	38030313          	addi	t1,t1,896 # fffff380 <_stack_end+0xffefaf38>
    2bd0:	a9380813          	addi	a6,a6,-1389 # 8a93 <__global_pointer+0x4236>
    2bd4:	01160733          	add	a4,a2,a7
    2bd8:	06442683          	lw	a3,100(s0)
    2bdc:	00170f93          	addi	t6,a4,1
    2be0:	00270f13          	addi	t5,a4,2
    2be4:	00e686b3          	add	a3,a3,a4
    2be8:	00f68023          	sb	a5,0(a3)
    2bec:	06442683          	lw	a3,100(s0)
    2bf0:	00370e93          	addi	t4,a4,3
    2bf4:	00470493          	addi	s1,a4,4
    2bf8:	01f686b3          	add	a3,a3,t6
    2bfc:	00f68023          	sb	a5,0(a3)
    2c00:	06442683          	lw	a3,100(s0)
    2c04:	00570393          	addi	t2,a4,5
    2c08:	00670293          	addi	t0,a4,6
    2c0c:	01e686b3          	add	a3,a3,t5
    2c10:	00f68023          	sb	a5,0(a3)
    2c14:	06442683          	lw	a3,100(s0)
    2c18:	00770f93          	addi	t6,a4,7
    2c1c:	00870f13          	addi	t5,a4,8
    2c20:	01d686b3          	add	a3,a3,t4
    2c24:	00f68023          	sb	a5,0(a3)
    2c28:	06442683          	lw	a3,100(s0)
    2c2c:	00970e93          	addi	t4,a4,9
    2c30:	14070713          	addi	a4,a4,320
    2c34:	009686b3          	add	a3,a3,s1
    2c38:	00f68023          	sb	a5,0(a3)
    2c3c:	06442683          	lw	a3,100(s0)
    2c40:	007686b3          	add	a3,a3,t2
    2c44:	00f68023          	sb	a5,0(a3)
    2c48:	06442683          	lw	a3,100(s0)
    2c4c:	005686b3          	add	a3,a3,t0
    2c50:	00f68023          	sb	a5,0(a3)
    2c54:	06442683          	lw	a3,100(s0)
    2c58:	01f686b3          	add	a3,a3,t6
    2c5c:	00f68023          	sb	a5,0(a3)
    2c60:	06442683          	lw	a3,100(s0)
    2c64:	01e686b3          	add	a3,a3,t5
    2c68:	00f68023          	sb	a5,0(a3)
    2c6c:	06442683          	lw	a3,100(s0)
    2c70:	01d686b3          	add	a3,a3,t4
    2c74:	00f68023          	sb	a5,0(a3)
    2c78:	f6e510e3          	bne	a0,a4,2bd8 <draw_GAMEOVER+0x134>
    2c7c:	01c60733          	add	a4,a2,t3
    2c80:	06442683          	lw	a3,100(s0)
    2c84:	00170f93          	addi	t6,a4,1
    2c88:	00270f13          	addi	t5,a4,2
    2c8c:	00e686b3          	add	a3,a3,a4
    2c90:	00f68023          	sb	a5,0(a3)
    2c94:	06442683          	lw	a3,100(s0)
    2c98:	00370e93          	addi	t4,a4,3
    2c9c:	00470493          	addi	s1,a4,4
    2ca0:	01f686b3          	add	a3,a3,t6
    2ca4:	00f68023          	sb	a5,0(a3)
    2ca8:	06442683          	lw	a3,100(s0)
    2cac:	00570393          	addi	t2,a4,5
    2cb0:	00670293          	addi	t0,a4,6
    2cb4:	01e686b3          	add	a3,a3,t5
    2cb8:	00f68023          	sb	a5,0(a3)
    2cbc:	06442683          	lw	a3,100(s0)
    2cc0:	00770f93          	addi	t6,a4,7
    2cc4:	00870f13          	addi	t5,a4,8
    2cc8:	01d686b3          	add	a3,a3,t4
    2ccc:	00f68023          	sb	a5,0(a3)
    2cd0:	06442683          	lw	a3,100(s0)
    2cd4:	00970e93          	addi	t4,a4,9
    2cd8:	14070713          	addi	a4,a4,320
    2cdc:	009686b3          	add	a3,a3,s1
    2ce0:	00f68023          	sb	a5,0(a3)
    2ce4:	06442683          	lw	a3,100(s0)
    2ce8:	007686b3          	add	a3,a3,t2
    2cec:	00f68023          	sb	a5,0(a3)
    2cf0:	06442683          	lw	a3,100(s0)
    2cf4:	005686b3          	add	a3,a3,t0
    2cf8:	00f68023          	sb	a5,0(a3)
    2cfc:	06442683          	lw	a3,100(s0)
    2d00:	01f686b3          	add	a3,a3,t6
    2d04:	00f68023          	sb	a5,0(a3)
    2d08:	06442683          	lw	a3,100(s0)
    2d0c:	01e686b3          	add	a3,a3,t5
    2d10:	00f68023          	sb	a5,0(a3)
    2d14:	06442683          	lw	a3,100(s0)
    2d18:	01d686b3          	add	a3,a3,t4
    2d1c:	00f68023          	sb	a5,0(a3)
    2d20:	f6e590e3          	bne	a1,a4,2c80 <draw_GAMEOVER+0x1dc>
    2d24:	00660733          	add	a4,a2,t1
    2d28:	06442683          	lw	a3,100(s0)
    2d2c:	00170f93          	addi	t6,a4,1
    2d30:	00270f13          	addi	t5,a4,2
    2d34:	00e686b3          	add	a3,a3,a4
    2d38:	00f68023          	sb	a5,0(a3)
    2d3c:	06442683          	lw	a3,100(s0)
    2d40:	00370e93          	addi	t4,a4,3
    2d44:	00470493          	addi	s1,a4,4
    2d48:	01f686b3          	add	a3,a3,t6
    2d4c:	00f68023          	sb	a5,0(a3)
    2d50:	06442683          	lw	a3,100(s0)
    2d54:	00570393          	addi	t2,a4,5
    2d58:	00670293          	addi	t0,a4,6
    2d5c:	01e686b3          	add	a3,a3,t5
    2d60:	00f68023          	sb	a5,0(a3)
    2d64:	06442683          	lw	a3,100(s0)
    2d68:	00770f93          	addi	t6,a4,7
    2d6c:	00870f13          	addi	t5,a4,8
    2d70:	01d686b3          	add	a3,a3,t4
    2d74:	00f68023          	sb	a5,0(a3)
    2d78:	06442683          	lw	a3,100(s0)
    2d7c:	00970e93          	addi	t4,a4,9
    2d80:	14070713          	addi	a4,a4,320
    2d84:	009686b3          	add	a3,a3,s1
    2d88:	00f68023          	sb	a5,0(a3)
    2d8c:	06442683          	lw	a3,100(s0)
    2d90:	007686b3          	add	a3,a3,t2
    2d94:	00f68023          	sb	a5,0(a3)
    2d98:	06442683          	lw	a3,100(s0)
    2d9c:	005686b3          	add	a3,a3,t0
    2da0:	00f68023          	sb	a5,0(a3)
    2da4:	06442683          	lw	a3,100(s0)
    2da8:	01f686b3          	add	a3,a3,t6
    2dac:	00f68023          	sb	a5,0(a3)
    2db0:	06442683          	lw	a3,100(s0)
    2db4:	01e686b3          	add	a3,a3,t5
    2db8:	00f68023          	sb	a5,0(a3)
    2dbc:	06442683          	lw	a3,100(s0)
    2dc0:	01d686b3          	add	a3,a3,t4
    2dc4:	00f68023          	sb	a5,0(a3)
    2dc8:	f6e610e3          	bne	a2,a4,2d28 <draw_GAMEOVER+0x284>
    2dcc:	00a60613          	addi	a2,a2,10
    2dd0:	00a58593          	addi	a1,a1,10
    2dd4:	00a50513          	addi	a0,a0,10
    2dd8:	df061ee3          	bne	a2,a6,2bd4 <draw_GAMEOVER+0x130>
    2ddc:	bedfe0ef          	jal	19c8 <draw_O>
    2de0:	f19fe0ef          	jal	1cf8 <draw_V>
    2de4:	0000a637          	lui	a2,0xa
    2de8:	fffff837          	lui	a6,0xfffff
    2dec:	00001537          	lui	a0,0x1
    2df0:	0000e5b7          	lui	a1,0xe
    2df4:	32560613          	addi	a2,a2,805 # a325 <__global_pointer+0x5ac8>
    2df8:	38080813          	addi	a6,a6,896 # fffff380 <_stack_end+0xffefaf38>
    2dfc:	fe000713          	li	a4,-32
    2e00:	c8050513          	addi	a0,a0,-896 # c80 <__heap_size+0x480>
    2e04:	1a558593          	addi	a1,a1,421 # e1a5 <__global_pointer+0x9948>
    2e08:	010607b3          	add	a5,a2,a6
    2e0c:	06442683          	lw	a3,100(s0)
    2e10:	00178e13          	addi	t3,a5,1
    2e14:	00278313          	addi	t1,a5,2
    2e18:	00f686b3          	add	a3,a3,a5
    2e1c:	00e68023          	sb	a4,0(a3)
    2e20:	06442683          	lw	a3,100(s0)
    2e24:	00378893          	addi	a7,a5,3
    2e28:	00478f93          	addi	t6,a5,4
    2e2c:	01c686b3          	add	a3,a3,t3
    2e30:	00e68023          	sb	a4,0(a3)
    2e34:	06442683          	lw	a3,100(s0)
    2e38:	00578f13          	addi	t5,a5,5
    2e3c:	00678e93          	addi	t4,a5,6
    2e40:	006686b3          	add	a3,a3,t1
    2e44:	00e68023          	sb	a4,0(a3)
    2e48:	06442683          	lw	a3,100(s0)
    2e4c:	00778e13          	addi	t3,a5,7
    2e50:	00878313          	addi	t1,a5,8
    2e54:	011686b3          	add	a3,a3,a7
    2e58:	00e68023          	sb	a4,0(a3)
    2e5c:	06442683          	lw	a3,100(s0)
    2e60:	00978893          	addi	a7,a5,9
    2e64:	14078793          	addi	a5,a5,320
    2e68:	01f686b3          	add	a3,a3,t6
    2e6c:	00e68023          	sb	a4,0(a3)
    2e70:	06442683          	lw	a3,100(s0)
    2e74:	01e686b3          	add	a3,a3,t5
    2e78:	00e68023          	sb	a4,0(a3)
    2e7c:	06442683          	lw	a3,100(s0)
    2e80:	01d686b3          	add	a3,a3,t4
    2e84:	00e68023          	sb	a4,0(a3)
    2e88:	06442683          	lw	a3,100(s0)
    2e8c:	01c686b3          	add	a3,a3,t3
    2e90:	00e68023          	sb	a4,0(a3)
    2e94:	06442683          	lw	a3,100(s0)
    2e98:	006686b3          	add	a3,a3,t1
    2e9c:	00e68023          	sb	a4,0(a3)
    2ea0:	06442683          	lw	a3,100(s0)
    2ea4:	011686b3          	add	a3,a3,a7
    2ea8:	00e68023          	sb	a4,0(a3)
    2eac:	f6f610e3          	bne	a2,a5,2e0c <draw_GAMEOVER+0x368>
    2eb0:	00a60633          	add	a2,a2,a0
    2eb4:	f4b61ae3          	bne	a2,a1,2e08 <draw_GAMEOVER+0x364>
    2eb8:	0000a537          	lui	a0,0xa
    2ebc:	0000c5b7          	lui	a1,0xc
    2ec0:	0000d637          	lui	a2,0xd
    2ec4:	ffffc8b7          	lui	a7,0xffffc
    2ec8:	ffffee37          	lui	t3,0xffffe
    2ecc:	fffff337          	lui	t1,0xfffff
    2ed0:	0000d837          	lui	a6,0xd
    2ed4:	32f50513          	addi	a0,a0,815 # a32f <__global_pointer+0x5ad2>
    2ed8:	c2f58593          	addi	a1,a1,-977 # bc2f <__global_pointer+0x73d2>
    2edc:	52f60613          	addi	a2,a2,1327 # d52f <__global_pointer+0x8cd2>
    2ee0:	18088893          	addi	a7,a7,384 # ffffc180 <_stack_end+0xffef7d38>
    2ee4:	fe000793          	li	a5,-32
    2ee8:	a80e0e13          	addi	t3,t3,-1408 # ffffda80 <_stack_end+0xffef9638>
    2eec:	38030313          	addi	t1,t1,896 # fffff380 <_stack_end+0xffefaf38>
    2ef0:	55780813          	addi	a6,a6,1367 # d557 <__global_pointer+0x8cfa>
    2ef4:	01160733          	add	a4,a2,a7
    2ef8:	06442683          	lw	a3,100(s0)
    2efc:	00170f93          	addi	t6,a4,1
    2f00:	00270f13          	addi	t5,a4,2
    2f04:	00e686b3          	add	a3,a3,a4
    2f08:	00f68023          	sb	a5,0(a3)
    2f0c:	06442683          	lw	a3,100(s0)
    2f10:	00370e93          	addi	t4,a4,3
    2f14:	00470493          	addi	s1,a4,4
    2f18:	01f686b3          	add	a3,a3,t6
    2f1c:	00f68023          	sb	a5,0(a3)
    2f20:	06442683          	lw	a3,100(s0)
    2f24:	00570393          	addi	t2,a4,5
    2f28:	00670293          	addi	t0,a4,6
    2f2c:	01e686b3          	add	a3,a3,t5
    2f30:	00f68023          	sb	a5,0(a3)
    2f34:	06442683          	lw	a3,100(s0)
    2f38:	00770f93          	addi	t6,a4,7
    2f3c:	00870f13          	addi	t5,a4,8
    2f40:	01d686b3          	add	a3,a3,t4
    2f44:	00f68023          	sb	a5,0(a3)
    2f48:	06442683          	lw	a3,100(s0)
    2f4c:	00970e93          	addi	t4,a4,9
    2f50:	14070713          	addi	a4,a4,320
    2f54:	009686b3          	add	a3,a3,s1
    2f58:	00f68023          	sb	a5,0(a3)
    2f5c:	06442683          	lw	a3,100(s0)
    2f60:	007686b3          	add	a3,a3,t2
    2f64:	00f68023          	sb	a5,0(a3)
    2f68:	06442683          	lw	a3,100(s0)
    2f6c:	005686b3          	add	a3,a3,t0
    2f70:	00f68023          	sb	a5,0(a3)
    2f74:	06442683          	lw	a3,100(s0)
    2f78:	01f686b3          	add	a3,a3,t6
    2f7c:	00f68023          	sb	a5,0(a3)
    2f80:	06442683          	lw	a3,100(s0)
    2f84:	01e686b3          	add	a3,a3,t5
    2f88:	00f68023          	sb	a5,0(a3)
    2f8c:	06442683          	lw	a3,100(s0)
    2f90:	01d686b3          	add	a3,a3,t4
    2f94:	00f68023          	sb	a5,0(a3)
    2f98:	f6e510e3          	bne	a0,a4,2ef8 <draw_GAMEOVER+0x454>
    2f9c:	01c60733          	add	a4,a2,t3
    2fa0:	06442683          	lw	a3,100(s0)
    2fa4:	00170f93          	addi	t6,a4,1
    2fa8:	00270f13          	addi	t5,a4,2
    2fac:	00e686b3          	add	a3,a3,a4
    2fb0:	00f68023          	sb	a5,0(a3)
    2fb4:	06442683          	lw	a3,100(s0)
    2fb8:	00370e93          	addi	t4,a4,3
    2fbc:	00470493          	addi	s1,a4,4
    2fc0:	01f686b3          	add	a3,a3,t6
    2fc4:	00f68023          	sb	a5,0(a3)
    2fc8:	06442683          	lw	a3,100(s0)
    2fcc:	00570393          	addi	t2,a4,5
    2fd0:	00670293          	addi	t0,a4,6
    2fd4:	01e686b3          	add	a3,a3,t5
    2fd8:	00f68023          	sb	a5,0(a3)
    2fdc:	06442683          	lw	a3,100(s0)
    2fe0:	00770f93          	addi	t6,a4,7
    2fe4:	00870f13          	addi	t5,a4,8
    2fe8:	01d686b3          	add	a3,a3,t4
    2fec:	00f68023          	sb	a5,0(a3)
    2ff0:	06442683          	lw	a3,100(s0)
    2ff4:	00970e93          	addi	t4,a4,9
    2ff8:	14070713          	addi	a4,a4,320
    2ffc:	009686b3          	add	a3,a3,s1
    3000:	00f68023          	sb	a5,0(a3)
    3004:	06442683          	lw	a3,100(s0)
    3008:	007686b3          	add	a3,a3,t2
    300c:	00f68023          	sb	a5,0(a3)
    3010:	06442683          	lw	a3,100(s0)
    3014:	005686b3          	add	a3,a3,t0
    3018:	00f68023          	sb	a5,0(a3)
    301c:	06442683          	lw	a3,100(s0)
    3020:	01f686b3          	add	a3,a3,t6
    3024:	00f68023          	sb	a5,0(a3)
    3028:	06442683          	lw	a3,100(s0)
    302c:	01e686b3          	add	a3,a3,t5
    3030:	00f68023          	sb	a5,0(a3)
    3034:	06442683          	lw	a3,100(s0)
    3038:	01d686b3          	add	a3,a3,t4
    303c:	00f68023          	sb	a5,0(a3)
    3040:	f6e590e3          	bne	a1,a4,2fa0 <draw_GAMEOVER+0x4fc>
    3044:	00660733          	add	a4,a2,t1
    3048:	06442683          	lw	a3,100(s0)
    304c:	00170f93          	addi	t6,a4,1
    3050:	00270f13          	addi	t5,a4,2
    3054:	00e686b3          	add	a3,a3,a4
    3058:	00f68023          	sb	a5,0(a3)
    305c:	06442683          	lw	a3,100(s0)
    3060:	00370e93          	addi	t4,a4,3
    3064:	00470493          	addi	s1,a4,4
    3068:	01f686b3          	add	a3,a3,t6
    306c:	00f68023          	sb	a5,0(a3)
    3070:	06442683          	lw	a3,100(s0)
    3074:	00570393          	addi	t2,a4,5
    3078:	00670293          	addi	t0,a4,6
    307c:	01e686b3          	add	a3,a3,t5
    3080:	00f68023          	sb	a5,0(a3)
    3084:	06442683          	lw	a3,100(s0)
    3088:	00770f93          	addi	t6,a4,7
    308c:	00870f13          	addi	t5,a4,8
    3090:	01d686b3          	add	a3,a3,t4
    3094:	00f68023          	sb	a5,0(a3)
    3098:	06442683          	lw	a3,100(s0)
    309c:	00970e93          	addi	t4,a4,9
    30a0:	14070713          	addi	a4,a4,320
    30a4:	009686b3          	add	a3,a3,s1
    30a8:	00f68023          	sb	a5,0(a3)
    30ac:	06442683          	lw	a3,100(s0)
    30b0:	007686b3          	add	a3,a3,t2
    30b4:	00f68023          	sb	a5,0(a3)
    30b8:	06442683          	lw	a3,100(s0)
    30bc:	005686b3          	add	a3,a3,t0
    30c0:	00f68023          	sb	a5,0(a3)
    30c4:	06442683          	lw	a3,100(s0)
    30c8:	01f686b3          	add	a3,a3,t6
    30cc:	00f68023          	sb	a5,0(a3)
    30d0:	06442683          	lw	a3,100(s0)
    30d4:	01e686b3          	add	a3,a3,t5
    30d8:	00f68023          	sb	a5,0(a3)
    30dc:	06442683          	lw	a3,100(s0)
    30e0:	01d686b3          	add	a3,a3,t4
    30e4:	00f68023          	sb	a5,0(a3)
    30e8:	f6e610e3          	bne	a2,a4,3048 <draw_GAMEOVER+0x5a4>
    30ec:	00a60613          	addi	a2,a2,10
    30f0:	00a58593          	addi	a1,a1,10
    30f4:	00a50513          	addi	a0,a0,10
    30f8:	df061ee3          	bne	a2,a6,2ef4 <draw_GAMEOVER+0x450>
    30fc:	00812403          	lw	s0,8(sp)
    3100:	00c12083          	lw	ra,12(sp)
    3104:	00412483          	lw	s1,4(sp)
    3108:	01010113          	addi	sp,sp,16
    310c:	a5cff06f          	j	2368 <draw_R>

00003110 <create_background>:
    3110:	000136b7          	lui	a3,0x13
    3114:	00000793          	li	a5,0
    3118:	00004637          	lui	a2,0x4
    311c:	c0068693          	addi	a3,a3,-1024 # 12c00 <__global_pointer+0xe3a3>
    3120:	06462703          	lw	a4,100(a2) # 4064 <VGA>
    3124:	00f70733          	add	a4,a4,a5
    3128:	00a70023          	sb	a0,0(a4)
    312c:	00178793          	addi	a5,a5,1
    3130:	fed798e3          	bne	a5,a3,3120 <create_background+0x10>
    3134:	000047b7          	lui	a5,0x4
    3138:	0607a783          	lw	a5,96(a5) # 4060 <VGA_CTRL>
    313c:	06462703          	lw	a4,100(a2)
    3140:	00e7a223          	sw	a4,4(a5)
    3144:	0007a023          	sw	zero,0(a5)
    3148:	00008067          	ret

0000314c <create_playing_field>:
    314c:	00002e37          	lui	t3,0x2
    3150:	00002337          	lui	t1,0x2
    3154:	00050613          	mv	a2,a0
    3158:	950e0e13          	addi	t3,t3,-1712 # 1950 <draw_E+0x324>
    315c:	01400e93          	li	t4,20
    3160:	000045b7          	lui	a1,0x4
    3164:	90030313          	addi	t1,t1,-1792 # 1900 <draw_E+0x2d4>
    3168:	10400f13          	li	t5,260
    316c:	0dc00f93          	li	t6,220
    3170:	000e0813          	mv	a6,t3
    3174:	03c00893          	li	a7,60
    3178:	00080693          	mv	a3,a6
    317c:	00680533          	add	a0,a6,t1
    3180:	fec68793          	addi	a5,a3,-20
    3184:	0645a703          	lw	a4,100(a1) # 4064 <VGA>
    3188:	00f70733          	add	a4,a4,a5
    318c:	00c70023          	sb	a2,0(a4)
    3190:	00178793          	addi	a5,a5,1
    3194:	fef698e3          	bne	a3,a5,3184 <create_playing_field+0x38>
    3198:	14068693          	addi	a3,a3,320
    319c:	fea692e3          	bne	a3,a0,3180 <create_playing_field+0x34>
    31a0:	01488893          	addi	a7,a7,20
    31a4:	01480813          	addi	a6,a6,20
    31a8:	fde898e3          	bne	a7,t5,3178 <create_playing_field+0x2c>
    31ac:	014e8e93          	addi	t4,t4,20
    31b0:	006e0e33          	add	t3,t3,t1
    31b4:	fbfe9ee3          	bne	t4,t6,3170 <create_playing_field+0x24>
    31b8:	000047b7          	lui	a5,0x4
    31bc:	0607a783          	lw	a5,96(a5) # 4060 <VGA_CTRL>
    31c0:	0645a703          	lw	a4,100(a1)
    31c4:	00e7a223          	sw	a4,4(a5)
    31c8:	0007a023          	sw	zero,0(a5)
    31cc:	00008067          	ret

000031d0 <create_snake>:
    31d0:	000047b7          	lui	a5,0x4
    31d4:	06c78793          	addi	a5,a5,108 # 406c <snake>
    31d8:	00300713          	li	a4,3
    31dc:	00e7a423          	sw	a4,8(a5)
    31e0:	00e7a623          	sw	a4,12(a5)
    31e4:	00100713          	li	a4,1
    31e8:	000066b7          	lui	a3,0x6
    31ec:	00008837          	lui	a6,0x8
    31f0:	00e7a023          	sw	a4,0(a5)
    31f4:	05200713          	li	a4,82
    31f8:	00e78223          	sb	a4,4(a5)
    31fc:	0ff57613          	zext.b	a2,a0
    3200:	48c68693          	addi	a3,a3,1164 # 648c <__global_pointer+0x1c2f>
    3204:	000045b7          	lui	a1,0x4
    3208:	d8c80813          	addi	a6,a6,-628 # 7d8c <__global_pointer+0x352f>
    320c:	fec68793          	addi	a5,a3,-20
    3210:	0645a703          	lw	a4,100(a1) # 4064 <VGA>
    3214:	00f70733          	add	a4,a4,a5
    3218:	00c70023          	sb	a2,0(a4)
    321c:	00178793          	addi	a5,a5,1
    3220:	fed798e3          	bne	a5,a3,3210 <create_snake+0x40>
    3224:	14078693          	addi	a3,a5,320
    3228:	ff0692e3          	bne	a3,a6,320c <create_snake+0x3c>
    322c:	000047b7          	lui	a5,0x4
    3230:	0607a783          	lw	a5,96(a5) # 4060 <VGA_CTRL>
    3234:	0645a703          	lw	a4,100(a1)
    3238:	00e7a223          	sw	a4,4(a5)
    323c:	0007a023          	sw	zero,0(a5)
    3240:	00008067          	ret

00003244 <lengthen_snake>:
    3244:	00004737          	lui	a4,0x4
    3248:	3a070713          	addi	a4,a4,928 # 43a0 <snake_tail>
    324c:	00472e03          	lw	t3,4(a4)
    3250:	000027b7          	lui	a5,0x2
    3254:	90078793          	addi	a5,a5,-1792 # 1900 <draw_E+0x2d4>
    3258:	001e0593          	addi	a1,t3,1
    325c:	02f585b3          	mul	a1,a1,a5
    3260:	00072303          	lw	t1,0(a4)
    3264:	00004637          	lui	a2,0x4
    3268:	06c60613          	addi	a2,a2,108 # 406c <snake>
    326c:	00062683          	lw	a3,0(a2)
    3270:	00231713          	slli	a4,t1,0x2
    3274:	00670733          	add	a4,a4,t1
    3278:	00271713          	slli	a4,a4,0x2
    327c:	00369813          	slli	a6,a3,0x3
    3280:	000038b7          	lui	a7,0x3
    3284:	40f58533          	sub	a0,a1,a5
    3288:	01060833          	add	a6,a2,a6
    328c:	00168793          	addi	a5,a3,1
    3290:	00e50533          	add	a0,a0,a4
    3294:	05070693          	addi	a3,a4,80
    3298:	25088893          	addi	a7,a7,592 # 3250 <lengthen_snake+0xc>
    329c:	00f62023          	sw	a5,0(a2)
    32a0:	00b686b3          	add	a3,a3,a1
    32a4:	00682423          	sw	t1,8(a6)
    32a8:	01c82623          	sw	t3,12(a6)
    32ac:	01150533          	add	a0,a0,a7
    32b0:	000045b7          	lui	a1,0x4
    32b4:	01c00613          	li	a2,28
    32b8:	fec68793          	addi	a5,a3,-20
    32bc:	0645a703          	lw	a4,100(a1) # 4064 <VGA>
    32c0:	00f70733          	add	a4,a4,a5
    32c4:	00c70023          	sb	a2,0(a4)
    32c8:	00178793          	addi	a5,a5,1
    32cc:	fed798e3          	bne	a5,a3,32bc <lengthen_snake+0x78>
    32d0:	14078693          	addi	a3,a5,320
    32d4:	fea692e3          	bne	a3,a0,32b8 <lengthen_snake+0x74>
    32d8:	00008067          	ret

000032dc <increment_score>:
    32dc:	000047b7          	lui	a5,0x4
    32e0:	3947a503          	lw	a0,916(a5) # 4394 <score>
    32e4:	00150513          	addi	a0,a0,1
    32e8:	38a7aa23          	sw	a0,916(a5)
    32ec:	ef5fc06f          	j	1e0 <set_score>

000032f0 <game_over>:
    32f0:	000047b7          	lui	a5,0x4
    32f4:	ff010113          	addi	sp,sp,-16
    32f8:	000136b7          	lui	a3,0x13
    32fc:	3807ae23          	sw	zero,924(a5) # 439c <run>
    3300:	000047b7          	lui	a5,0x4
    3304:	00812423          	sw	s0,8(sp)
    3308:	3807aa23          	sw	zero,916(a5) # 4394 <score>
    330c:	00112623          	sw	ra,12(sp)
    3310:	00912223          	sw	s1,4(sp)
    3314:	00000793          	li	a5,0
    3318:	00004437          	lui	s0,0x4
    331c:	c0068693          	addi	a3,a3,-1024 # 12c00 <__global_pointer+0xe3a3>
    3320:	06442703          	lw	a4,100(s0) # 4064 <VGA>
    3324:	00f70733          	add	a4,a4,a5
    3328:	00070023          	sb	zero,0(a4)
    332c:	00178793          	addi	a5,a5,1
    3330:	fed798e3          	bne	a5,a3,3320 <game_over+0x30>
    3334:	000044b7          	lui	s1,0x4
    3338:	0604a783          	lw	a5,96(s1) # 4060 <VGA_CTRL>
    333c:	06442703          	lw	a4,100(s0)
    3340:	00e7a223          	sw	a4,4(a5)
    3344:	0007a023          	sw	zero,0(a5)
    3348:	f5cff0ef          	jal	2aa4 <draw_GAMEOVER>
    334c:	0604a783          	lw	a5,96(s1)
    3350:	06442703          	lw	a4,100(s0)
    3354:	00c12083          	lw	ra,12(sp)
    3358:	00812403          	lw	s0,8(sp)
    335c:	00e7a223          	sw	a4,4(a5)
    3360:	0007a023          	sw	zero,0(a5)
    3364:	00412483          	lw	s1,4(sp)
    3368:	01010113          	addi	sp,sp,16
    336c:	00008067          	ret

00003370 <victory>:
    3370:	000047b7          	lui	a5,0x4
    3374:	000136b7          	lui	a3,0x13
    3378:	3807ae23          	sw	zero,924(a5) # 439c <run>
    337c:	00004637          	lui	a2,0x4
    3380:	00000793          	li	a5,0
    3384:	00200593          	li	a1,2
    3388:	c0068693          	addi	a3,a3,-1024 # 12c00 <__global_pointer+0xe3a3>
    338c:	06462703          	lw	a4,100(a2) # 4064 <VGA>
    3390:	00f70733          	add	a4,a4,a5
    3394:	00b70023          	sb	a1,0(a4)
    3398:	00178793          	addi	a5,a5,1
    339c:	fed798e3          	bne	a5,a3,338c <victory+0x1c>
    33a0:	000047b7          	lui	a5,0x4
    33a4:	0607a783          	lw	a5,96(a5) # 4060 <VGA_CTRL>
    33a8:	06462703          	lw	a4,100(a2)
    33ac:	00e7a223          	sw	a4,4(a5)
    33b0:	0007a023          	sw	zero,0(a5)
    33b4:	00008067          	ret

000033b8 <move_snake>:
    33b8:	00004837          	lui	a6,0x4
    33bc:	06c80813          	addi	a6,a6,108 # 406c <snake>
    33c0:	00082703          	lw	a4,0(a6)
    33c4:	000027b7          	lui	a5,0x2
    33c8:	90078793          	addi	a5,a5,-1792 # 1900 <draw_E+0x2d4>
    33cc:	fff70713          	addi	a4,a4,-1
    33d0:	00371713          	slli	a4,a4,0x3
    33d4:	00e80733          	add	a4,a6,a4
    33d8:	00c72303          	lw	t1,12(a4)
    33dc:	00872883          	lw	a7,8(a4)
    33e0:	000045b7          	lui	a1,0x4
    33e4:	00130613          	addi	a2,t1,1
    33e8:	02f60633          	mul	a2,a2,a5
    33ec:	00289713          	slli	a4,a7,0x2
    33f0:	3a058593          	addi	a1,a1,928 # 43a0 <snake_tail>
    33f4:	01170733          	add	a4,a4,a7
    33f8:	00271713          	slli	a4,a4,0x2
    33fc:	00003537          	lui	a0,0x3
    3400:	0115a023          	sw	a7,0(a1)
    3404:	0065a223          	sw	t1,4(a1)
    3408:	05070693          	addi	a3,a4,80
    340c:	25050513          	addi	a0,a0,592 # 3250 <lengthen_snake+0xc>
    3410:	40f605b3          	sub	a1,a2,a5
    3414:	00e585b3          	add	a1,a1,a4
    3418:	00c686b3          	add	a3,a3,a2
    341c:	00a585b3          	add	a1,a1,a0
    3420:	00004637          	lui	a2,0x4
    3424:	fec68793          	addi	a5,a3,-20
    3428:	06462703          	lw	a4,100(a2) # 4064 <VGA>
    342c:	00f70733          	add	a4,a4,a5
    3430:	00070023          	sb	zero,0(a4)
    3434:	00178793          	addi	a5,a5,1
    3438:	fef698e3          	bne	a3,a5,3428 <move_snake+0x70>
    343c:	14068693          	addi	a3,a3,320
    3440:	fed592e3          	bne	a1,a3,3424 <move_snake+0x6c>
    3444:	00082703          	lw	a4,0(a6)
    3448:	00100793          	li	a5,1
    344c:	10e7da63          	bge	a5,a4,3560 <move_snake+0x1a8>
    3450:	00371793          	slli	a5,a4,0x3
    3454:	00f807b3          	add	a5,a6,a5
    3458:	00880893          	addi	a7,a6,8
    345c:	ff87a583          	lw	a1,-8(a5)
    3460:	ffc7a683          	lw	a3,-4(a5)
    3464:	ff878793          	addi	a5,a5,-8
    3468:	00b7a423          	sw	a1,8(a5)
    346c:	00d7a623          	sw	a3,12(a5)
    3470:	fef896e3          	bne	a7,a5,345c <move_snake+0xa4>
    3474:	00484783          	lbu	a5,4(a6)
    3478:	05200693          	li	a3,82
    347c:	0cd78a63          	beq	a5,a3,3550 <move_snake+0x198>
    3480:	0af6ec63          	bltu	a3,a5,3538 <move_snake+0x180>
    3484:	04400693          	li	a3,68
    3488:	0ad78063          	beq	a5,a3,3528 <move_snake+0x170>
    348c:	04c00693          	li	a3,76
    3490:	00d79863          	bne	a5,a3,34a0 <move_snake+0xe8>
    3494:	00882783          	lw	a5,8(a6)
    3498:	fff78793          	addi	a5,a5,-1
    349c:	00f82423          	sw	a5,8(a6)
    34a0:	08e05263          	blez	a4,3524 <move_snake+0x16c>
    34a4:	000048b7          	lui	a7,0x4
    34a8:	07488893          	addi	a7,a7,116 # 4074 <snake+0x8>
    34ac:	00002337          	lui	t1,0x2
    34b0:	00003eb7          	lui	t4,0x3
    34b4:	00000e13          	li	t3,0
    34b8:	90030313          	addi	t1,t1,-1792 # 1900 <draw_E+0x2d4>
    34bc:	250e8e93          	addi	t4,t4,592 # 3250 <lengthen_snake+0xc>
    34c0:	01c00593          	li	a1,28
    34c4:	0048a783          	lw	a5,4(a7)
    34c8:	0008a683          	lw	a3,0(a7)
    34cc:	00178793          	addi	a5,a5,1
    34d0:	026787b3          	mul	a5,a5,t1
    34d4:	00269713          	slli	a4,a3,0x2
    34d8:	00d70733          	add	a4,a4,a3
    34dc:	00271713          	slli	a4,a4,0x2
    34e0:	05070693          	addi	a3,a4,80
    34e4:	40678533          	sub	a0,a5,t1
    34e8:	00e50533          	add	a0,a0,a4
    34ec:	00f686b3          	add	a3,a3,a5
    34f0:	01d50533          	add	a0,a0,t4
    34f4:	fec68793          	addi	a5,a3,-20
    34f8:	06462703          	lw	a4,100(a2)
    34fc:	00f70733          	add	a4,a4,a5
    3500:	00b70023          	sb	a1,0(a4)
    3504:	00178793          	addi	a5,a5,1
    3508:	fef698e3          	bne	a3,a5,34f8 <move_snake+0x140>
    350c:	14068693          	addi	a3,a3,320
    3510:	fed512e3          	bne	a0,a3,34f4 <move_snake+0x13c>
    3514:	00082783          	lw	a5,0(a6)
    3518:	001e0e13          	addi	t3,t3,1
    351c:	00888893          	addi	a7,a7,8
    3520:	fafe42e3          	blt	t3,a5,34c4 <move_snake+0x10c>
    3524:	00008067          	ret
    3528:	00c82783          	lw	a5,12(a6)
    352c:	00178793          	addi	a5,a5,1
    3530:	00f82623          	sw	a5,12(a6)
    3534:	f6dff06f          	j	34a0 <move_snake+0xe8>
    3538:	05500693          	li	a3,85
    353c:	f6d798e3          	bne	a5,a3,34ac <move_snake+0xf4>
    3540:	00c82783          	lw	a5,12(a6)
    3544:	fff78793          	addi	a5,a5,-1
    3548:	00f82623          	sw	a5,12(a6)
    354c:	f55ff06f          	j	34a0 <move_snake+0xe8>
    3550:	00882783          	lw	a5,8(a6)
    3554:	00178793          	addi	a5,a5,1
    3558:	00f82423          	sw	a5,8(a6)
    355c:	f51ff06f          	j	34ac <move_snake+0xf4>
    3560:	00484783          	lbu	a5,4(a6)
    3564:	05200693          	li	a3,82
    3568:	00d78a63          	beq	a5,a3,357c <move_snake+0x1c4>
    356c:	f0f6fce3          	bgeu	a3,a5,3484 <move_snake+0xcc>
    3570:	05500693          	li	a3,85
    3574:	fcd786e3          	beq	a5,a3,3540 <move_snake+0x188>
    3578:	f29ff06f          	j	34a0 <move_snake+0xe8>
    357c:	00882783          	lw	a5,8(a6)
    3580:	00178793          	addi	a5,a5,1
    3584:	00f82423          	sw	a5,8(a6)
    3588:	f19ff06f          	j	34a0 <move_snake+0xe8>

0000358c <change_direction>:
    358c:	05200713          	li	a4,82
    3590:	02e50e63          	beq	a0,a4,35cc <change_direction+0x40>
    3594:	04c00793          	li	a5,76
    3598:	00f50463          	beq	a0,a5,35a0 <change_direction+0x14>
    359c:	00008067          	ret
    35a0:	000047b7          	lui	a5,0x4
    35a4:	06c78793          	addi	a5,a5,108 # 406c <snake>
    35a8:	0047c683          	lbu	a3,4(a5)
    35ac:	04e68263          	beq	a3,a4,35f0 <change_direction+0x64>
    35b0:	06d76063          	bltu	a4,a3,3610 <change_direction+0x84>
    35b4:	04400713          	li	a4,68
    35b8:	04e68663          	beq	a3,a4,3604 <change_direction+0x78>
    35bc:	06a69463          	bne	a3,a0,3624 <change_direction+0x98>
    35c0:	04400713          	li	a4,68
    35c4:	00e78223          	sb	a4,4(a5)
    35c8:	00008067          	ret
    35cc:	000047b7          	lui	a5,0x4
    35d0:	06c78793          	addi	a5,a5,108 # 406c <snake>
    35d4:	0047c703          	lbu	a4,4(a5)
    35d8:	fea704e3          	beq	a4,a0,35c0 <change_direction+0x34>
    35dc:	02e56063          	bltu	a0,a4,35fc <change_direction+0x70>
    35e0:	04400693          	li	a3,68
    35e4:	02d70a63          	beq	a4,a3,3618 <change_direction+0x8c>
    35e8:	04c00693          	li	a3,76
    35ec:	04d71063          	bne	a4,a3,362c <change_direction+0xa0>
    35f0:	05500713          	li	a4,85
    35f4:	00e78223          	sb	a4,4(a5)
    35f8:	00008067          	ret
    35fc:	05500693          	li	a3,85
    3600:	02d71463          	bne	a4,a3,3628 <change_direction+0x9c>
    3604:	05200713          	li	a4,82
    3608:	00e78223          	sb	a4,4(a5)
    360c:	00008067          	ret
    3610:	05500713          	li	a4,85
    3614:	f8e694e3          	bne	a3,a4,359c <change_direction+0x10>
    3618:	04c00713          	li	a4,76
    361c:	00e78223          	sb	a4,4(a5)
    3620:	00008067          	ret
    3624:	00008067          	ret
    3628:	00008067          	ret
    362c:	00008067          	ret

00003630 <is_head_on_body>:
    3630:	000047b7          	lui	a5,0x4
    3634:	06c78793          	addi	a5,a5,108 # 406c <snake>
    3638:	0007a603          	lw	a2,0(a5)
    363c:	00100713          	li	a4,1
    3640:	02c75c63          	bge	a4,a2,3678 <is_head_on_body+0x48>
    3644:	0087a583          	lw	a1,8(a5)
    3648:	00c7a503          	lw	a0,12(a5)
    364c:	01078793          	addi	a5,a5,16
    3650:	00c0006f          	j	365c <is_head_on_body+0x2c>
    3654:	00878793          	addi	a5,a5,8
    3658:	02c70063          	beq	a4,a2,3678 <is_head_on_body+0x48>
    365c:	0007a683          	lw	a3,0(a5)
    3660:	00170713          	addi	a4,a4,1
    3664:	fed598e3          	bne	a1,a3,3654 <is_head_on_body+0x24>
    3668:	0047a683          	lw	a3,4(a5)
    366c:	fed514e3          	bne	a0,a3,3654 <is_head_on_body+0x24>
    3670:	00100513          	li	a0,1
    3674:	00008067          	ret
    3678:	00000513          	li	a0,0
    367c:	00008067          	ret

00003680 <is_head_outside_map>:
    3680:	000047b7          	lui	a5,0x4
    3684:	06c78793          	addi	a5,a5,108 # 406c <snake>
    3688:	0087a683          	lw	a3,8(a5)
    368c:	00900713          	li	a4,9
    3690:	00100513          	li	a0,1
    3694:	00d76863          	bltu	a4,a3,36a4 <is_head_outside_map+0x24>
    3698:	00c7a503          	lw	a0,12(a5)
    369c:	00a53513          	sltiu	a0,a0,10
    36a0:	00153513          	seqz	a0,a0
    36a4:	00008067          	ret

000036a8 <is_head_on_apple>:
    36a8:	000047b7          	lui	a5,0x4
    36ac:	06c78793          	addi	a5,a5,108 # 406c <snake>
    36b0:	0087a683          	lw	a3,8(a5)
    36b4:	00052703          	lw	a4,0(a0)
    36b8:	00e68663          	beq	a3,a4,36c4 <is_head_on_apple+0x1c>
    36bc:	00000513          	li	a0,0
    36c0:	00008067          	ret
    36c4:	00452503          	lw	a0,4(a0)
    36c8:	00c7a783          	lw	a5,12(a5)
    36cc:	40f50533          	sub	a0,a0,a5
    36d0:	00153513          	seqz	a0,a0
    36d4:	00008067          	ret

000036d8 <is_block_snake>:
    36d8:	000047b7          	lui	a5,0x4
    36dc:	06c78793          	addi	a5,a5,108 # 406c <snake>
    36e0:	0007a603          	lw	a2,0(a5)
    36e4:	02c05a63          	blez	a2,3718 <is_block_snake+0x40>
    36e8:	00878793          	addi	a5,a5,8
    36ec:	00000713          	li	a4,0
    36f0:	00c0006f          	j	36fc <is_block_snake+0x24>
    36f4:	00878793          	addi	a5,a5,8
    36f8:	02c70063          	beq	a4,a2,3718 <is_block_snake+0x40>
    36fc:	0007a683          	lw	a3,0(a5)
    3700:	00170713          	addi	a4,a4,1
    3704:	fea698e3          	bne	a3,a0,36f4 <is_block_snake+0x1c>
    3708:	0047a683          	lw	a3,4(a5)
    370c:	feb694e3          	bne	a3,a1,36f4 <is_block_snake+0x1c>
    3710:	00100513          	li	a0,1
    3714:	00008067          	ret
    3718:	00000513          	li	a0,0
    371c:	00008067          	ret

00003720 <spawn_apple>:
    3720:	000046b7          	lui	a3,0x4
    3724:	0686a783          	lw	a5,104(a3) # 4068 <random_number_seed>
    3728:	004dc737          	lui	a4,0x4dc
    372c:	70170713          	addi	a4,a4,1793 # 4dc701 <_stack_end+0x3d82b9>
    3730:	02e787b3          	mul	a5,a5,a4
    3734:	00014737          	lui	a4,0x14
    3738:	e2070713          	addi	a4,a4,-480 # 13e20 <__global_pointer+0xf5c3>
    373c:	00004e37          	lui	t3,0x4
    3740:	398e2803          	lw	a6,920(t3) # 4398 <apple_exists>
    3744:	00058613          	mv	a2,a1
    3748:	00e78eb3          	add	t4,a5,a4
    374c:	00ce9e93          	slli	t4,t4,0xc
    3750:	00cede93          	srli	t4,t4,0xc
    3754:	07d6a423          	sw	t4,104(a3)
    3758:	0e081663          	bnez	a6,3844 <spawn_apple+0x124>
    375c:	00a00793          	li	a5,10
    3760:	02fefeb3          	remu	t4,t4,a5
    3764:	000047b7          	lui	a5,0x4
    3768:	06c7a803          	lw	a6,108(a5) # 406c <snake>
    376c:	00004f37          	lui	t5,0x4
    3770:	00a00293          	li	t0,10
    3774:	074f0f13          	addi	t5,t5,116 # 4074 <snake+0x8>
    3778:	00ae8f93          	addi	t6,t4,10
    377c:	000e8393          	mv	t2,t4
    3780:	0253e8b3          	rem	a7,t2,t0
    3784:	000e8593          	mv	a1,t4
    3788:	05005063          	blez	a6,37c8 <spawn_apple+0xa8>
    378c:	000e8313          	mv	t1,t4
    3790:	000f0793          	mv	a5,t5
    3794:	00000713          	li	a4,0
    3798:	00c0006f          	j	37a4 <spawn_apple+0x84>
    379c:	00878793          	addi	a5,a5,8
    37a0:	03070463          	beq	a4,a6,37c8 <spawn_apple+0xa8>
    37a4:	0007a683          	lw	a3,0(a5)
    37a8:	00170713          	addi	a4,a4,1
    37ac:	fed598e3          	bne	a1,a3,379c <spawn_apple+0x7c>
    37b0:	0047a683          	lw	a3,4(a5)
    37b4:	fed894e3          	bne	a7,a3,379c <spawn_apple+0x7c>
    37b8:	00130313          	addi	t1,t1,1
    37bc:	09f30063          	beq	t1,t6,383c <spawn_apple+0x11c>
    37c0:	025365b3          	rem	a1,t1,t0
    37c4:	fcdff06f          	j	3790 <spawn_apple+0x70>
    37c8:	000027b7          	lui	a5,0x2
    37cc:	90078793          	addi	a5,a5,-1792 # 1900 <draw_E+0x2d4>
    37d0:	00188813          	addi	a6,a7,1
    37d4:	02f80833          	mul	a6,a6,a5
    37d8:	00259713          	slli	a4,a1,0x2
    37dc:	00b70733          	add	a4,a4,a1
    37e0:	00271713          	slli	a4,a4,0x2
    37e4:	00b52023          	sw	a1,0(a0)
    37e8:	00003337          	lui	t1,0x3
    37ec:	01152223          	sw	a7,4(a0)
    37f0:	05070693          	addi	a3,a4,80
    37f4:	25030313          	addi	t1,t1,592 # 3250 <lengthen_snake+0xc>
    37f8:	0ff67613          	zext.b	a2,a2
    37fc:	40f80533          	sub	a0,a6,a5
    3800:	00e50533          	add	a0,a0,a4
    3804:	010686b3          	add	a3,a3,a6
    3808:	00650533          	add	a0,a0,t1
    380c:	000045b7          	lui	a1,0x4
    3810:	fec68793          	addi	a5,a3,-20
    3814:	0645a703          	lw	a4,100(a1) # 4064 <VGA>
    3818:	00f70733          	add	a4,a4,a5
    381c:	00c70023          	sb	a2,0(a4)
    3820:	00178793          	addi	a5,a5,1
    3824:	fef698e3          	bne	a3,a5,3814 <spawn_apple+0xf4>
    3828:	14068693          	addi	a3,a3,320
    382c:	fea692e3          	bne	a3,a0,3810 <spawn_apple+0xf0>
    3830:	00100793          	li	a5,1
    3834:	38fe2c23          	sw	a5,920(t3)
    3838:	00008067          	ret
    383c:	00138393          	addi	t2,t2,1
    3840:	f5f390e3          	bne	t2,t6,3780 <spawn_apple+0x60>
    3844:	00008067          	ret

00003848 <create_first_apple>:
    3848:	00500793          	li	a5,5
    384c:	000096b7          	lui	a3,0x9
    3850:	0000b837          	lui	a6,0xb
    3854:	0ff5f613          	zext.b	a2,a1
    3858:	00f52023          	sw	a5,0(a0)
    385c:	00f52223          	sw	a5,4(a0)
    3860:	6b468693          	addi	a3,a3,1716 # 96b4 <__global_pointer+0x4e57>
    3864:	000045b7          	lui	a1,0x4
    3868:	fb480813          	addi	a6,a6,-76 # afb4 <__global_pointer+0x6757>
    386c:	fec68793          	addi	a5,a3,-20
    3870:	0645a703          	lw	a4,100(a1) # 4064 <VGA>
    3874:	00f70733          	add	a4,a4,a5
    3878:	00c70023          	sb	a2,0(a4)
    387c:	00178793          	addi	a5,a5,1
    3880:	fed798e3          	bne	a5,a3,3870 <create_first_apple+0x28>
    3884:	14078693          	addi	a3,a5,320
    3888:	ff0692e3          	bne	a3,a6,386c <create_first_apple+0x24>
    388c:	000047b7          	lui	a5,0x4
    3890:	00100713          	li	a4,1
    3894:	38e7ac23          	sw	a4,920(a5) # 4398 <apple_exists>
    3898:	00008067          	ret

0000389c <check_collision>:
    389c:	00004837          	lui	a6,0x4
    38a0:	06c80813          	addi	a6,a6,108 # 406c <snake>
    38a4:	00882603          	lw	a2,8(a6)
    38a8:	ff010113          	addi	sp,sp,-16
    38ac:	00112623          	sw	ra,12(sp)
    38b0:	00912223          	sw	s1,4(sp)
    38b4:	00900793          	li	a5,9
    38b8:	0ac7ea63          	bltu	a5,a2,396c <check_collision+0xd0>
    38bc:	00c82883          	lw	a7,12(a6)
    38c0:	0b17e663          	bltu	a5,a7,396c <check_collision+0xd0>
    38c4:	00082583          	lw	a1,0(a6)
    38c8:	00100713          	li	a4,1
    38cc:	00050493          	mv	s1,a0
    38d0:	01080793          	addi	a5,a6,16
    38d4:	00b74863          	blt	a4,a1,38e4 <check_collision+0x48>
    38d8:	0d00006f          	j	39a8 <check_collision+0x10c>
    38dc:	00878793          	addi	a5,a5,8
    38e0:	0cb70463          	beq	a4,a1,39a8 <check_collision+0x10c>
    38e4:	0007a683          	lw	a3,0(a5)
    38e8:	00170713          	addi	a4,a4,1
    38ec:	fed618e3          	bne	a2,a3,38dc <check_collision+0x40>
    38f0:	0047a683          	lw	a3,4(a5)
    38f4:	fed894e3          	bne	a7,a3,38dc <check_collision+0x40>
    38f8:	000047b7          	lui	a5,0x4
    38fc:	000136b7          	lui	a3,0x13
    3900:	3807ae23          	sw	zero,924(a5) # 439c <run>
    3904:	000047b7          	lui	a5,0x4
    3908:	00812423          	sw	s0,8(sp)
    390c:	3807aa23          	sw	zero,916(a5) # 4394 <score>
    3910:	00004437          	lui	s0,0x4
    3914:	00000793          	li	a5,0
    3918:	c0068693          	addi	a3,a3,-1024 # 12c00 <__global_pointer+0xe3a3>
    391c:	06442703          	lw	a4,100(s0) # 4064 <VGA>
    3920:	00f70733          	add	a4,a4,a5
    3924:	00070023          	sb	zero,0(a4)
    3928:	00178793          	addi	a5,a5,1
    392c:	fed798e3          	bne	a5,a3,391c <check_collision+0x80>
    3930:	000044b7          	lui	s1,0x4
    3934:	06442703          	lw	a4,100(s0)
    3938:	0604a783          	lw	a5,96(s1) # 4060 <VGA_CTRL>
    393c:	00e7a223          	sw	a4,4(a5)
    3940:	0007a023          	sw	zero,0(a5)
    3944:	960ff0ef          	jal	2aa4 <draw_GAMEOVER>
    3948:	06442703          	lw	a4,100(s0)
    394c:	0604a783          	lw	a5,96(s1)
    3950:	00812403          	lw	s0,8(sp)
    3954:	00e7a223          	sw	a4,4(a5)
    3958:	0007a023          	sw	zero,0(a5)
    395c:	00c12083          	lw	ra,12(sp)
    3960:	00412483          	lw	s1,4(sp)
    3964:	01010113          	addi	sp,sp,16
    3968:	00008067          	ret
    396c:	000047b7          	lui	a5,0x4
    3970:	000136b7          	lui	a3,0x13
    3974:	3807ae23          	sw	zero,924(a5) # 439c <run>
    3978:	000047b7          	lui	a5,0x4
    397c:	00812423          	sw	s0,8(sp)
    3980:	3807aa23          	sw	zero,916(a5) # 4394 <score>
    3984:	00004437          	lui	s0,0x4
    3988:	00000793          	li	a5,0
    398c:	c0068693          	addi	a3,a3,-1024 # 12c00 <__global_pointer+0xe3a3>
    3990:	06442703          	lw	a4,100(s0) # 4064 <VGA>
    3994:	00f70733          	add	a4,a4,a5
    3998:	00070023          	sb	zero,0(a4)
    399c:	00178793          	addi	a5,a5,1
    39a0:	fed798e3          	bne	a5,a3,3990 <check_collision+0xf4>
    39a4:	f8dff06f          	j	3930 <check_collision+0x94>
    39a8:	0004a783          	lw	a5,0(s1)
    39ac:	faf618e3          	bne	a2,a5,395c <check_collision+0xc0>
    39b0:	0044a783          	lw	a5,4(s1)
    39b4:	faf894e3          	bne	a7,a5,395c <check_collision+0xc0>
    39b8:	00004737          	lui	a4,0x4
    39bc:	3a070713          	addi	a4,a4,928 # 43a0 <snake_tail>
    39c0:	00472e03          	lw	t3,4(a4)
    39c4:	000027b7          	lui	a5,0x2
    39c8:	90078793          	addi	a5,a5,-1792 # 1900 <draw_E+0x2d4>
    39cc:	001e0613          	addi	a2,t3,1
    39d0:	02f60633          	mul	a2,a2,a5
    39d4:	00072303          	lw	t1,0(a4)
    39d8:	00359513          	slli	a0,a1,0x3
    39dc:	000038b7          	lui	a7,0x3
    39e0:	00231713          	slli	a4,t1,0x2
    39e4:	00670733          	add	a4,a4,t1
    39e8:	00271713          	slli	a4,a4,0x2
    39ec:	00812423          	sw	s0,8(sp)
    39f0:	01212023          	sw	s2,0(sp)
    39f4:	00a80533          	add	a0,a6,a0
    39f8:	40f607b3          	sub	a5,a2,a5
    39fc:	00158593          	addi	a1,a1,1
    3a00:	00004937          	lui	s2,0x4
    3a04:	05070693          	addi	a3,a4,80
    3a08:	00e787b3          	add	a5,a5,a4
    3a0c:	25088893          	addi	a7,a7,592 # 3250 <lengthen_snake+0xc>
    3a10:	00b82023          	sw	a1,0(a6)
    3a14:	00c686b3          	add	a3,a3,a2
    3a18:	38092c23          	sw	zero,920(s2) # 4398 <apple_exists>
    3a1c:	00652423          	sw	t1,8(a0)
    3a20:	01c52623          	sw	t3,12(a0)
    3a24:	011785b3          	add	a1,a5,a7
    3a28:	00004437          	lui	s0,0x4
    3a2c:	01c00613          	li	a2,28
    3a30:	fec68793          	addi	a5,a3,-20
    3a34:	06442703          	lw	a4,100(s0) # 4064 <VGA>
    3a38:	00f70733          	add	a4,a4,a5
    3a3c:	00c70023          	sb	a2,0(a4)
    3a40:	00178793          	addi	a5,a5,1
    3a44:	fef698e3          	bne	a3,a5,3a34 <check_collision+0x198>
    3a48:	14068693          	addi	a3,a3,320
    3a4c:	feb692e3          	bne	a3,a1,3a30 <check_collision+0x194>
    3a50:	000047b7          	lui	a5,0x4
    3a54:	3947a503          	lw	a0,916(a5) # 4394 <score>
    3a58:	00150513          	addi	a0,a0,1
    3a5c:	38a7aa23          	sw	a0,916(a5)
    3a60:	f80fc0ef          	jal	1e0 <set_score>
    3a64:	39892783          	lw	a5,920(s2)
    3a68:	00079c63          	bnez	a5,3a80 <check_collision+0x1e4>
    3a6c:	0ec00593          	li	a1,236
    3a70:	00048513          	mv	a0,s1
    3a74:	cadff0ef          	jal	3720 <spawn_apple>
    3a78:	39892783          	lw	a5,920(s2)
    3a7c:	fe0788e3          	beqz	a5,3a6c <check_collision+0x1d0>
    3a80:	00812403          	lw	s0,8(sp)
    3a84:	00012903          	lw	s2,0(sp)
    3a88:	ed5ff06f          	j	395c <check_collision+0xc0>

00003a8c <game_init>:
    3a8c:	ff010113          	addi	sp,sp,-16
    3a90:	000047b7          	lui	a5,0x4
    3a94:	000136b7          	lui	a3,0x13
    3a98:	00100713          	li	a4,1
    3a9c:	00812423          	sw	s0,8(sp)
    3aa0:	38e7ae23          	sw	a4,924(a5) # 439c <run>
    3aa4:	00112623          	sw	ra,12(sp)
    3aa8:	00912223          	sw	s1,4(sp)
    3aac:	00000793          	li	a5,0
    3ab0:	00004437          	lui	s0,0x4
    3ab4:	fe000613          	li	a2,-32
    3ab8:	c0068693          	addi	a3,a3,-1024 # 12c00 <__global_pointer+0xe3a3>
    3abc:	06442703          	lw	a4,100(s0) # 4064 <VGA>
    3ac0:	00f70733          	add	a4,a4,a5
    3ac4:	00c70023          	sb	a2,0(a4)
    3ac8:	00178793          	addi	a5,a5,1
    3acc:	fed798e3          	bne	a5,a3,3abc <game_init+0x30>
    3ad0:	000044b7          	lui	s1,0x4
    3ad4:	06442703          	lw	a4,100(s0)
    3ad8:	0604a783          	lw	a5,96(s1) # 4060 <VGA_CTRL>
    3adc:	00003537          	lui	a0,0x3
    3ae0:	ffffe837          	lui	a6,0xffffe
    3ae4:	00e7a223          	sw	a4,4(a5)
    3ae8:	000028b7          	lui	a7,0x2
    3aec:	0007a023          	sw	zero,0(a5)
    3af0:	25050513          	addi	a0,a0,592 # 3250 <lengthen_snake+0xc>
    3af4:	01400313          	li	t1,20
    3af8:	70080813          	addi	a6,a6,1792 # ffffe700 <_stack_end+0xffefa2b8>
    3afc:	10400e13          	li	t3,260
    3b00:	90088893          	addi	a7,a7,-1792 # 1900 <draw_E+0x2d4>
    3b04:	0dc00e93          	li	t4,220
    3b08:	00050613          	mv	a2,a0
    3b0c:	03c00593          	li	a1,60
    3b10:	010606b3          	add	a3,a2,a6
    3b14:	fec68793          	addi	a5,a3,-20
    3b18:	00f70733          	add	a4,a4,a5
    3b1c:	00070023          	sb	zero,0(a4)
    3b20:	fed68793          	addi	a5,a3,-19
    3b24:	06442703          	lw	a4,100(s0)
    3b28:	00f70733          	add	a4,a4,a5
    3b2c:	00070023          	sb	zero,0(a4)
    3b30:	00178793          	addi	a5,a5,1
    3b34:	fed798e3          	bne	a5,a3,3b24 <game_init+0x98>
    3b38:	14078693          	addi	a3,a5,320
    3b3c:	06442703          	lw	a4,100(s0)
    3b40:	fcc69ae3          	bne	a3,a2,3b14 <game_init+0x88>
    3b44:	01458593          	addi	a1,a1,20
    3b48:	15478613          	addi	a2,a5,340
    3b4c:	fdc592e3          	bne	a1,t3,3b10 <game_init+0x84>
    3b50:	01430313          	addi	t1,t1,20
    3b54:	01150533          	add	a0,a0,a7
    3b58:	fbd318e3          	bne	t1,t4,3b08 <game_init+0x7c>
    3b5c:	0604a783          	lw	a5,96(s1)
    3b60:	00e7a223          	sw	a4,4(a5)
    3b64:	0007a023          	sw	zero,0(a5)
    3b68:	e40fc0ef          	jal	1a8 <init_display>
    3b6c:	000047b7          	lui	a5,0x4
    3b70:	3a878793          	addi	a5,a5,936 # 43a8 <apple>
    3b74:	00500713          	li	a4,5
    3b78:	000096b7          	lui	a3,0x9
    3b7c:	0000b5b7          	lui	a1,0xb
    3b80:	00e7a023          	sw	a4,0(a5)
    3b84:	00e7a223          	sw	a4,4(a5)
    3b88:	6b468693          	addi	a3,a3,1716 # 96b4 <__global_pointer+0x4e57>
    3b8c:	fec00613          	li	a2,-20
    3b90:	fb458593          	addi	a1,a1,-76 # afb4 <__global_pointer+0x6757>
    3b94:	fec68793          	addi	a5,a3,-20
    3b98:	06442703          	lw	a4,100(s0)
    3b9c:	00f70733          	add	a4,a4,a5
    3ba0:	00c70023          	sb	a2,0(a4)
    3ba4:	00178793          	addi	a5,a5,1
    3ba8:	fef698e3          	bne	a3,a5,3b98 <game_init+0x10c>
    3bac:	14068693          	addi	a3,a3,320
    3bb0:	feb692e3          	bne	a3,a1,3b94 <game_init+0x108>
    3bb4:	000047b7          	lui	a5,0x4
    3bb8:	06c78793          	addi	a5,a5,108 # 406c <snake>
    3bbc:	00100713          	li	a4,1
    3bc0:	00004537          	lui	a0,0x4
    3bc4:	00300613          	li	a2,3
    3bc8:	000066b7          	lui	a3,0x6
    3bcc:	000085b7          	lui	a1,0x8
    3bd0:	38e52c23          	sw	a4,920(a0) # 4398 <apple_exists>
    3bd4:	00e7a023          	sw	a4,0(a5)
    3bd8:	05200713          	li	a4,82
    3bdc:	00c7a423          	sw	a2,8(a5)
    3be0:	00c7a623          	sw	a2,12(a5)
    3be4:	00e78223          	sb	a4,4(a5)
    3be8:	48c68693          	addi	a3,a3,1164 # 648c <__global_pointer+0x1c2f>
    3bec:	01c00613          	li	a2,28
    3bf0:	d8c58593          	addi	a1,a1,-628 # 7d8c <__global_pointer+0x352f>
    3bf4:	fec68793          	addi	a5,a3,-20
    3bf8:	06442703          	lw	a4,100(s0)
    3bfc:	00f70733          	add	a4,a4,a5
    3c00:	00c70023          	sb	a2,0(a4)
    3c04:	00178793          	addi	a5,a5,1
    3c08:	fef698e3          	bne	a3,a5,3bf8 <game_init+0x16c>
    3c0c:	14068693          	addi	a3,a3,320
    3c10:	feb692e3          	bne	a3,a1,3bf4 <game_init+0x168>
    3c14:	0604a783          	lw	a5,96(s1)
    3c18:	06442703          	lw	a4,100(s0)
    3c1c:	00c12083          	lw	ra,12(sp)
    3c20:	00812403          	lw	s0,8(sp)
    3c24:	00e7a223          	sw	a4,4(a5)
    3c28:	0007a023          	sw	zero,0(a5)
    3c2c:	00412483          	lw	s1,4(sp)
    3c30:	01010113          	addi	sp,sp,16
    3c34:	00008067          	ret

00003c38 <game>:
    3c38:	ff010113          	addi	sp,sp,-16
    3c3c:	00112623          	sw	ra,12(sp)
    3c40:	f78ff0ef          	jal	33b8 <move_snake>
    3c44:	00004537          	lui	a0,0x4
    3c48:	3a850513          	addi	a0,a0,936 # 43a8 <apple>
    3c4c:	c51ff0ef          	jal	389c <check_collision>
    3c50:	000047b7          	lui	a5,0x4
    3c54:	00004737          	lui	a4,0x4
    3c58:	0607a783          	lw	a5,96(a5) # 4060 <VGA_CTRL>
    3c5c:	06472703          	lw	a4,100(a4) # 4064 <VGA>
    3c60:	00c12083          	lw	ra,12(sp)
    3c64:	00e7a223          	sw	a4,4(a5)
    3c68:	0007a023          	sw	zero,0(a5)
    3c6c:	01010113          	addi	sp,sp,16
    3c70:	00008067          	ret

00003c74 <hex2asc>:
    3c74:	00a00513          	li	a0,10
    3c78:	ffc10113          	addi	sp,sp,-4
    3c7c:	00112023          	sw	ra,0(sp)
    3c80:	018000ef          	jal	3c98 <hexasc>
    3c84:	00b00893          	li	a7,11
    3c88:	00000073          	ecall
    3c8c:	00012083          	lw	ra,0(sp)
    3c90:	00410113          	addi	sp,sp,4
    3c94:	00008067          	ret

00003c98 <hexasc>:
    3c98:	03900293          	li	t0,57
    3c9c:	03050513          	addi	a0,a0,48
    3ca0:	00a2d463          	bge	t0,a0,3ca8 <return>
    3ca4:	00750513          	addi	a0,a0,7

00003ca8 <return>:
    3ca8:	00008067          	ret

00003cac <handle_interrupt>:
    3cac:	040007b7          	lui	a5,0x4000
    3cb0:	0207a703          	lw	a4,32(a5) # 4000020 <_stack_end+0x3efbbd8>
    3cb4:	00177713          	andi	a4,a4,1
    3cb8:	02070463          	beqz	a4,3ce0 <handle_interrupt+0x34>
    3cbc:	00004737          	lui	a4,0x4
    3cc0:	00100693          	li	a3,1
    3cc4:	3ad72823          	sw	a3,944(a4) # 43b0 <move_snake_mark>
    3cc8:	0207a703          	lw	a4,32(a5)
    3ccc:	000106b7          	lui	a3,0x10
    3cd0:	ffe68693          	addi	a3,a3,-2 # fffe <__global_pointer+0xb7a1>
    3cd4:	00d77733          	and	a4,a4,a3
    3cd8:	02078793          	addi	a5,a5,32
    3cdc:	00e7a023          	sw	a4,0(a5)
    3ce0:	04000737          	lui	a4,0x4000
    3ce4:	0dc72783          	lw	a5,220(a4) # 40000dc <_stack_end+0x3efbc94>
    3ce8:	0017f793          	andi	a5,a5,1
    3cec:	02078c63          	beqz	a5,3d24 <handle_interrupt+0x78>
    3cf0:	01072783          	lw	a5,16(a4)
    3cf4:	ff010113          	addi	sp,sp,-16
    3cf8:	00112623          	sw	ra,12(sp)
    3cfc:	0017f793          	andi	a5,a5,1
    3d00:	02079463          	bnez	a5,3d28 <handle_interrupt+0x7c>
    3d04:	05200513          	li	a0,82
    3d08:	885ff0ef          	jal	358c <change_direction>
    3d0c:	00c12083          	lw	ra,12(sp)
    3d10:	040007b7          	lui	a5,0x4000
    3d14:	00100713          	li	a4,1
    3d18:	0ce7ae23          	sw	a4,220(a5) # 40000dc <_stack_end+0x3efbc94>
    3d1c:	01010113          	addi	sp,sp,16
    3d20:	00008067          	ret
    3d24:	00008067          	ret
    3d28:	04c00513          	li	a0,76
    3d2c:	861ff0ef          	jal	358c <change_direction>
    3d30:	00c12083          	lw	ra,12(sp)
    3d34:	040007b7          	lui	a5,0x4000
    3d38:	00100713          	li	a4,1
    3d3c:	0ce7ae23          	sw	a4,220(a5) # 40000dc <_stack_end+0x3efbc94>
    3d40:	01010113          	addi	sp,sp,16
    3d44:	00008067          	ret

00003d48 <init>:
    3d48:	0000c6b7          	lui	a3,0xc
    3d4c:	040007b7          	lui	a5,0x4000
    3d50:	38068693          	addi	a3,a3,896 # c380 <__global_pointer+0x7b23>
    3d54:	02d7a423          	sw	a3,40(a5) # 4000028 <_stack_end+0x3efbbe0>
    3d58:	04000737          	lui	a4,0x4000
    3d5c:	1c900693          	li	a3,457
    3d60:	02d72623          	sw	a3,44(a4) # 400002c <_stack_end+0x3efbbe4>
    3d64:	040007b7          	lui	a5,0x4000
    3d68:	00700693          	li	a3,7
    3d6c:	02d7a223          	sw	a3,36(a5) # 4000024 <_stack_end+0x3efbbdc>
    3d70:	04000737          	lui	a4,0x4000
    3d74:	00100693          	li	a3,1
    3d78:	040007b7          	lui	a5,0x4000
    3d7c:	0cd72e23          	sw	a3,220(a4) # 40000dc <_stack_end+0x3efbc94>
    3d80:	0cd7ac23          	sw	a3,216(a5) # 40000d8 <_stack_end+0x3efbc90>
    3d84:	bf0fc06f          	j	174 <enable_interrupt>

00003d88 <main>:
    3d88:	ff010113          	addi	sp,sp,-16
    3d8c:	0000c6b7          	lui	a3,0xc
    3d90:	00812423          	sw	s0,8(sp)
    3d94:	00912223          	sw	s1,4(sp)
    3d98:	01212023          	sw	s2,0(sp)
    3d9c:	00112623          	sw	ra,12(sp)
    3da0:	04000737          	lui	a4,0x4000
    3da4:	38068693          	addi	a3,a3,896 # c380 <__global_pointer+0x7b23>
    3da8:	02d72423          	sw	a3,40(a4) # 4000028 <_stack_end+0x3efbbe0>
    3dac:	040007b7          	lui	a5,0x4000
    3db0:	1c900693          	li	a3,457
    3db4:	02d7a623          	sw	a3,44(a5) # 400002c <_stack_end+0x3efbbe4>
    3db8:	04000737          	lui	a4,0x4000
    3dbc:	00700693          	li	a3,7
    3dc0:	02d72223          	sw	a3,36(a4) # 4000024 <_stack_end+0x3efbbdc>
    3dc4:	040007b7          	lui	a5,0x4000
    3dc8:	00100693          	li	a3,1
    3dcc:	04000737          	lui	a4,0x4000
    3dd0:	0cd7ae23          	sw	a3,220(a5) # 40000dc <_stack_end+0x3efbc94>
    3dd4:	0cd72c23          	sw	a3,216(a4) # 40000d8 <_stack_end+0x3efbc90>
    3dd8:	b9cfc0ef          	jal	174 <enable_interrupt>
    3ddc:	000044b7          	lui	s1,0x4
    3de0:	00004437          	lui	s0,0x4
    3de4:	00100913          	li	s2,1
    3de8:	ca5ff0ef          	jal	3a8c <game_init>
    3dec:	39c4a783          	lw	a5,924(s1) # 439c <run>
    3df0:	00078e63          	beqz	a5,3e0c <main+0x84>
    3df4:	3b042783          	lw	a5,944(s0) # 43b0 <move_snake_mark>
    3df8:	fe078ee3          	beqz	a5,3df4 <main+0x6c>
    3dfc:	3a042823          	sw	zero,944(s0)
    3e00:	e39ff0ef          	jal	3c38 <game>
    3e04:	39c4a783          	lw	a5,924(s1)
    3e08:	fe0796e3          	bnez	a5,3df4 <main+0x6c>
    3e0c:	815fc0ef          	jal	620 <get_btn>
    3e10:	fe050ee3          	beqz	a0,3e0c <main+0x84>
    3e14:	3924ae23          	sw	s2,924(s1)
    3e18:	fd1ff06f          	j	3de8 <main+0x60>

00003e1c <display_string>:
    3e1c:	00400893          	li	a7,4
    3e20:	00000073          	ecall
    3e24:	00a00513          	li	a0,10
    3e28:	00b00893          	li	a7,11
    3e2c:	00000073          	ecall
    3e30:	00008067          	ret

00003e34 <timetemplate>:
    3e34:	00000517          	auipc	a0,0x0
    3e38:	20c50513          	addi	a0,a0,524 # 4040 <timstr>
    3e3c:	fe1ff0ef          	jal	3e1c <display_string>
    3e40:	3e800513          	li	a0,1000
    3e44:	0b0000ef          	jal	3ef4 <delay>
    3e48:	00000517          	auipc	a0,0x0
    3e4c:	1f450513          	addi	a0,a0,500 # 403c <mytime>
    3e50:	020000ef          	jal	3e70 <tick>
    3e54:	00000517          	auipc	a0,0x0
    3e58:	1ec50513          	addi	a0,a0,492 # 4040 <timstr>
    3e5c:	00000297          	auipc	t0,0x0
    3e60:	1e028293          	addi	t0,t0,480 # 403c <mytime>
    3e64:	0002a583          	lw	a1,0(t0)
    3e68:	0bc000ef          	jal	3f24 <time2string>
    3e6c:	fc9ff06f          	j	3e34 <timetemplate>

00003e70 <tick>:
    3e70:	00052283          	lw	t0,0(a0)
    3e74:	00128293          	addi	t0,t0,1
    3e78:	00f2f313          	andi	t1,t0,15
    3e7c:	00a33393          	sltiu	t2,t1,10
    3e80:	06039063          	bnez	t2,3ee0 <tiend>
    3e84:	00628293          	addi	t0,t0,6
    3e88:	0f02f313          	andi	t1,t0,240
    3e8c:	06033393          	sltiu	t2,t1,96
    3e90:	04039863          	bnez	t2,3ee0 <tiend>
    3e94:	0a028293          	addi	t0,t0,160
    3e98:	00f00e13          	li	t3,15
    3e9c:	008e1e13          	slli	t3,t3,0x8
    3ea0:	01c2f333          	and	t1,t0,t3
    3ea4:	00a00e13          	li	t3,10
    3ea8:	008e1e13          	slli	t3,t3,0x8
    3eac:	01c323b3          	slt	t2,t1,t3
    3eb0:	02039863          	bnez	t2,3ee0 <tiend>
    3eb4:	60028293          	addi	t0,t0,1536
    3eb8:	00f00e13          	li	t3,15
    3ebc:	00ce1e13          	slli	t3,t3,0xc
    3ec0:	01c2f333          	and	t1,t0,t3
    3ec4:	00600e13          	li	t3,6
    3ec8:	00ce1e13          	slli	t3,t3,0xc
    3ecc:	01c323b3          	slt	t2,t1,t3
    3ed0:	00039863          	bnez	t2,3ee0 <tiend>
    3ed4:	00a00e13          	li	t3,10
    3ed8:	00ce1e13          	slli	t3,t3,0xc
    3edc:	01c282b3          	add	t0,t0,t3

00003ee0 <tiend>:
    3ee0:	00552023          	sw	t0,0(a0)
    3ee4:	00008067          	ret

00003ee8 <hexasc>:
    3ee8:	00f47513          	andi	a0,s0,15
    3eec:	03050513          	addi	a0,a0,48
    3ef0:	00008067          	ret

00003ef4 <delay>:
    3ef4:	ffc10113          	addi	sp,sp,-4
    3ef8:	00a12023          	sw	a0,0(sp)

00003efc <while>:
    3efc:	fff50513          	addi	a0,a0,-1
    3f00:	000002b3          	add	t0,zero,zero
    3f04:	00002337          	lui	t1,0x2
    3f08:	71030313          	addi	t1,t1,1808 # 2710 <draw_R+0x3a8>

00003f0c <for>:
    3f0c:	00128293          	addi	t0,t0,1
    3f10:	fe62cee3          	blt	t0,t1,3f0c <for>
    3f14:	fea044e3          	bgtz	a0,3efc <while>
    3f18:	00012503          	lw	a0,0(sp)
    3f1c:	00410113          	addi	sp,sp,4
    3f20:	00008067          	ret

00003f24 <time2string>:
    3f24:	ffc10113          	addi	sp,sp,-4
    3f28:	00112023          	sw	ra,0(sp)
    3f2c:	ffc10113          	addi	sp,sp,-4
    3f30:	00a12023          	sw	a0,0(sp)
    3f34:	ffc10113          	addi	sp,sp,-4
    3f38:	00812023          	sw	s0,0(sp)
    3f3c:	ffc10113          	addi	sp,sp,-4
    3f40:	00912023          	sw	s1,0(sp)
    3f44:	00058433          	add	s0,a1,zero
    3f48:	000504b3          	add	s1,a0,zero
    3f4c:	000482a3          	sb	zero,5(s1)
    3f50:	f99ff0ef          	jal	3ee8 <hexasc>
    3f54:	00a48223          	sb	a0,4(s1)
    3f58:	00445413          	srli	s0,s0,0x4
    3f5c:	f8dff0ef          	jal	3ee8 <hexasc>
    3f60:	00a481a3          	sb	a0,3(s1)
    3f64:	00445413          	srli	s0,s0,0x4
    3f68:	03a00293          	li	t0,58
    3f6c:	00548123          	sb	t0,2(s1)
    3f70:	f79ff0ef          	jal	3ee8 <hexasc>
    3f74:	00a480a3          	sb	a0,1(s1)
    3f78:	00445413          	srli	s0,s0,0x4
    3f7c:	f6dff0ef          	jal	3ee8 <hexasc>
    3f80:	00a48023          	sb	a0,0(s1)
    3f84:	00012483          	lw	s1,0(sp)
    3f88:	00410113          	addi	sp,sp,4
    3f8c:	00012403          	lw	s0,0(sp)
    3f90:	00410113          	addi	sp,sp,4
    3f94:	00012503          	lw	a0,0(sp)
    3f98:	00410113          	addi	sp,sp,4
    3f9c:	00012083          	lw	ra,0(sp)
    3fa0:	00410113          	addi	sp,sp,4
    3fa4:	00008067          	ret

Disassembly of section .data:

00003fa8 <welcome_msg>:
    3fa8:	3d3d                	.insn	2, 0x3d3d
    3faa:	3d3d                	.insn	2, 0x3d3d
    3fac:	3d3d                	.insn	2, 0x3d3d
    3fae:	3d3d                	.insn	2, 0x3d3d
    3fb0:	3d3d                	.insn	2, 0x3d3d
    3fb2:	3d3d                	.insn	2, 0x3d3d
    3fb4:	3d3d                	.insn	2, 0x3d3d
    3fb6:	3d3d                	.insn	2, 0x3d3d
    3fb8:	3d3d                	.insn	2, 0x3d3d
    3fba:	3d3d                	.insn	2, 0x3d3d
    3fbc:	3d3d                	.insn	2, 0x3d3d
    3fbe:	3d3d                	.insn	2, 0x3d3d
    3fc0:	3d3d                	.insn	2, 0x3d3d
    3fc2:	3d3d                	.insn	2, 0x3d3d
    3fc4:	3d3d                	.insn	2, 0x3d3d
    3fc6:	3d3d                	.insn	2, 0x3d3d
    3fc8:	3d3d                	.insn	2, 0x3d3d
    3fca:	3d3d                	.insn	2, 0x3d3d
    3fcc:	3d3d                	.insn	2, 0x3d3d
    3fce:	3d3d                	.insn	2, 0x3d3d
    3fd0:	3d3d                	.insn	2, 0x3d3d
    3fd2:	3d3d                	.insn	2, 0x3d3d
    3fd4:	3d3d                	.insn	2, 0x3d3d
    3fd6:	3d3d                	.insn	2, 0x3d3d
    3fd8:	3d0a                	.insn	2, 0x3d0a
    3fda:	3d3d                	.insn	2, 0x3d3d
    3fdc:	3d3d                	.insn	2, 0x3d3d
    3fde:	5220                	.insn	2, 0x5220
    3fe0:	5349                	.insn	2, 0x5349
    3fe2:	20562d43          	.insn	4, 0x20562d43
    3fe6:	6f42                	.insn	2, 0x6f42
    3fe8:	552d746f          	jal	s0,db53a <__global_pointer+0xd6cdd>
    3fec:	2070                	.insn	2, 0x2070
    3fee:	7250                	.insn	2, 0x7250
    3ff0:	7365636f          	jal	t1,5a726 <__global_pointer+0x55ec9>
    3ff4:	6f4e2073          	csrs	0x6f4,t3
    3ff8:	6f432077          	.insn	4, 0x6f432077
    3ffc:	706d                	.insn	2, 0x706d
    3ffe:	656c                	.insn	2, 0x656c
    4000:	6574                	.insn	2, 0x6574
    4002:	3d20                	.insn	2, 0x3d20
    4004:	3d3d                	.insn	2, 0x3d3d
    4006:	3d3d                	.insn	2, 0x3d3d
    4008:	0a3d                	.insn	2, 0x0a3d
    400a:	3d3d                	.insn	2, 0x3d3d
    400c:	3d3d                	.insn	2, 0x3d3d
    400e:	3d3d                	.insn	2, 0x3d3d
    4010:	3d3d                	.insn	2, 0x3d3d
    4012:	3d3d                	.insn	2, 0x3d3d
    4014:	3d3d                	.insn	2, 0x3d3d
    4016:	3d3d                	.insn	2, 0x3d3d
    4018:	3d3d                	.insn	2, 0x3d3d
    401a:	3d3d                	.insn	2, 0x3d3d
    401c:	3d3d                	.insn	2, 0x3d3d
    401e:	3d3d                	.insn	2, 0x3d3d
    4020:	3d3d                	.insn	2, 0x3d3d
    4022:	3d3d                	.insn	2, 0x3d3d
    4024:	3d3d                	.insn	2, 0x3d3d
    4026:	3d3d                	.insn	2, 0x3d3d
    4028:	3d3d                	.insn	2, 0x3d3d
    402a:	3d3d                	.insn	2, 0x3d3d
    402c:	3d3d                	.insn	2, 0x3d3d
    402e:	3d3d                	.insn	2, 0x3d3d
    4030:	3d3d                	.insn	2, 0x3d3d
    4032:	3d3d                	.insn	2, 0x3d3d
    4034:	3d3d                	.insn	2, 0x3d3d
    4036:	3d3d                	.insn	2, 0x3d3d
    4038:	3d3d                	.insn	2, 0x3d3d
    403a:	000a                	.insn	2, 0x000a

0000403c <mytime>:
    403c:	00005957          	.insn	4, 0x5957

00004040 <timstr>:
    4040:	6574                	.insn	2, 0x6574
    4042:	7478                	.insn	2, 0x7478
    4044:	6d20                	.insn	2, 0x6d20
    4046:	2065726f          	jal	tp,5b24c <__global_pointer+0x569ef>
    404a:	6574                	.insn	2, 0x6574
    404c:	7478                	.insn	2, 0x7478
    404e:	6c20                	.insn	2, 0x6c20
    4050:	2073746f          	jal	s0,3ba56 <__global_pointer+0x371f9>
    4054:	7420666f          	jal	a2,a796 <__global_pointer+0x5f39>
    4058:	7865                	.insn	2, 0x7865
    405a:	0074                	.insn	2, 0x0074
    405c:	0000                	.insn	2, 0x
	...

00004060 <VGA_CTRL>:
    4060:	0100                	.insn	2, 0x0100
    4062:	0400                	.insn	2, 0x0400

00004064 <VGA>:
    4064:	0000                	.insn	2, 0x
    4066:	0800                	.insn	2, 0x0800

00004068 <random_number_seed>:
    4068:	006eee3b          	.insn	4, 0x006eee3b

Disassembly of section .rodata:

000043b4 <segm7_display>:
    43b4:	7940                	.insn	2, 0x7940
    43b6:	3024                	.insn	2, 0x3024
    43b8:	1219                	.insn	2, 0x1219
    43ba:	7802                	.insn	2, 0x7802
    43bc:	1800                	.insn	2, 0x1800

Disassembly of section .rodata.str1.4:

000043c0 <.rodata.str1.4>:
    43c0:	5b0a                	.insn	2, 0x5b0a
    43c2:	5845                	.insn	2, 0x5845
    43c4:	54504543          	.insn	4, 0x54504543
    43c8:	4f49                	.insn	2, 0x4f49
    43ca:	5d4e                	.insn	2, 0x5d4e
    43cc:	4920                	.insn	2, 0x4920
    43ce:	736e                	.insn	2, 0x736e
    43d0:	7274                	.insn	2, 0x7274
    43d2:	6375                	.insn	2, 0x6375
    43d4:	6974                	.insn	2, 0x6974
    43d6:	61206e6f          	jal	t3,a9e8 <__global_pointer+0x618b>
    43da:	6464                	.insn	2, 0x6464
    43dc:	6572                	.insn	2, 0x6572
    43de:	6d207373          	csrrci	t1,0x6d2,0
    43e2:	7369                	.insn	2, 0x7369
    43e4:	6c61                	.insn	2, 0x6c61
    43e6:	6769                	.insn	2, 0x6769
    43e8:	6d6e                	.insn	2, 0x6d6e
    43ea:	6e65                	.insn	2, 0x6e65
    43ec:	2e74                	.insn	2, 0x2e74
    43ee:	0020                	.insn	2, 0x0020
    43f0:	5b0a                	.insn	2, 0x5b0a
    43f2:	5845                	.insn	2, 0x5845
    43f4:	54504543          	.insn	4, 0x54504543
    43f8:	4f49                	.insn	2, 0x4f49
    43fa:	5d4e                	.insn	2, 0x5d4e
    43fc:	4920                	.insn	2, 0x4920
    43fe:	6c6c                	.insn	2, 0x6c6c
    4400:	6765                	.insn	2, 0x6765
    4402:	6c61                	.insn	2, 0x6c61
    4404:	6920                	.insn	2, 0x6920
    4406:	736e                	.insn	2, 0x736e
    4408:	7274                	.insn	2, 0x7274
    440a:	6375                	.insn	2, 0x6375
    440c:	6974                	.insn	2, 0x6974
    440e:	202e6e6f          	jal	t3,ea610 <__global_pointer+0xe5db3>
    4412:	0000                	.insn	2, 0x
    4414:	5b0a                	.insn	2, 0x5b0a
    4416:	5845                	.insn	2, 0x5845
    4418:	54504543          	.insn	4, 0x54504543
    441c:	4f49                	.insn	2, 0x4f49
    441e:	5d4e                	.insn	2, 0x5d4e
    4420:	5520                	.insn	2, 0x5520
    4422:	6b6e                	.insn	2, 0x6b6e
    4424:	6f6e                	.insn	2, 0x6f6e
    4426:	65206e77          	.insn	4, 0x65206e77
    442a:	7272                	.insn	2, 0x7272
    442c:	202e726f          	jal	tp,eb62e <__global_pointer+0xe6dd1>
    4430:	0000                	.insn	2, 0x
    4432:	0000                	.insn	2, 0x
    4434:	7845                	.insn	2, 0x7845
    4436:	74706563          	bltu	zero,t2,4b80 <__global_pointer+0x323>
    443a:	6f69                	.insn	2, 0x6f69
    443c:	206e                	.insn	2, 0x206e
    443e:	6441                	.insn	2, 0x6441
    4440:	7264                	.insn	2, 0x7264
    4442:	7365                	.insn	2, 0x7365
    4444:	00203a73          	csrrc	s4,frm,zero

Disassembly of section .comment:

00000000 <.comment>:
   0:	3a434347          	.insn	4, 0x3a434347
   4:	2820                	.insn	2, 0x2820
   6:	2029                	.insn	2, 0x2029
   8:	3331                	.insn	2, 0x3331
   a:	322e                	.insn	2, 0x322e
   c:	302e                	.insn	2, 0x302e
	...

Disassembly of section .riscv.attributes:

00000000 <.riscv.attributes>:
   0:	3641                	.insn	2, 0x3641
   2:	0000                	.insn	2, 0x
   4:	7200                	.insn	2, 0x7200
   6:	7369                	.insn	2, 0x7369
   8:	01007663          	bgeu	zero,a6,14 <_isr_routine+0xc>
   c:	002c                	.insn	2, 0x002c
   e:	0000                	.insn	2, 0x
  10:	1004                	.insn	2, 0x1004
  12:	7205                	.insn	2, 0x7205
  14:	3376                	.insn	2, 0x3376
  16:	6932                	.insn	2, 0x6932
  18:	7032                	.insn	2, 0x7032
  1a:	5f31                	.insn	2, 0x5f31
  1c:	326d                	.insn	2, 0x326d
  1e:	3070                	.insn	2, 0x3070
  20:	7a5f 6369 7273      	.insn	6, 0x727363697a5f
  26:	7032                	.insn	2, 0x7032
  28:	5f30                	.insn	2, 0x5f30
  2a:	6d7a                	.insn	2, 0x6d7a
  2c:	756d                	.insn	2, 0x756d
  2e:	316c                	.insn	2, 0x316c
  30:	3070                	.insn	2, 0x3070
  32:	0800                	.insn	2, 0x0800
  34:	0a01                	.insn	2, 0x0a01
  36:	Address 0x36 is out of bounds.

