
main.elf:     file format elf32-littleriscv


Disassembly of section .text:

00000000 <_isr_handler>:
       0:	0080006f          	j	8 <_isr_routine>
       4:	1440006f          	j	148 <_start>

00000008 <_isr_routine>:
       8:	f8010113          	addi	sp,sp,-128
       c:	00112023          	sw	ra,0(sp)
      10:	00312423          	sw	gp,8(sp)
      14:	00412623          	sw	tp,12(sp)
      18:	00512823          	sw	t0,16(sp)
      1c:	00612a23          	sw	t1,20(sp)
      20:	00712c23          	sw	t2,24(sp)
      24:	00812e23          	sw	s0,28(sp)
      28:	02912023          	sw	s1,32(sp)
      2c:	02a12223          	sw	a0,36(sp)
      30:	02b12423          	sw	a1,40(sp)
      34:	02c12623          	sw	a2,44(sp)
      38:	02d12823          	sw	a3,48(sp)
      3c:	02e12a23          	sw	a4,52(sp)
      40:	02f12c23          	sw	a5,56(sp)
      44:	03012e23          	sw	a6,60(sp)
      48:	05112023          	sw	a7,64(sp)
      4c:	05212223          	sw	s2,68(sp)
      50:	05312423          	sw	s3,72(sp)
      54:	05412623          	sw	s4,76(sp)
      58:	05512823          	sw	s5,80(sp)
      5c:	05612a23          	sw	s6,84(sp)
      60:	05712c23          	sw	s7,88(sp)
      64:	05812e23          	sw	s8,92(sp)
      68:	07912023          	sw	s9,96(sp)
      6c:	07a12223          	sw	s10,100(sp)
      70:	07b12423          	sw	s11,104(sp)
      74:	07c12623          	sw	t3,108(sp)
      78:	07d12823          	sw	t4,112(sp)
      7c:	07e12a23          	sw	t5,116(sp)
      80:	07f12c23          	sw	t6,120(sp)
      84:	342022f3          	csrr	t0,mcause
      88:	80000337          	lui	t1,0x80000
      8c:	02536463          	bltu	t1,t0,b4 <external_irq>
      90:	00028833          	add	a6,t0,zero
      94:	00b00313          	li	t1,11
      98:	00628463          	beq	t0,t1,a0 <skip_init_args>
      9c:	34102573          	csrr	a0,mepc

000000a0 <skip_init_args>:
      a0:	2fc000ef          	jal	39c <handle_exception>
      a4:	341022f3          	csrr	t0,mepc
      a8:	00428293          	addi	t0,t0,4
      ac:	34129073          	csrw	mepc,t0
      b0:	0180006f          	j	c8 <restore>

000000b4 <external_irq>:
      b4:	800002b7          	lui	t0,0x80000
      b8:	fff28293          	addi	t0,t0,-1 # 7fffffff <_stack_end+0x7fefb2ef>
      bc:	34202373          	csrr	t1,mcause
      c0:	0062f533          	and	a0,t0,t1
      c4:	4ac040ef          	jal	4570 <handle_interrupt>

000000c8 <restore>:
      c8:	00012083          	lw	ra,0(sp)
      cc:	00812183          	lw	gp,8(sp)
      d0:	00c12203          	lw	tp,12(sp)
      d4:	01012283          	lw	t0,16(sp)
      d8:	01412303          	lw	t1,20(sp)
      dc:	01812383          	lw	t2,24(sp)
      e0:	01c12403          	lw	s0,28(sp)
      e4:	02012483          	lw	s1,32(sp)
      e8:	02412503          	lw	a0,36(sp)
      ec:	02812583          	lw	a1,40(sp)
      f0:	02c12603          	lw	a2,44(sp)
      f4:	03012683          	lw	a3,48(sp)
      f8:	03412703          	lw	a4,52(sp)
      fc:	03812783          	lw	a5,56(sp)
     100:	03c12803          	lw	a6,60(sp)
     104:	04012883          	lw	a7,64(sp)
     108:	04412903          	lw	s2,68(sp)
     10c:	04812983          	lw	s3,72(sp)
     110:	04c12a03          	lw	s4,76(sp)
     114:	05012a83          	lw	s5,80(sp)
     118:	05412b03          	lw	s6,84(sp)
     11c:	05812b83          	lw	s7,88(sp)
     120:	05c12c03          	lw	s8,92(sp)
     124:	06012c83          	lw	s9,96(sp)
     128:	06412d03          	lw	s10,100(sp)
     12c:	06812d83          	lw	s11,104(sp)
     130:	06c12e03          	lw	t3,108(sp)
     134:	07012e83          	lw	t4,112(sp)
     138:	07412f03          	lw	t5,116(sp)
     13c:	07812f83          	lw	t6,120(sp)
     140:	08010113          	addi	sp,sp,128
     144:	30200073          	mret

00000148 <_start>:
     148:	30401073          	csrw	mie,zero
     14c:	00105117          	auipc	sp,0x105
     150:	bc410113          	addi	sp,sp,-1084 # 104d10 <_stack_end>
     154:	00005197          	auipc	gp,0x5
     158:	fcd18193          	addi	gp,gp,-51 # 5121 <__global_pointer>
     15c:	00004517          	auipc	a0,0x4
     160:	71050513          	addi	a0,a0,1808 # 486c <welcome_msg>
     164:	00400893          	li	a7,4
     168:	00000073          	ecall
     16c:	4e0040ef          	jal	464c <main>

00000170 <loop>:
     170:	0000006f          	j	170 <loop>

00000174 <enable_interrupt>:
     174:	3001e073          	csrsi	mstatus,3
     178:	30486073          	csrsi	mie,16
     17c:	3048e073          	csrsi	mie,17

00000180 <set_displays>:
     180:	000057b7          	lui	a5,0x5
     184:	c7c78793          	addi	a5,a5,-900 # 4c7c <segm7_display>
     188:	00400737          	lui	a4,0x400
     18c:	00b787b3          	add	a5,a5,a1
     190:	0007c783          	lbu	a5,0(a5)
     194:	00570713          	addi	a4,a4,5 # 400005 <_stack_end+0x2fb2f5>
     198:	00e50533          	add	a0,a0,a4
     19c:	00451513          	slli	a0,a0,0x4
     1a0:	00f50023          	sb	a5,0(a0)
     1a4:	00008067          	ret

000001a8 <init_display>:
     1a8:	04000793          	li	a5,64
     1ac:	04000837          	lui	a6,0x4000
     1b0:	04f80823          	sb	a5,80(a6) # 4000050 <_stack_end+0x3efb340>
     1b4:	04000537          	lui	a0,0x4000
     1b8:	06f50023          	sb	a5,96(a0) # 4000060 <_stack_end+0x3efb350>
     1bc:	040005b7          	lui	a1,0x4000
     1c0:	06f58823          	sb	a5,112(a1) # 4000070 <_stack_end+0x3efb360>
     1c4:	04000637          	lui	a2,0x4000
     1c8:	08f60023          	sb	a5,128(a2) # 4000080 <_stack_end+0x3efb370>
     1cc:	040006b7          	lui	a3,0x4000
     1d0:	04000737          	lui	a4,0x4000
     1d4:	08f68823          	sb	a5,144(a3) # 4000090 <_stack_end+0x3efb380>
     1d8:	0af70023          	sb	a5,160(a4) # 40000a0 <_stack_end+0x3efb390>
     1dc:	00008067          	ret

000001e0 <set_score>:
     1e0:	00a00693          	li	a3,10
     1e4:	02d54733          	div	a4,a0,a3
     1e8:	000057b7          	lui	a5,0x5
     1ec:	c7c78793          	addi	a5,a5,-900 # 4c7c <segm7_display>
     1f0:	040008b7          	lui	a7,0x4000
     1f4:	04000837          	lui	a6,0x4000
     1f8:	04000637          	lui	a2,0x4000
     1fc:	02d745b3          	div	a1,a4,a3
     200:	02d56533          	rem	a0,a0,a3
     204:	02d76733          	rem	a4,a4,a3
     208:	00a78533          	add	a0,a5,a0
     20c:	00054503          	lbu	a0,0(a0)
     210:	04a88823          	sb	a0,80(a7) # 4000050 <_stack_end+0x3efb340>
     214:	02d5e6b3          	rem	a3,a1,a3
     218:	00e78733          	add	a4,a5,a4
     21c:	00074703          	lbu	a4,0(a4)
     220:	06e80023          	sb	a4,96(a6) # 4000060 <_stack_end+0x3efb350>
     224:	00d787b3          	add	a5,a5,a3
     228:	0007c783          	lbu	a5,0(a5)
     22c:	06f60823          	sb	a5,112(a2) # 4000070 <_stack_end+0x3efb360>
     230:	00008067          	ret

00000234 <printc>:
     234:	04000737          	lui	a4,0x4000
     238:	04470713          	addi	a4,a4,68 # 4000044 <_stack_end+0x3efb334>
     23c:	000106b7          	lui	a3,0x10
     240:	00072783          	lw	a5,0(a4)
     244:	fed7eee3          	bltu	a5,a3,240 <printc+0xc>
     248:	040007b7          	lui	a5,0x4000
     24c:	04a7a023          	sw	a0,64(a5) # 4000040 <_stack_end+0x3efb330>
     250:	00008067          	ret

00000254 <print>:
     254:	00054603          	lbu	a2,0(a0)
     258:	02060863          	beqz	a2,288 <print+0x34>
     25c:	04000737          	lui	a4,0x4000
     260:	040005b7          	lui	a1,0x4000
     264:	04470713          	addi	a4,a4,68 # 4000044 <_stack_end+0x3efb334>
     268:	000106b7          	lui	a3,0x10
     26c:	04058593          	addi	a1,a1,64 # 4000040 <_stack_end+0x3efb330>
     270:	00072783          	lw	a5,0(a4)
     274:	fed7eee3          	bltu	a5,a3,270 <print+0x1c>
     278:	00c5a023          	sw	a2,0(a1)
     27c:	00154603          	lbu	a2,1(a0)
     280:	00150513          	addi	a0,a0,1
     284:	fe0616e3          	bnez	a2,270 <print+0x1c>
     288:	00008067          	ret

0000028c <print_dec>:
     28c:	3b9ad737          	lui	a4,0x3b9ad
     290:	040006b7          	lui	a3,0x4000
     294:	04000337          	lui	t1,0x4000
     298:	00a00593          	li	a1,10
     29c:	00000793          	li	a5,0
     2a0:	a0070713          	addi	a4,a4,-1536 # 3b9aca00 <_stack_end+0x3b8a7cf0>
     2a4:	04468693          	addi	a3,a3,68 # 4000044 <_stack_end+0x3efb334>
     2a8:	00010637          	lui	a2,0x10
     2ac:	04030313          	addi	t1,t1,64 # 4000040 <_stack_end+0x3efb330>
     2b0:	00a00893          	li	a7,10
     2b4:	04e57063          	bgeu	a0,a4,2f4 <print_dec+0x68>
     2b8:	02079e63          	bnez	a5,2f4 <print_dec+0x68>
     2bc:	fff58593          	addi	a1,a1,-1
     2c0:	02e57533          	remu	a0,a0,a4
     2c4:	03175733          	divu	a4,a4,a7
     2c8:	fe0596e3          	bnez	a1,2b4 <print_dec+0x28>
     2cc:	02079263          	bnez	a5,2f0 <print_dec+0x64>
     2d0:	04000737          	lui	a4,0x4000
     2d4:	04470713          	addi	a4,a4,68 # 4000044 <_stack_end+0x3efb334>
     2d8:	000106b7          	lui	a3,0x10
     2dc:	00072783          	lw	a5,0(a4)
     2e0:	fed7eee3          	bltu	a5,a3,2dc <print_dec+0x50>
     2e4:	040007b7          	lui	a5,0x4000
     2e8:	03000713          	li	a4,48
     2ec:	04e7a023          	sw	a4,64(a5) # 4000040 <_stack_end+0x3efb330>
     2f0:	00008067          	ret
     2f4:	02e55833          	divu	a6,a0,a4
     2f8:	03080813          	addi	a6,a6,48
     2fc:	0ff87813          	zext.b	a6,a6
     300:	0006a783          	lw	a5,0(a3) # 10000 <__global_pointer+0xaedf>
     304:	fec7eee3          	bltu	a5,a2,300 <print_dec+0x74>
     308:	01032023          	sw	a6,0(t1)
     30c:	00100793          	li	a5,1
     310:	fadff06f          	j	2bc <print_dec+0x30>

00000314 <print_hex32>:
     314:	04000737          	lui	a4,0x4000
     318:	04470713          	addi	a4,a4,68 # 4000044 <_stack_end+0x3efb334>
     31c:	000106b7          	lui	a3,0x10
     320:	00072783          	lw	a5,0(a4)
     324:	fed7eee3          	bltu	a5,a3,320 <print_hex32+0xc>
     328:	03000693          	li	a3,48
     32c:	040007b7          	lui	a5,0x4000
     330:	04000737          	lui	a4,0x4000
     334:	04d7a023          	sw	a3,64(a5) # 4000040 <_stack_end+0x3efb330>
     338:	04470713          	addi	a4,a4,68 # 4000044 <_stack_end+0x3efb334>
     33c:	000106b7          	lui	a3,0x10
     340:	00072783          	lw	a5,0(a4)
     344:	fed7eee3          	bltu	a5,a3,340 <print_hex32+0x2c>
     348:	04000837          	lui	a6,0x4000
     34c:	04080813          	addi	a6,a6,64 # 4000040 <_stack_end+0x3efb330>
     350:	04000737          	lui	a4,0x4000
     354:	07800793          	li	a5,120
     358:	00f82023          	sw	a5,0(a6)
     35c:	01c00613          	li	a2,28
     360:	00900313          	li	t1,9
     364:	04470713          	addi	a4,a4,68 # 4000044 <_stack_end+0x3efb334>
     368:	000106b7          	lui	a3,0x10
     36c:	ffc00893          	li	a7,-4
     370:	00c557b3          	srl	a5,a0,a2
     374:	00f7f793          	andi	a5,a5,15
     378:	03778593          	addi	a1,a5,55
     37c:	00f36463          	bltu	t1,a5,384 <print_hex32+0x70>
     380:	03078593          	addi	a1,a5,48
     384:	00072783          	lw	a5,0(a4)
     388:	fed7eee3          	bltu	a5,a3,384 <print_hex32+0x70>
     38c:	00b82023          	sw	a1,0(a6)
     390:	ffc60613          	addi	a2,a2,-4 # fffc <__global_pointer+0xaedb>
     394:	fd161ee3          	bne	a2,a7,370 <print_hex32+0x5c>
     398:	00008067          	ret

0000039c <handle_exception>:
     39c:	00200793          	li	a5,2
     3a0:	18f80863          	beq	a6,a5,530 <handle_exception+0x194>
     3a4:	00b00793          	li	a5,11
     3a8:	12f80063          	beq	a6,a5,4c8 <handle_exception+0x12c>
     3ac:	04000737          	lui	a4,0x4000
     3b0:	14081463          	bnez	a6,4f8 <handle_exception+0x15c>
     3b4:	04000837          	lui	a6,0x4000
     3b8:	00005637          	lui	a2,0x5
     3bc:	c8860613          	addi	a2,a2,-888 # 4c88 <segm7_display+0xc>
     3c0:	00a00593          	li	a1,10
     3c4:	04470713          	addi	a4,a4,68 # 4000044 <_stack_end+0x3efb334>
     3c8:	000106b7          	lui	a3,0x10
     3cc:	04080813          	addi	a6,a6,64 # 4000040 <_stack_end+0x3efb330>
     3d0:	00072783          	lw	a5,0(a4)
     3d4:	fed7eee3          	bltu	a5,a3,3d0 <handle_exception+0x34>
     3d8:	00b82023          	sw	a1,0(a6)
     3dc:	00164583          	lbu	a1,1(a2)
     3e0:	00160613          	addi	a2,a2,1
     3e4:	fe0596e3          	bnez	a1,3d0 <handle_exception+0x34>
     3e8:	04000737          	lui	a4,0x4000
     3ec:	04000837          	lui	a6,0x4000
     3f0:	00005637          	lui	a2,0x5
     3f4:	cfc60613          	addi	a2,a2,-772 # 4cfc <segm7_display+0x80>
     3f8:	04500593          	li	a1,69
     3fc:	04470713          	addi	a4,a4,68 # 4000044 <_stack_end+0x3efb334>
     400:	000106b7          	lui	a3,0x10
     404:	04080813          	addi	a6,a6,64 # 4000040 <_stack_end+0x3efb330>
     408:	00072783          	lw	a5,0(a4)
     40c:	fed7eee3          	bltu	a5,a3,408 <handle_exception+0x6c>
     410:	00b82023          	sw	a1,0(a6)
     414:	00164583          	lbu	a1,1(a2)
     418:	00160613          	addi	a2,a2,1
     41c:	fe0596e3          	bnez	a1,408 <handle_exception+0x6c>
     420:	04000737          	lui	a4,0x4000
     424:	04470713          	addi	a4,a4,68 # 4000044 <_stack_end+0x3efb334>
     428:	000106b7          	lui	a3,0x10
     42c:	00072783          	lw	a5,0(a4)
     430:	fed7eee3          	bltu	a5,a3,42c <handle_exception+0x90>
     434:	03000693          	li	a3,48
     438:	040007b7          	lui	a5,0x4000
     43c:	04000737          	lui	a4,0x4000
     440:	04d7a023          	sw	a3,64(a5) # 4000040 <_stack_end+0x3efb330>
     444:	04470713          	addi	a4,a4,68 # 4000044 <_stack_end+0x3efb334>
     448:	000106b7          	lui	a3,0x10
     44c:	00072783          	lw	a5,0(a4)
     450:	fed7eee3          	bltu	a5,a3,44c <handle_exception+0xb0>
     454:	04000837          	lui	a6,0x4000
     458:	04080813          	addi	a6,a6,64 # 4000040 <_stack_end+0x3efb330>
     45c:	04000737          	lui	a4,0x4000
     460:	07800793          	li	a5,120
     464:	00f82023          	sw	a5,0(a6)
     468:	01c00613          	li	a2,28
     46c:	00900313          	li	t1,9
     470:	04470713          	addi	a4,a4,68 # 4000044 <_stack_end+0x3efb334>
     474:	000106b7          	lui	a3,0x10
     478:	ffc00893          	li	a7,-4
     47c:	00c557b3          	srl	a5,a0,a2
     480:	00f7f793          	andi	a5,a5,15
     484:	03778593          	addi	a1,a5,55
     488:	00f36463          	bltu	t1,a5,490 <handle_exception+0xf4>
     48c:	03078593          	addi	a1,a5,48
     490:	00072783          	lw	a5,0(a4)
     494:	fed7eee3          	bltu	a5,a3,490 <handle_exception+0xf4>
     498:	00b82023          	sw	a1,0(a6)
     49c:	ffc60613          	addi	a2,a2,-4
     4a0:	fd161ee3          	bne	a2,a7,47c <handle_exception+0xe0>
     4a4:	04000737          	lui	a4,0x4000
     4a8:	04470713          	addi	a4,a4,68 # 4000044 <_stack_end+0x3efb334>
     4ac:	000106b7          	lui	a3,0x10
     4b0:	00072783          	lw	a5,0(a4)
     4b4:	fed7eee3          	bltu	a5,a3,4b0 <handle_exception+0x114>
     4b8:	040007b7          	lui	a5,0x4000
     4bc:	00a00713          	li	a4,10
     4c0:	04e7a023          	sw	a4,64(a5) # 4000040 <_stack_end+0x3efb330>
     4c4:	0000006f          	j	4c4 <handle_exception+0x128>
     4c8:	00400793          	li	a5,4
     4cc:	0af88063          	beq	a7,a5,56c <handle_exception+0x1d0>
     4d0:	0d089a63          	bne	a7,a6,5a4 <handle_exception+0x208>
     4d4:	04000737          	lui	a4,0x4000
     4d8:	04470713          	addi	a4,a4,68 # 4000044 <_stack_end+0x3efb334>
     4dc:	000106b7          	lui	a3,0x10
     4e0:	00072783          	lw	a5,0(a4)
     4e4:	fed7eee3          	bltu	a5,a3,4e0 <handle_exception+0x144>
     4e8:	040007b7          	lui	a5,0x4000
     4ec:	0ff57513          	zext.b	a0,a0
     4f0:	04a7a023          	sw	a0,64(a5) # 4000040 <_stack_end+0x3efb330>
     4f4:	00008067          	ret
     4f8:	04000837          	lui	a6,0x4000
     4fc:	00005637          	lui	a2,0x5
     500:	cdc60613          	addi	a2,a2,-804 # 4cdc <segm7_display+0x60>
     504:	00a00593          	li	a1,10
     508:	04470713          	addi	a4,a4,68
     50c:	000106b7          	lui	a3,0x10
     510:	04080813          	addi	a6,a6,64 # 4000040 <_stack_end+0x3efb330>
     514:	00072783          	lw	a5,0(a4)
     518:	fed7eee3          	bltu	a5,a3,514 <handle_exception+0x178>
     51c:	00b82023          	sw	a1,0(a6)
     520:	00164583          	lbu	a1,1(a2)
     524:	00160613          	addi	a2,a2,1
     528:	fe0596e3          	bnez	a1,514 <handle_exception+0x178>
     52c:	ebdff06f          	j	3e8 <handle_exception+0x4c>
     530:	04000737          	lui	a4,0x4000
     534:	04000837          	lui	a6,0x4000
     538:	00005637          	lui	a2,0x5
     53c:	cb860613          	addi	a2,a2,-840 # 4cb8 <segm7_display+0x3c>
     540:	00a00593          	li	a1,10
     544:	04470713          	addi	a4,a4,68 # 4000044 <_stack_end+0x3efb334>
     548:	000106b7          	lui	a3,0x10
     54c:	04080813          	addi	a6,a6,64 # 4000040 <_stack_end+0x3efb330>
     550:	00072783          	lw	a5,0(a4)
     554:	fed7eee3          	bltu	a5,a3,550 <handle_exception+0x1b4>
     558:	00b82023          	sw	a1,0(a6)
     55c:	00164583          	lbu	a1,1(a2)
     560:	00160613          	addi	a2,a2,1
     564:	fe0596e3          	bnez	a1,550 <handle_exception+0x1b4>
     568:	e81ff06f          	j	3e8 <handle_exception+0x4c>
     56c:	00054603          	lbu	a2,0(a0)
     570:	02060a63          	beqz	a2,5a4 <handle_exception+0x208>
     574:	04000737          	lui	a4,0x4000
     578:	040005b7          	lui	a1,0x4000
     57c:	04470713          	addi	a4,a4,68 # 4000044 <_stack_end+0x3efb334>
     580:	000106b7          	lui	a3,0x10
     584:	04058593          	addi	a1,a1,64 # 4000040 <_stack_end+0x3efb330>
     588:	00072783          	lw	a5,0(a4)
     58c:	fed7eee3          	bltu	a5,a3,588 <handle_exception+0x1ec>
     590:	00c5a023          	sw	a2,0(a1)
     594:	00154603          	lbu	a2,1(a0)
     598:	00150513          	addi	a0,a0,1
     59c:	fe0616e3          	bnez	a2,588 <handle_exception+0x1ec>
     5a0:	00008067          	ret
     5a4:	00008067          	ret

000005a8 <nextprime>:
     5a8:	00200713          	li	a4,2
     5ac:	00050793          	mv	a5,a0
     5b0:	02a74063          	blt	a4,a0,5d0 <nextprime+0x28>
     5b4:	00100513          	li	a0,1
     5b8:	00f05a63          	blez	a5,5cc <nextprime+0x24>
     5bc:	fff78793          	addi	a5,a5,-1
     5c0:	00f037b3          	snez	a5,a5
     5c4:	00278513          	addi	a0,a5,2
     5c8:	00008067          	ret
     5cc:	00008067          	ret
     5d0:	00150793          	addi	a5,a0,1
     5d4:	0017e513          	ori	a0,a5,1
     5d8:	00300613          	li	a2,3
     5dc:	02c567b3          	rem	a5,a0,a2
     5e0:	40155693          	srai	a3,a0,0x1
     5e4:	02078263          	beqz	a5,608 <nextprime+0x60>
     5e8:	00268693          	addi	a3,a3,2 # 10002 <__global_pointer+0xaee1>
     5ec:	00300793          	li	a5,3
     5f0:	00c0006f          	j	5fc <nextprime+0x54>
     5f4:	02f56733          	rem	a4,a0,a5
     5f8:	00070863          	beqz	a4,608 <nextprime+0x60>
     5fc:	00178793          	addi	a5,a5,1
     600:	fef69ae3          	bne	a3,a5,5f4 <nextprime+0x4c>
     604:	00008067          	ret
     608:	00250513          	addi	a0,a0,2
     60c:	fd1ff06f          	j	5dc <nextprime+0x34>

00000610 <draw_pineapple.constprop.0>:
     610:	000057b7          	lui	a5,0x5
     614:	9287a683          	lw	a3,-1752(a5) # 4928 <VGA>
     618:	0000a737          	lui	a4,0xa
     61c:	ffc00793          	li	a5,-4
     620:	00e68733          	add	a4,a3,a4
     624:	32f703a3          	sb	a5,807(a4) # a327 <__global_pointer+0x5206>
     628:	32f70423          	sb	a5,808(a4)
     62c:	32f704a3          	sb	a5,809(a4)
     630:	32f70523          	sb	a5,810(a4)
     634:	32f705a3          	sb	a5,811(a4)
     638:	32f70623          	sb	a5,812(a4)
     63c:	46f703a3          	sb	a5,1127(a4)
     640:	46f70423          	sb	a5,1128(a4)
     644:	46f704a3          	sb	a5,1129(a4)
     648:	46f70523          	sb	a5,1130(a4)
     64c:	46f705a3          	sb	a5,1131(a4)
     650:	46f70623          	sb	a5,1132(a4)
     654:	5af703a3          	sb	a5,1447(a4)
     658:	5af70423          	sb	a5,1448(a4)
     65c:	5af704a3          	sb	a5,1449(a4)
     660:	5af70523          	sb	a5,1450(a4)
     664:	5af705a3          	sb	a5,1451(a4)
     668:	5af70623          	sb	a5,1452(a4)
     66c:	6ef703a3          	sb	a5,1767(a4)
     670:	6ef70423          	sb	a5,1768(a4)
     674:	6ef704a3          	sb	a5,1769(a4)
     678:	6ef70523          	sb	a5,1770(a4)
     67c:	6ef705a3          	sb	a5,1771(a4)
     680:	0000b637          	lui	a2,0xb
     684:	00c686b3          	add	a3,a3,a2
     688:	6ef70623          	sb	a5,1772(a4)
     68c:	82f683a3          	sb	a5,-2009(a3)
     690:	82f68423          	sb	a5,-2008(a3)
     694:	82f684a3          	sb	a5,-2007(a3)
     698:	82f68523          	sb	a5,-2006(a3)
     69c:	82f685a3          	sb	a5,-2005(a3)
     6a0:	82f68623          	sb	a5,-2004(a3)
     6a4:	96f683a3          	sb	a5,-1689(a3)
     6a8:	96f68423          	sb	a5,-1688(a3)
     6ac:	96f684a3          	sb	a5,-1687(a3)
     6b0:	96f68523          	sb	a5,-1686(a3)
     6b4:	96f685a3          	sb	a5,-1685(a3)
     6b8:	96f68623          	sb	a5,-1684(a3)
     6bc:	aaf683a3          	sb	a5,-1369(a3)
     6c0:	aaf68423          	sb	a5,-1368(a3)
     6c4:	aaf684a3          	sb	a5,-1367(a3)
     6c8:	aaf68523          	sb	a5,-1366(a3)
     6cc:	aaf685a3          	sb	a5,-1365(a3)
     6d0:	aaf68623          	sb	a5,-1364(a3)
     6d4:	bef683a3          	sb	a5,-1049(a3)
     6d8:	bef68423          	sb	a5,-1048(a3)
     6dc:	bef684a3          	sb	a5,-1047(a3)
     6e0:	bef68523          	sb	a5,-1046(a3)
     6e4:	bef685a3          	sb	a5,-1045(a3)
     6e8:	bef68623          	sb	a5,-1044(a3)
     6ec:	d2f683a3          	sb	a5,-729(a3)
     6f0:	d2f68423          	sb	a5,-728(a3)
     6f4:	d2f684a3          	sb	a5,-727(a3)
     6f8:	d2f68523          	sb	a5,-726(a3)
     6fc:	d2f685a3          	sb	a5,-725(a3)
     700:	d2f68623          	sb	a5,-724(a3)
     704:	01c00793          	li	a5,28
     708:	f6f704a3          	sb	a5,-151(a4)
     70c:	f6f70523          	sb	a5,-150(a4)
     710:	0af704a3          	sb	a5,169(a4)
     714:	0af70523          	sb	a5,170(a4)
     718:	1ef704a3          	sb	a5,489(a4)
     71c:	1ef70523          	sb	a5,490(a4)
     720:	0af703a3          	sb	a5,167(a4)
     724:	1ef70423          	sb	a5,488(a4)
     728:	1ef705a3          	sb	a5,491(a4)
     72c:	0af70623          	sb	a5,172(a4)
     730:	00008067          	ret

00000734 <draw_E.constprop.0>:
     734:	ff010113          	addi	sp,sp,-16
     738:	000065b7          	lui	a1,0x6
     73c:	fffff337          	lui	t1,0xfffff
     740:	000018b7          	lui	a7,0x1
     744:	00009837          	lui	a6,0x9
     748:	00812623          	sw	s0,12(sp)
     74c:	00912423          	sw	s1,8(sp)
     750:	00050793          	mv	a5,a0
     754:	86158593          	addi	a1,a1,-1951 # 5861 <__global_pointer+0x740>
     758:	00005737          	lui	a4,0x5
     75c:	38030313          	addi	t1,t1,896 # fffff380 <_stack_end+0xffefa670>
     760:	c8088893          	addi	a7,a7,-896 # c80 <draw_letter_block+0x7c>
     764:	6e180813          	addi	a6,a6,1761 # 96e1 <__global_pointer+0x45c0>
     768:	006586b3          	add	a3,a1,t1
     76c:	92872603          	lw	a2,-1752(a4) # 4928 <VGA>
     770:	00168e93          	addi	t4,a3,1
     774:	00268e13          	addi	t3,a3,2
     778:	00d60633          	add	a2,a2,a3
     77c:	00f60023          	sb	a5,0(a2) # b000 <__global_pointer+0x5edf>
     780:	92872603          	lw	a2,-1752(a4)
     784:	00368513          	addi	a0,a3,3
     788:	00468293          	addi	t0,a3,4
     78c:	01d60633          	add	a2,a2,t4
     790:	00f60023          	sb	a5,0(a2)
     794:	92872603          	lw	a2,-1752(a4)
     798:	00568f93          	addi	t6,a3,5
     79c:	00668f13          	addi	t5,a3,6
     7a0:	01c60633          	add	a2,a2,t3
     7a4:	00f60023          	sb	a5,0(a2)
     7a8:	92872603          	lw	a2,-1752(a4)
     7ac:	00768e93          	addi	t4,a3,7
     7b0:	00868e13          	addi	t3,a3,8
     7b4:	00a60633          	add	a2,a2,a0
     7b8:	00f60023          	sb	a5,0(a2)
     7bc:	92872603          	lw	a2,-1752(a4)
     7c0:	00968513          	addi	a0,a3,9
     7c4:	14068693          	addi	a3,a3,320
     7c8:	00560633          	add	a2,a2,t0
     7cc:	00f60023          	sb	a5,0(a2)
     7d0:	92872603          	lw	a2,-1752(a4)
     7d4:	01f60633          	add	a2,a2,t6
     7d8:	00f60023          	sb	a5,0(a2)
     7dc:	92872603          	lw	a2,-1752(a4)
     7e0:	01e60633          	add	a2,a2,t5
     7e4:	00f60023          	sb	a5,0(a2)
     7e8:	92872603          	lw	a2,-1752(a4)
     7ec:	01d60633          	add	a2,a2,t4
     7f0:	00f60023          	sb	a5,0(a2)
     7f4:	92872603          	lw	a2,-1752(a4)
     7f8:	01c60633          	add	a2,a2,t3
     7fc:	00f60023          	sb	a5,0(a2)
     800:	92872603          	lw	a2,-1752(a4)
     804:	00a60633          	add	a2,a2,a0
     808:	00f60023          	sb	a5,0(a2)
     80c:	f6d590e3          	bne	a1,a3,76c <draw_E.constprop.0+0x38>
     810:	011585b3          	add	a1,a1,a7
     814:	f5059ae3          	bne	a1,a6,768 <draw_E.constprop.0+0x34>
     818:	00006837          	lui	a6,0x6
     81c:	00007537          	lui	a0,0x7
     820:	000095b7          	lui	a1,0x9
     824:	ffffc337          	lui	t1,0xffffc
     828:	ffffeeb7          	lui	t4,0xffffe
     82c:	fffffe37          	lui	t3,0xfffff
     830:	000098b7          	lui	a7,0x9
     834:	86b80813          	addi	a6,a6,-1941 # 586b <__global_pointer+0x74a>
     838:	16b50513          	addi	a0,a0,363 # 716b <__global_pointer+0x204a>
     83c:	a6b58593          	addi	a1,a1,-1429 # 8a6b <__global_pointer+0x394a>
     840:	18030313          	addi	t1,t1,384 # ffffc180 <_stack_end+0xffef7470>
     844:	a80e8e93          	addi	t4,t4,-1408 # ffffda80 <_stack_end+0xffef8d70>
     848:	380e0e13          	addi	t3,t3,896 # fffff380 <_stack_end+0xffefa670>
     84c:	a9388893          	addi	a7,a7,-1389 # 8a93 <__global_pointer+0x3972>
     850:	006586b3          	add	a3,a1,t1
     854:	92872603          	lw	a2,-1752(a4)
     858:	00168293          	addi	t0,a3,1
     85c:	00268f93          	addi	t6,a3,2
     860:	00d60633          	add	a2,a2,a3
     864:	00f60023          	sb	a5,0(a2)
     868:	92872603          	lw	a2,-1752(a4)
     86c:	00368f13          	addi	t5,a3,3
     870:	00468493          	addi	s1,a3,4
     874:	00560633          	add	a2,a2,t0
     878:	00f60023          	sb	a5,0(a2)
     87c:	92872603          	lw	a2,-1752(a4)
     880:	00568413          	addi	s0,a3,5
     884:	00668393          	addi	t2,a3,6
     888:	01f60633          	add	a2,a2,t6
     88c:	00f60023          	sb	a5,0(a2)
     890:	92872603          	lw	a2,-1752(a4)
     894:	00768293          	addi	t0,a3,7
     898:	00868f93          	addi	t6,a3,8
     89c:	01e60633          	add	a2,a2,t5
     8a0:	00f60023          	sb	a5,0(a2)
     8a4:	92872603          	lw	a2,-1752(a4)
     8a8:	00968f13          	addi	t5,a3,9
     8ac:	14068693          	addi	a3,a3,320
     8b0:	00960633          	add	a2,a2,s1
     8b4:	00f60023          	sb	a5,0(a2)
     8b8:	92872603          	lw	a2,-1752(a4)
     8bc:	00860633          	add	a2,a2,s0
     8c0:	00f60023          	sb	a5,0(a2)
     8c4:	92872603          	lw	a2,-1752(a4)
     8c8:	00760633          	add	a2,a2,t2
     8cc:	00f60023          	sb	a5,0(a2)
     8d0:	92872603          	lw	a2,-1752(a4)
     8d4:	00560633          	add	a2,a2,t0
     8d8:	00f60023          	sb	a5,0(a2)
     8dc:	92872603          	lw	a2,-1752(a4)
     8e0:	01f60633          	add	a2,a2,t6
     8e4:	00f60023          	sb	a5,0(a2)
     8e8:	92872603          	lw	a2,-1752(a4)
     8ec:	01e60633          	add	a2,a2,t5
     8f0:	00f60023          	sb	a5,0(a2)
     8f4:	f6d810e3          	bne	a6,a3,854 <__heap_size+0x54>
     8f8:	01d586b3          	add	a3,a1,t4
     8fc:	92872603          	lw	a2,-1752(a4)
     900:	00168293          	addi	t0,a3,1
     904:	00268f93          	addi	t6,a3,2
     908:	00d60633          	add	a2,a2,a3
     90c:	00f60023          	sb	a5,0(a2)
     910:	92872603          	lw	a2,-1752(a4)
     914:	00368f13          	addi	t5,a3,3
     918:	00468493          	addi	s1,a3,4
     91c:	00560633          	add	a2,a2,t0
     920:	00f60023          	sb	a5,0(a2)
     924:	92872603          	lw	a2,-1752(a4)
     928:	00568413          	addi	s0,a3,5
     92c:	00668393          	addi	t2,a3,6
     930:	01f60633          	add	a2,a2,t6
     934:	00f60023          	sb	a5,0(a2)
     938:	92872603          	lw	a2,-1752(a4)
     93c:	00768293          	addi	t0,a3,7
     940:	00868f93          	addi	t6,a3,8
     944:	01e60633          	add	a2,a2,t5
     948:	00f60023          	sb	a5,0(a2)
     94c:	92872603          	lw	a2,-1752(a4)
     950:	00968f13          	addi	t5,a3,9
     954:	14068693          	addi	a3,a3,320
     958:	00960633          	add	a2,a2,s1
     95c:	00f60023          	sb	a5,0(a2)
     960:	92872603          	lw	a2,-1752(a4)
     964:	00860633          	add	a2,a2,s0
     968:	00f60023          	sb	a5,0(a2)
     96c:	92872603          	lw	a2,-1752(a4)
     970:	00760633          	add	a2,a2,t2
     974:	00f60023          	sb	a5,0(a2)
     978:	92872603          	lw	a2,-1752(a4)
     97c:	00560633          	add	a2,a2,t0
     980:	00f60023          	sb	a5,0(a2)
     984:	92872603          	lw	a2,-1752(a4)
     988:	01f60633          	add	a2,a2,t6
     98c:	00f60023          	sb	a5,0(a2)
     990:	92872603          	lw	a2,-1752(a4)
     994:	01e60633          	add	a2,a2,t5
     998:	00f60023          	sb	a5,0(a2)
     99c:	f6d510e3          	bne	a0,a3,8fc <__heap_size+0xfc>
     9a0:	01c586b3          	add	a3,a1,t3
     9a4:	92872603          	lw	a2,-1752(a4)
     9a8:	00168293          	addi	t0,a3,1
     9ac:	00268f93          	addi	t6,a3,2
     9b0:	00d60633          	add	a2,a2,a3
     9b4:	00f60023          	sb	a5,0(a2)
     9b8:	92872603          	lw	a2,-1752(a4)
     9bc:	00368f13          	addi	t5,a3,3
     9c0:	00468493          	addi	s1,a3,4
     9c4:	00560633          	add	a2,a2,t0
     9c8:	00f60023          	sb	a5,0(a2)
     9cc:	92872603          	lw	a2,-1752(a4)
     9d0:	00568413          	addi	s0,a3,5
     9d4:	00668393          	addi	t2,a3,6
     9d8:	01f60633          	add	a2,a2,t6
     9dc:	00f60023          	sb	a5,0(a2)
     9e0:	92872603          	lw	a2,-1752(a4)
     9e4:	00768293          	addi	t0,a3,7
     9e8:	00868f93          	addi	t6,a3,8
     9ec:	01e60633          	add	a2,a2,t5
     9f0:	00f60023          	sb	a5,0(a2)
     9f4:	92872603          	lw	a2,-1752(a4)
     9f8:	00968f13          	addi	t5,a3,9
     9fc:	14068693          	addi	a3,a3,320
     a00:	00960633          	add	a2,a2,s1
     a04:	00f60023          	sb	a5,0(a2)
     a08:	92872603          	lw	a2,-1752(a4)
     a0c:	00860633          	add	a2,a2,s0
     a10:	00f60023          	sb	a5,0(a2)
     a14:	92872603          	lw	a2,-1752(a4)
     a18:	00760633          	add	a2,a2,t2
     a1c:	00f60023          	sb	a5,0(a2)
     a20:	92872603          	lw	a2,-1752(a4)
     a24:	00560633          	add	a2,a2,t0
     a28:	00f60023          	sb	a5,0(a2)
     a2c:	92872603          	lw	a2,-1752(a4)
     a30:	01f60633          	add	a2,a2,t6
     a34:	00f60023          	sb	a5,0(a2)
     a38:	92872603          	lw	a2,-1752(a4)
     a3c:	01e60633          	add	a2,a2,t5
     a40:	00f60023          	sb	a5,0(a2)
     a44:	f6d590e3          	bne	a1,a3,9a4 <__heap_size+0x1a4>
     a48:	00a58593          	addi	a1,a1,10
     a4c:	00a50513          	addi	a0,a0,10
     a50:	00a80813          	addi	a6,a6,10
     a54:	df159ee3          	bne	a1,a7,850 <__heap_size+0x50>
     a58:	00c12403          	lw	s0,12(sp)
     a5c:	00812483          	lw	s1,8(sp)
     a60:	01010113          	addi	sp,sp,16
     a64:	00008067          	ret

00000a68 <draw_grid_block.constprop.0>:
     a68:	00002837          	lui	a6,0x2
     a6c:	00158593          	addi	a1,a1,1
     a70:	90080813          	addi	a6,a6,-1792 # 1900 <draw_M+0x308>
     a74:	03058833          	mul	a6,a1,a6
     a78:	00251793          	slli	a5,a0,0x2
     a7c:	00a788b3          	add	a7,a5,a0
     a80:	000027b7          	lui	a5,0x2
     a84:	00289893          	slli	a7,a7,0x2
     a88:	95078793          	addi	a5,a5,-1712 # 1950 <draw_M+0x358>
     a8c:	03c88e13          	addi	t3,a7,60
     a90:	000056b7          	lui	a3,0x5
     a94:	01088633          	add	a2,a7,a6
     a98:	00f807b3          	add	a5,a6,a5
     a9c:	05060613          	addi	a2,a2,80
     aa0:	01178533          	add	a0,a5,a7
     aa4:	fec60793          	addi	a5,a2,-20
     aa8:	9286a703          	lw	a4,-1752(a3) # 4928 <VGA>
     aac:	00f70733          	add	a4,a4,a5
     ab0:	00070023          	sb	zero,0(a4)
     ab4:	00178793          	addi	a5,a5,1
     ab8:	fec798e3          	bne	a5,a2,aa8 <draw_grid_block.constprop.0+0x40>
     abc:	14078613          	addi	a2,a5,320
     ac0:	fea612e3          	bne	a2,a0,aa4 <draw_grid_block.constprop.0+0x3c>
     ac4:	000027b7          	lui	a5,0x2
     ac8:	90078793          	addi	a5,a5,-1792 # 1900 <draw_M+0x308>
     acc:	02f58733          	mul	a4,a1,a5
     ad0:	000027b7          	lui	a5,0x2
     ad4:	93c78793          	addi	a5,a5,-1732 # 193c <draw_M+0x344>
     ad8:	00f80833          	add	a6,a6,a5
     adc:	00001337          	lui	t1,0x1
     ae0:	011808b3          	add	a7,a6,a7
     ae4:	00300613          	li	a2,3
     ae8:	7c030313          	addi	t1,t1,1984 # 17c0 <draw_M+0x1c8>
     aec:	01c70733          	add	a4,a4,t3
     af0:	00070793          	mv	a5,a4
     af4:	9286a583          	lw	a1,-1752(a3)
     af8:	00670533          	add	a0,a4,t1
     afc:	01378813          	addi	a6,a5,19
     b00:	00e585b3          	add	a1,a1,a4
     b04:	00c58023          	sb	a2,0(a1)
     b08:	9286a583          	lw	a1,-1752(a3)
     b0c:	00170713          	addi	a4,a4,1
     b10:	00f585b3          	add	a1,a1,a5
     b14:	00c58023          	sb	a2,0(a1)
     b18:	9286a583          	lw	a1,-1752(a3)
     b1c:	14078793          	addi	a5,a5,320
     b20:	00a585b3          	add	a1,a1,a0
     b24:	00c58023          	sb	a2,0(a1)
     b28:	9286a583          	lw	a1,-1752(a3)
     b2c:	010585b3          	add	a1,a1,a6
     b30:	00c58023          	sb	a2,0(a1)
     b34:	fcf890e3          	bne	a7,a5,af4 <draw_grid_block.constprop.0+0x8c>
     b38:	00008067          	ret

00000b3c <get_sw>:
     b3c:	040007b7          	lui	a5,0x4000
     b40:	0107a503          	lw	a0,16(a5) # 4000010 <_stack_end+0x3efb300>
     b44:	00157513          	andi	a0,a0,1
     b48:	00008067          	ret

00000b4c <get_btn>:
     b4c:	040007b7          	lui	a5,0x4000
     b50:	0d07c503          	lbu	a0,208(a5) # 40000d0 <_stack_end+0x3efb3c0>
     b54:	00157513          	andi	a0,a0,1
     b58:	00008067          	ret

00000b5c <pseudo_random_number_generator>:
     b5c:	00005737          	lui	a4,0x5
     b60:	92c72503          	lw	a0,-1748(a4) # 492c <random_number_seed>
     b64:	004dc7b7          	lui	a5,0x4dc
     b68:	70178793          	addi	a5,a5,1793 # 4dc701 <_stack_end+0x3d79f1>
     b6c:	02f50533          	mul	a0,a0,a5
     b70:	000147b7          	lui	a5,0x14
     b74:	e2078793          	addi	a5,a5,-480 # 13e20 <__global_pointer+0xecff>
     b78:	00f50533          	add	a0,a0,a5
     b7c:	00c51513          	slli	a0,a0,0xc
     b80:	00c55513          	srli	a0,a0,0xc
     b84:	92a72623          	sw	a0,-1748(a4)
     b88:	00008067          	ret

00000b8c <show_framebuffer>:
     b8c:	000057b7          	lui	a5,0x5
     b90:	00005737          	lui	a4,0x5
     b94:	9247a783          	lw	a5,-1756(a5) # 4924 <VGA_CTRL>
     b98:	92872703          	lw	a4,-1752(a4) # 4928 <VGA>
     b9c:	00e7a223          	sw	a4,4(a5)
     ba0:	0007a023          	sw	zero,0(a5)
     ba4:	00008067          	ret

00000ba8 <draw_block>:
     ba8:	00002737          	lui	a4,0x2
     bac:	00158793          	addi	a5,a1,1
     bb0:	90070713          	addi	a4,a4,-1792 # 1900 <draw_M+0x308>
     bb4:	02e787b3          	mul	a5,a5,a4
     bb8:	00251713          	slli	a4,a0,0x2
     bbc:	00a70733          	add	a4,a4,a0
     bc0:	00002537          	lui	a0,0x2
     bc4:	00271713          	slli	a4,a4,0x2
     bc8:	95050513          	addi	a0,a0,-1712 # 1950 <draw_M+0x358>
     bcc:	000055b7          	lui	a1,0x5
     bd0:	00f706b3          	add	a3,a4,a5
     bd4:	00a787b3          	add	a5,a5,a0
     bd8:	05068693          	addi	a3,a3,80
     bdc:	00e78533          	add	a0,a5,a4
     be0:	fec68793          	addi	a5,a3,-20
     be4:	9285a703          	lw	a4,-1752(a1) # 4928 <VGA>
     be8:	00f70733          	add	a4,a4,a5
     bec:	00c70023          	sb	a2,0(a4)
     bf0:	00178793          	addi	a5,a5,1
     bf4:	fed798e3          	bne	a5,a3,be4 <draw_block+0x3c>
     bf8:	14078693          	addi	a3,a5,320
     bfc:	fea692e3          	bne	a3,a0,be0 <draw_block+0x38>
     c00:	00008067          	ret

00000c04 <draw_letter_block>:
     c04:	000017b7          	lui	a5,0x1
     c08:	c8078793          	addi	a5,a5,-896 # c80 <draw_letter_block+0x7c>
     c0c:	02f58733          	mul	a4,a1,a5
     c10:	00259793          	slli	a5,a1,0x2
     c14:	00b787b3          	add	a5,a5,a1
     c18:	00179793          	slli	a5,a5,0x1
     c1c:	01e78793          	addi	a5,a5,30
     c20:	00251693          	slli	a3,a0,0x2
     c24:	00279593          	slli	a1,a5,0x2
     c28:	00a686b3          	add	a3,a3,a0
     c2c:	00003537          	lui	a0,0x3
     c30:	00169693          	slli	a3,a3,0x1
     c34:	00f587b3          	add	a5,a1,a5
     c38:	21950513          	addi	a0,a0,537 # 3219 <draw_GAMEOVER+0x141>
     c3c:	00a70733          	add	a4,a4,a0
     c40:	00679793          	slli	a5,a5,0x6
     c44:	01968593          	addi	a1,a3,25
     c48:	00d708b3          	add	a7,a4,a3
     c4c:	00b787b3          	add	a5,a5,a1
     c50:	00005737          	lui	a4,0x5
     c54:	92872683          	lw	a3,-1752(a4) # 4928 <VGA>
     c58:	00178813          	addi	a6,a5,1
     c5c:	00278513          	addi	a0,a5,2
     c60:	00f686b3          	add	a3,a3,a5
     c64:	00c68023          	sb	a2,0(a3)
     c68:	92872683          	lw	a3,-1752(a4)
     c6c:	00378593          	addi	a1,a5,3
     c70:	00478e93          	addi	t4,a5,4
     c74:	010686b3          	add	a3,a3,a6
     c78:	00c68023          	sb	a2,0(a3)
     c7c:	92872683          	lw	a3,-1752(a4)
     c80:	00578e13          	addi	t3,a5,5
     c84:	00678313          	addi	t1,a5,6
     c88:	00a686b3          	add	a3,a3,a0
     c8c:	00c68023          	sb	a2,0(a3)
     c90:	92872683          	lw	a3,-1752(a4)
     c94:	00778813          	addi	a6,a5,7
     c98:	00878513          	addi	a0,a5,8
     c9c:	00b686b3          	add	a3,a3,a1
     ca0:	00c68023          	sb	a2,0(a3)
     ca4:	92872683          	lw	a3,-1752(a4)
     ca8:	00978593          	addi	a1,a5,9
     cac:	14078793          	addi	a5,a5,320
     cb0:	01d686b3          	add	a3,a3,t4
     cb4:	00c68023          	sb	a2,0(a3)
     cb8:	92872683          	lw	a3,-1752(a4)
     cbc:	01c686b3          	add	a3,a3,t3
     cc0:	00c68023          	sb	a2,0(a3)
     cc4:	92872683          	lw	a3,-1752(a4)
     cc8:	006686b3          	add	a3,a3,t1
     ccc:	00c68023          	sb	a2,0(a3)
     cd0:	92872683          	lw	a3,-1752(a4)
     cd4:	010686b3          	add	a3,a3,a6
     cd8:	00c68023          	sb	a2,0(a3)
     cdc:	92872683          	lw	a3,-1752(a4)
     ce0:	00a686b3          	add	a3,a3,a0
     ce4:	00c68023          	sb	a2,0(a3)
     ce8:	92872683          	lw	a3,-1752(a4)
     cec:	00b686b3          	add	a3,a3,a1
     cf0:	00c68023          	sb	a2,0(a3)
     cf4:	f6f890e3          	bne	a7,a5,c54 <draw_letter_block+0x50>
     cf8:	00008067          	ret

00000cfc <draw_pixel_on_block>:
     cfc:	00158593          	addi	a1,a1,1
     d00:	00259793          	slli	a5,a1,0x2
     d04:	00b787b3          	add	a5,a5,a1
     d08:	00279593          	slli	a1,a5,0x2
     d0c:	00251793          	slli	a5,a0,0x2
     d10:	00d586b3          	add	a3,a1,a3
     d14:	00a787b3          	add	a5,a5,a0
     d18:	00269593          	slli	a1,a3,0x2
     d1c:	00279793          	slli	a5,a5,0x2
     d20:	00005537          	lui	a0,0x5
     d24:	92852503          	lw	a0,-1752(a0) # 4928 <VGA>
     d28:	00d585b3          	add	a1,a1,a3
     d2c:	03c78793          	addi	a5,a5,60
     d30:	00659593          	slli	a1,a1,0x6
     d34:	00c787b3          	add	a5,a5,a2
     d38:	00f585b3          	add	a1,a1,a5
     d3c:	00b50533          	add	a0,a0,a1
     d40:	00e50023          	sb	a4,0(a0)
     d44:	00008067          	ret

00000d48 <draw_grid_block>:
     d48:	000028b7          	lui	a7,0x2
     d4c:	00158813          	addi	a6,a1,1
     d50:	90088893          	addi	a7,a7,-1792 # 1900 <draw_M+0x308>
     d54:	031808b3          	mul	a7,a6,a7
     d58:	00251793          	slli	a5,a0,0x2
     d5c:	00a78e33          	add	t3,a5,a0
     d60:	000027b7          	lui	a5,0x2
     d64:	002e1e13          	slli	t3,t3,0x2
     d68:	95078793          	addi	a5,a5,-1712 # 1950 <draw_M+0x358>
     d6c:	03ce0e93          	addi	t4,t3,60
     d70:	000056b7          	lui	a3,0x5
     d74:	011e05b3          	add	a1,t3,a7
     d78:	00f887b3          	add	a5,a7,a5
     d7c:	05058593          	addi	a1,a1,80
     d80:	01c78533          	add	a0,a5,t3
     d84:	fec58793          	addi	a5,a1,-20
     d88:	9286a703          	lw	a4,-1752(a3) # 4928 <VGA>
     d8c:	00f70733          	add	a4,a4,a5
     d90:	00c70023          	sb	a2,0(a4)
     d94:	00178793          	addi	a5,a5,1
     d98:	feb798e3          	bne	a5,a1,d88 <draw_grid_block+0x40>
     d9c:	14078593          	addi	a1,a5,320
     da0:	fea592e3          	bne	a1,a0,d84 <draw_grid_block+0x3c>
     da4:	000027b7          	lui	a5,0x2
     da8:	90078793          	addi	a5,a5,-1792 # 1900 <draw_M+0x308>
     dac:	02f80733          	mul	a4,a6,a5
     db0:	000027b7          	lui	a5,0x2
     db4:	93c78793          	addi	a5,a5,-1732 # 193c <draw_M+0x344>
     db8:	00f888b3          	add	a7,a7,a5
     dbc:	00001337          	lui	t1,0x1
     dc0:	01c888b3          	add	a7,a7,t3
     dc4:	00300613          	li	a2,3
     dc8:	7c030313          	addi	t1,t1,1984 # 17c0 <draw_M+0x1c8>
     dcc:	01d70733          	add	a4,a4,t4
     dd0:	00070793          	mv	a5,a4
     dd4:	9286a583          	lw	a1,-1752(a3)
     dd8:	00670533          	add	a0,a4,t1
     ddc:	01378813          	addi	a6,a5,19
     de0:	00e585b3          	add	a1,a1,a4
     de4:	00c58023          	sb	a2,0(a1)
     de8:	9286a583          	lw	a1,-1752(a3)
     dec:	00170713          	addi	a4,a4,1
     df0:	00f585b3          	add	a1,a1,a5
     df4:	00c58023          	sb	a2,0(a1)
     df8:	9286a583          	lw	a1,-1752(a3)
     dfc:	14078793          	addi	a5,a5,320
     e00:	00a585b3          	add	a1,a1,a0
     e04:	00c58023          	sb	a2,0(a1)
     e08:	9286a583          	lw	a1,-1752(a3)
     e0c:	010585b3          	add	a1,a1,a6
     e10:	00c58023          	sb	a2,0(a1)
     e14:	fcf890e3          	bne	a7,a5,dd4 <draw_grid_block+0x8c>
     e18:	00008067          	ret

00000e1c <draw_G>:
     e1c:	000055b7          	lui	a1,0x5
     e20:	00009637          	lui	a2,0x9
     e24:	ffffc8b7          	lui	a7,0xffffc
     e28:	fffff337          	lui	t1,0xfffff
     e2c:	00009837          	lui	a6,0x9
     e30:	7b758593          	addi	a1,a1,1975 # 57b7 <__global_pointer+0x696>
     e34:	9b760613          	addi	a2,a2,-1609 # 89b7 <__global_pointer+0x3896>
     e38:	000057b7          	lui	a5,0x5
     e3c:	18088893          	addi	a7,a7,384 # ffffc180 <_stack_end+0xffef7470>
     e40:	38030313          	addi	t1,t1,896 # fffff380 <_stack_end+0xffefa670>
     e44:	9df80813          	addi	a6,a6,-1569 # 89df <__global_pointer+0x38be>
     e48:	01160733          	add	a4,a2,a7
     e4c:	9287a683          	lw	a3,-1752(a5) # 4928 <VGA>
     e50:	00170f13          	addi	t5,a4,1
     e54:	00270e93          	addi	t4,a4,2
     e58:	00e686b3          	add	a3,a3,a4
     e5c:	00a68023          	sb	a0,0(a3)
     e60:	9287a683          	lw	a3,-1752(a5)
     e64:	00370e13          	addi	t3,a4,3
     e68:	00470393          	addi	t2,a4,4
     e6c:	01e686b3          	add	a3,a3,t5
     e70:	00a68023          	sb	a0,0(a3)
     e74:	9287a683          	lw	a3,-1752(a5)
     e78:	00570293          	addi	t0,a4,5
     e7c:	00670f93          	addi	t6,a4,6
     e80:	01d686b3          	add	a3,a3,t4
     e84:	00a68023          	sb	a0,0(a3)
     e88:	9287a683          	lw	a3,-1752(a5)
     e8c:	00770f13          	addi	t5,a4,7
     e90:	00870e93          	addi	t4,a4,8
     e94:	01c686b3          	add	a3,a3,t3
     e98:	00a68023          	sb	a0,0(a3)
     e9c:	9287a683          	lw	a3,-1752(a5)
     ea0:	00970e13          	addi	t3,a4,9
     ea4:	14070713          	addi	a4,a4,320
     ea8:	007686b3          	add	a3,a3,t2
     eac:	00a68023          	sb	a0,0(a3)
     eb0:	9287a683          	lw	a3,-1752(a5)
     eb4:	005686b3          	add	a3,a3,t0
     eb8:	00a68023          	sb	a0,0(a3)
     ebc:	9287a683          	lw	a3,-1752(a5)
     ec0:	01f686b3          	add	a3,a3,t6
     ec4:	00a68023          	sb	a0,0(a3)
     ec8:	9287a683          	lw	a3,-1752(a5)
     ecc:	01e686b3          	add	a3,a3,t5
     ed0:	00a68023          	sb	a0,0(a3)
     ed4:	9287a683          	lw	a3,-1752(a5)
     ed8:	01d686b3          	add	a3,a3,t4
     edc:	00a68023          	sb	a0,0(a3)
     ee0:	9287a683          	lw	a3,-1752(a5)
     ee4:	01c686b3          	add	a3,a3,t3
     ee8:	00a68023          	sb	a0,0(a3)
     eec:	f6e590e3          	bne	a1,a4,e4c <draw_G+0x30>
     ef0:	00660733          	add	a4,a2,t1
     ef4:	9287a683          	lw	a3,-1752(a5)
     ef8:	00170f13          	addi	t5,a4,1
     efc:	00270e93          	addi	t4,a4,2
     f00:	00e686b3          	add	a3,a3,a4
     f04:	00a68023          	sb	a0,0(a3)
     f08:	9287a683          	lw	a3,-1752(a5)
     f0c:	00370e13          	addi	t3,a4,3
     f10:	00470393          	addi	t2,a4,4
     f14:	01e686b3          	add	a3,a3,t5
     f18:	00a68023          	sb	a0,0(a3)
     f1c:	9287a683          	lw	a3,-1752(a5)
     f20:	00570293          	addi	t0,a4,5
     f24:	00670f93          	addi	t6,a4,6
     f28:	01d686b3          	add	a3,a3,t4
     f2c:	00a68023          	sb	a0,0(a3)
     f30:	9287a683          	lw	a3,-1752(a5)
     f34:	00770f13          	addi	t5,a4,7
     f38:	00870e93          	addi	t4,a4,8
     f3c:	01c686b3          	add	a3,a3,t3
     f40:	00a68023          	sb	a0,0(a3)
     f44:	9287a683          	lw	a3,-1752(a5)
     f48:	00970e13          	addi	t3,a4,9
     f4c:	14070713          	addi	a4,a4,320
     f50:	007686b3          	add	a3,a3,t2
     f54:	00a68023          	sb	a0,0(a3)
     f58:	9287a683          	lw	a3,-1752(a5)
     f5c:	005686b3          	add	a3,a3,t0
     f60:	00a68023          	sb	a0,0(a3)
     f64:	9287a683          	lw	a3,-1752(a5)
     f68:	01f686b3          	add	a3,a3,t6
     f6c:	00a68023          	sb	a0,0(a3)
     f70:	9287a683          	lw	a3,-1752(a5)
     f74:	01e686b3          	add	a3,a3,t5
     f78:	00a68023          	sb	a0,0(a3)
     f7c:	9287a683          	lw	a3,-1752(a5)
     f80:	01d686b3          	add	a3,a3,t4
     f84:	00a68023          	sb	a0,0(a3)
     f88:	9287a683          	lw	a3,-1752(a5)
     f8c:	01c686b3          	add	a3,a3,t3
     f90:	00a68023          	sb	a0,0(a3)
     f94:	f6e610e3          	bne	a2,a4,ef4 <draw_G+0xd8>
     f98:	00a60613          	addi	a2,a2,10
     f9c:	00a58593          	addi	a1,a1,10
     fa0:	eb0614e3          	bne	a2,a6,e48 <draw_G+0x2c>
     fa4:	000065b7          	lui	a1,0x6
     fa8:	00007637          	lui	a2,0x7
     fac:	fffff837          	lui	a6,0xfffff
     fb0:	00001337          	lui	t1,0x1
     fb4:	000078b7          	lui	a7,0x7
     fb8:	42d58593          	addi	a1,a1,1069 # 642d <__global_pointer+0x130c>
     fbc:	0c160613          	addi	a2,a2,193 # 70c1 <__global_pointer+0x1fa0>
     fc0:	38080813          	addi	a6,a6,896 # fffff380 <_stack_end+0xffefa670>
     fc4:	c8030313          	addi	t1,t1,-896 # c80 <draw_letter_block+0x7c>
     fc8:	0df88893          	addi	a7,a7,223 # 70df <__global_pointer+0x1fbe>
     fcc:	01058733          	add	a4,a1,a6
     fd0:	9287a683          	lw	a3,-1752(a5)
     fd4:	00170f13          	addi	t5,a4,1
     fd8:	00270e93          	addi	t4,a4,2
     fdc:	00e686b3          	add	a3,a3,a4
     fe0:	00a68023          	sb	a0,0(a3)
     fe4:	9287a683          	lw	a3,-1752(a5)
     fe8:	00370e13          	addi	t3,a4,3
     fec:	00470393          	addi	t2,a4,4
     ff0:	01e686b3          	add	a3,a3,t5
     ff4:	00a68023          	sb	a0,0(a3)
     ff8:	9287a683          	lw	a3,-1752(a5)
     ffc:	00570293          	addi	t0,a4,5
    1000:	00670f93          	addi	t6,a4,6
    1004:	01d686b3          	add	a3,a3,t4
    1008:	00a68023          	sb	a0,0(a3)
    100c:	9287a683          	lw	a3,-1752(a5)
    1010:	00770f13          	addi	t5,a4,7
    1014:	00870e93          	addi	t4,a4,8
    1018:	01c686b3          	add	a3,a3,t3
    101c:	00a68023          	sb	a0,0(a3)
    1020:	9287a683          	lw	a3,-1752(a5)
    1024:	00970e13          	addi	t3,a4,9
    1028:	14070713          	addi	a4,a4,320
    102c:	007686b3          	add	a3,a3,t2
    1030:	00a68023          	sb	a0,0(a3)
    1034:	9287a683          	lw	a3,-1752(a5)
    1038:	005686b3          	add	a3,a3,t0
    103c:	00a68023          	sb	a0,0(a3)
    1040:	9287a683          	lw	a3,-1752(a5)
    1044:	01f686b3          	add	a3,a3,t6
    1048:	00a68023          	sb	a0,0(a3)
    104c:	9287a683          	lw	a3,-1752(a5)
    1050:	01e686b3          	add	a3,a3,t5
    1054:	00a68023          	sb	a0,0(a3)
    1058:	9287a683          	lw	a3,-1752(a5)
    105c:	01d686b3          	add	a3,a3,t4
    1060:	00a68023          	sb	a0,0(a3)
    1064:	9287a683          	lw	a3,-1752(a5)
    1068:	01c686b3          	add	a3,a3,t3
    106c:	00a68023          	sb	a0,0(a3)
    1070:	f6e590e3          	bne	a1,a4,fd0 <draw_G+0x1b4>
    1074:	01060733          	add	a4,a2,a6
    1078:	9287a683          	lw	a3,-1752(a5)
    107c:	00170f13          	addi	t5,a4,1
    1080:	00270e93          	addi	t4,a4,2
    1084:	00e686b3          	add	a3,a3,a4
    1088:	00a68023          	sb	a0,0(a3)
    108c:	9287a683          	lw	a3,-1752(a5)
    1090:	00370e13          	addi	t3,a4,3
    1094:	00470393          	addi	t2,a4,4
    1098:	01e686b3          	add	a3,a3,t5
    109c:	00a68023          	sb	a0,0(a3)
    10a0:	9287a683          	lw	a3,-1752(a5)
    10a4:	00570293          	addi	t0,a4,5
    10a8:	00670f93          	addi	t6,a4,6
    10ac:	01d686b3          	add	a3,a3,t4
    10b0:	00a68023          	sb	a0,0(a3)
    10b4:	9287a683          	lw	a3,-1752(a5)
    10b8:	00770f13          	addi	t5,a4,7
    10bc:	00870e93          	addi	t4,a4,8
    10c0:	01c686b3          	add	a3,a3,t3
    10c4:	00a68023          	sb	a0,0(a3)
    10c8:	9287a683          	lw	a3,-1752(a5)
    10cc:	00970e13          	addi	t3,a4,9
    10d0:	14070713          	addi	a4,a4,320
    10d4:	007686b3          	add	a3,a3,t2
    10d8:	00a68023          	sb	a0,0(a3)
    10dc:	9287a683          	lw	a3,-1752(a5)
    10e0:	005686b3          	add	a3,a3,t0
    10e4:	00a68023          	sb	a0,0(a3)
    10e8:	9287a683          	lw	a3,-1752(a5)
    10ec:	01f686b3          	add	a3,a3,t6
    10f0:	00a68023          	sb	a0,0(a3)
    10f4:	9287a683          	lw	a3,-1752(a5)
    10f8:	01e686b3          	add	a3,a3,t5
    10fc:	00a68023          	sb	a0,0(a3)
    1100:	9287a683          	lw	a3,-1752(a5)
    1104:	01d686b3          	add	a3,a3,t4
    1108:	00a68023          	sb	a0,0(a3)
    110c:	9287a683          	lw	a3,-1752(a5)
    1110:	01c686b3          	add	a3,a3,t3
    1114:	00a68023          	sb	a0,0(a3)
    1118:	f6e610e3          	bne	a2,a4,1078 <draw_G+0x25c>
    111c:	00a60613          	addi	a2,a2,10
    1120:	006585b3          	add	a1,a1,t1
    1124:	eb1614e3          	bne	a2,a7,fcc <draw_G+0x1b0>
    1128:	9287a703          	lw	a4,-1752(a5)
    112c:	000077b7          	lui	a5,0x7
    1130:	000086b7          	lui	a3,0x8
    1134:	00f707b3          	add	a5,a4,a5
    1138:	0ca78aa3          	sb	a0,213(a5) # 70d5 <__global_pointer+0x1fb4>
    113c:	0ca78b23          	sb	a0,214(a5)
    1140:	0ca78ba3          	sb	a0,215(a5)
    1144:	0ca78c23          	sb	a0,216(a5)
    1148:	0ca78ca3          	sb	a0,217(a5)
    114c:	0ca78d23          	sb	a0,218(a5)
    1150:	0ca78da3          	sb	a0,219(a5)
    1154:	0ca78e23          	sb	a0,220(a5)
    1158:	0ca78ea3          	sb	a0,221(a5)
    115c:	0ca78f23          	sb	a0,222(a5)
    1160:	20a78aa3          	sb	a0,533(a5)
    1164:	20a78b23          	sb	a0,534(a5)
    1168:	20a78ba3          	sb	a0,535(a5)
    116c:	20a78c23          	sb	a0,536(a5)
    1170:	20a78ca3          	sb	a0,537(a5)
    1174:	20a78d23          	sb	a0,538(a5)
    1178:	20a78da3          	sb	a0,539(a5)
    117c:	20a78e23          	sb	a0,540(a5)
    1180:	20a78ea3          	sb	a0,541(a5)
    1184:	20a78f23          	sb	a0,542(a5)
    1188:	34a78aa3          	sb	a0,853(a5)
    118c:	34a78b23          	sb	a0,854(a5)
    1190:	34a78ba3          	sb	a0,855(a5)
    1194:	34a78c23          	sb	a0,856(a5)
    1198:	34a78ca3          	sb	a0,857(a5)
    119c:	34a78d23          	sb	a0,858(a5)
    11a0:	34a78da3          	sb	a0,859(a5)
    11a4:	34a78e23          	sb	a0,860(a5)
    11a8:	34a78ea3          	sb	a0,861(a5)
    11ac:	34a78f23          	sb	a0,862(a5)
    11b0:	48a78aa3          	sb	a0,1173(a5)
    11b4:	48a78b23          	sb	a0,1174(a5)
    11b8:	48a78ba3          	sb	a0,1175(a5)
    11bc:	48a78c23          	sb	a0,1176(a5)
    11c0:	48a78ca3          	sb	a0,1177(a5)
    11c4:	48a78d23          	sb	a0,1178(a5)
    11c8:	48a78da3          	sb	a0,1179(a5)
    11cc:	48a78e23          	sb	a0,1180(a5)
    11d0:	48a78ea3          	sb	a0,1181(a5)
    11d4:	48a78f23          	sb	a0,1182(a5)
    11d8:	5ca78aa3          	sb	a0,1493(a5)
    11dc:	5ca78b23          	sb	a0,1494(a5)
    11e0:	5ca78ba3          	sb	a0,1495(a5)
    11e4:	5ca78c23          	sb	a0,1496(a5)
    11e8:	5ca78ca3          	sb	a0,1497(a5)
    11ec:	5ca78d23          	sb	a0,1498(a5)
    11f0:	5ca78da3          	sb	a0,1499(a5)
    11f4:	5ca78e23          	sb	a0,1500(a5)
    11f8:	5ca78ea3          	sb	a0,1501(a5)
    11fc:	5ca78f23          	sb	a0,1502(a5)
    1200:	70a78aa3          	sb	a0,1813(a5)
    1204:	70a78b23          	sb	a0,1814(a5)
    1208:	70a78ba3          	sb	a0,1815(a5)
    120c:	70a78c23          	sb	a0,1816(a5)
    1210:	70a78ca3          	sb	a0,1817(a5)
    1214:	70a78d23          	sb	a0,1818(a5)
    1218:	70a78da3          	sb	a0,1819(a5)
    121c:	70a78e23          	sb	a0,1820(a5)
    1220:	70a78ea3          	sb	a0,1821(a5)
    1224:	00d70733          	add	a4,a4,a3
    1228:	70a78f23          	sb	a0,1822(a5)
    122c:	84a70aa3          	sb	a0,-1963(a4)
    1230:	84a70b23          	sb	a0,-1962(a4)
    1234:	84a70ba3          	sb	a0,-1961(a4)
    1238:	84a70c23          	sb	a0,-1960(a4)
    123c:	84a70ca3          	sb	a0,-1959(a4)
    1240:	84a70d23          	sb	a0,-1958(a4)
    1244:	84a70da3          	sb	a0,-1957(a4)
    1248:	84a70e23          	sb	a0,-1956(a4)
    124c:	84a70ea3          	sb	a0,-1955(a4)
    1250:	84a70f23          	sb	a0,-1954(a4)
    1254:	98a70aa3          	sb	a0,-1643(a4)
    1258:	98a70b23          	sb	a0,-1642(a4)
    125c:	98a70ba3          	sb	a0,-1641(a4)
    1260:	98a70c23          	sb	a0,-1640(a4)
    1264:	98a70ca3          	sb	a0,-1639(a4)
    1268:	98a70d23          	sb	a0,-1638(a4)
    126c:	98a70da3          	sb	a0,-1637(a4)
    1270:	98a70e23          	sb	a0,-1636(a4)
    1274:	98a70ea3          	sb	a0,-1635(a4)
    1278:	98a70f23          	sb	a0,-1634(a4)
    127c:	aca70aa3          	sb	a0,-1323(a4)
    1280:	aca70b23          	sb	a0,-1322(a4)
    1284:	aca70ba3          	sb	a0,-1321(a4)
    1288:	aca70c23          	sb	a0,-1320(a4)
    128c:	aca70ca3          	sb	a0,-1319(a4)
    1290:	aca70d23          	sb	a0,-1318(a4)
    1294:	aca70da3          	sb	a0,-1317(a4)
    1298:	aca70e23          	sb	a0,-1316(a4)
    129c:	aca70ea3          	sb	a0,-1315(a4)
    12a0:	aca70f23          	sb	a0,-1314(a4)
    12a4:	c0a70aa3          	sb	a0,-1003(a4)
    12a8:	c0a70b23          	sb	a0,-1002(a4)
    12ac:	c0a70ba3          	sb	a0,-1001(a4)
    12b0:	c0a70c23          	sb	a0,-1000(a4)
    12b4:	c0a70ca3          	sb	a0,-999(a4)
    12b8:	c0a70d23          	sb	a0,-998(a4)
    12bc:	c0a70da3          	sb	a0,-997(a4)
    12c0:	c0a70e23          	sb	a0,-996(a4)
    12c4:	c0a70ea3          	sb	a0,-995(a4)
    12c8:	c0a70f23          	sb	a0,-994(a4)
    12cc:	00008067          	ret

000012d0 <draw_A>:
    12d0:	ff010113          	addi	sp,sp,-16
    12d4:	000055b7          	lui	a1,0x5
    12d8:	fffff8b7          	lui	a7,0xfffff
    12dc:	00006837          	lui	a6,0x6
    12e0:	00812623          	sw	s0,12(sp)
    12e4:	00912423          	sw	s1,8(sp)
    12e8:	7f358593          	addi	a1,a1,2035 # 57f3 <__global_pointer+0x6d2>
    12ec:	000057b7          	lui	a5,0x5
    12f0:	38088893          	addi	a7,a7,896 # fffff380 <_stack_end+0xffefa670>
    12f4:	81180813          	addi	a6,a6,-2031 # 5811 <__global_pointer+0x6f0>
    12f8:	01158733          	add	a4,a1,a7
    12fc:	9287a683          	lw	a3,-1752(a5) # 4928 <VGA>
    1300:	00170e13          	addi	t3,a4,1
    1304:	00270313          	addi	t1,a4,2
    1308:	00e686b3          	add	a3,a3,a4
    130c:	00a68023          	sb	a0,0(a3) # 8000 <__global_pointer+0x2edf>
    1310:	9287a683          	lw	a3,-1752(a5)
    1314:	00370613          	addi	a2,a4,3
    1318:	00470f93          	addi	t6,a4,4
    131c:	01c686b3          	add	a3,a3,t3
    1320:	00a68023          	sb	a0,0(a3)
    1324:	9287a683          	lw	a3,-1752(a5)
    1328:	00570f13          	addi	t5,a4,5
    132c:	00670e93          	addi	t4,a4,6
    1330:	006686b3          	add	a3,a3,t1
    1334:	00a68023          	sb	a0,0(a3)
    1338:	9287a683          	lw	a3,-1752(a5)
    133c:	00770e13          	addi	t3,a4,7
    1340:	00870313          	addi	t1,a4,8
    1344:	00c686b3          	add	a3,a3,a2
    1348:	00a68023          	sb	a0,0(a3)
    134c:	9287a683          	lw	a3,-1752(a5)
    1350:	00970613          	addi	a2,a4,9
    1354:	14070713          	addi	a4,a4,320
    1358:	01f686b3          	add	a3,a3,t6
    135c:	00a68023          	sb	a0,0(a3)
    1360:	9287a683          	lw	a3,-1752(a5)
    1364:	01e686b3          	add	a3,a3,t5
    1368:	00a68023          	sb	a0,0(a3)
    136c:	9287a683          	lw	a3,-1752(a5)
    1370:	01d686b3          	add	a3,a3,t4
    1374:	00a68023          	sb	a0,0(a3)
    1378:	9287a683          	lw	a3,-1752(a5)
    137c:	01c686b3          	add	a3,a3,t3
    1380:	00a68023          	sb	a0,0(a3)
    1384:	9287a683          	lw	a3,-1752(a5)
    1388:	006686b3          	add	a3,a3,t1
    138c:	00a68023          	sb	a0,0(a3)
    1390:	9287a683          	lw	a3,-1752(a5)
    1394:	00c686b3          	add	a3,a3,a2
    1398:	00a68023          	sb	a0,0(a3)
    139c:	f6e590e3          	bne	a1,a4,12fc <draw_A+0x2c>
    13a0:	00a58593          	addi	a1,a1,10
    13a4:	f5059ae3          	bne	a1,a6,12f8 <draw_A+0x28>
    13a8:	00007637          	lui	a2,0x7
    13ac:	00006837          	lui	a6,0x6
    13b0:	000065b7          	lui	a1,0x6
    13b4:	fffff337          	lui	t1,0xfffff
    13b8:	fffffeb7          	lui	t4,0xfffff
    13bc:	000018b7          	lui	a7,0x1
    13c0:	00007e37          	lui	t3,0x7
    13c4:	0e960613          	addi	a2,a2,233 # 70e9 <__global_pointer+0x1fc8>
    13c8:	46980813          	addi	a6,a6,1129 # 6469 <__global_pointer+0x1348>
    13cc:	49158593          	addi	a1,a1,1169 # 6491 <__global_pointer+0x1370>
    13d0:	38030313          	addi	t1,t1,896 # fffff380 <_stack_end+0xffefa670>
    13d4:	358e8e93          	addi	t4,t4,856 # fffff358 <_stack_end+0xffefa648>
    13d8:	c8088893          	addi	a7,a7,-896 # c80 <draw_letter_block+0x7c>
    13dc:	111e0e13          	addi	t3,t3,273 # 7111 <__global_pointer+0x1ff0>
    13e0:	00660733          	add	a4,a2,t1
    13e4:	9287a683          	lw	a3,-1752(a5)
    13e8:	00170293          	addi	t0,a4,1
    13ec:	00270f93          	addi	t6,a4,2
    13f0:	00e686b3          	add	a3,a3,a4
    13f4:	00a68023          	sb	a0,0(a3)
    13f8:	9287a683          	lw	a3,-1752(a5)
    13fc:	00370f13          	addi	t5,a4,3
    1400:	00470493          	addi	s1,a4,4
    1404:	005686b3          	add	a3,a3,t0
    1408:	00a68023          	sb	a0,0(a3)
    140c:	9287a683          	lw	a3,-1752(a5)
    1410:	00570413          	addi	s0,a4,5
    1414:	00670393          	addi	t2,a4,6
    1418:	01f686b3          	add	a3,a3,t6
    141c:	00a68023          	sb	a0,0(a3)
    1420:	9287a683          	lw	a3,-1752(a5)
    1424:	00770293          	addi	t0,a4,7
    1428:	00870f93          	addi	t6,a4,8
    142c:	01e686b3          	add	a3,a3,t5
    1430:	00a68023          	sb	a0,0(a3)
    1434:	9287a683          	lw	a3,-1752(a5)
    1438:	00970f13          	addi	t5,a4,9
    143c:	14070713          	addi	a4,a4,320
    1440:	009686b3          	add	a3,a3,s1
    1444:	00a68023          	sb	a0,0(a3)
    1448:	9287a683          	lw	a3,-1752(a5)
    144c:	008686b3          	add	a3,a3,s0
    1450:	00a68023          	sb	a0,0(a3)
    1454:	9287a683          	lw	a3,-1752(a5)
    1458:	007686b3          	add	a3,a3,t2
    145c:	00a68023          	sb	a0,0(a3)
    1460:	9287a683          	lw	a3,-1752(a5)
    1464:	005686b3          	add	a3,a3,t0
    1468:	00a68023          	sb	a0,0(a3)
    146c:	9287a683          	lw	a3,-1752(a5)
    1470:	01f686b3          	add	a3,a3,t6
    1474:	00a68023          	sb	a0,0(a3)
    1478:	9287a683          	lw	a3,-1752(a5)
    147c:	01e686b3          	add	a3,a3,t5
    1480:	00a68023          	sb	a0,0(a3)
    1484:	f6e610e3          	bne	a2,a4,13e4 <draw_A+0x114>
    1488:	01d58733          	add	a4,a1,t4
    148c:	9287a683          	lw	a3,-1752(a5)
    1490:	00170293          	addi	t0,a4,1
    1494:	00270f93          	addi	t6,a4,2
    1498:	00e686b3          	add	a3,a3,a4
    149c:	00a68023          	sb	a0,0(a3)
    14a0:	9287a683          	lw	a3,-1752(a5)
    14a4:	00370f13          	addi	t5,a4,3
    14a8:	00470493          	addi	s1,a4,4
    14ac:	005686b3          	add	a3,a3,t0
    14b0:	00a68023          	sb	a0,0(a3)
    14b4:	9287a683          	lw	a3,-1752(a5)
    14b8:	00570413          	addi	s0,a4,5
    14bc:	00670393          	addi	t2,a4,6
    14c0:	01f686b3          	add	a3,a3,t6
    14c4:	00a68023          	sb	a0,0(a3)
    14c8:	9287a683          	lw	a3,-1752(a5)
    14cc:	00770293          	addi	t0,a4,7
    14d0:	00870f93          	addi	t6,a4,8
    14d4:	01e686b3          	add	a3,a3,t5
    14d8:	00a68023          	sb	a0,0(a3)
    14dc:	9287a683          	lw	a3,-1752(a5)
    14e0:	00970f13          	addi	t5,a4,9
    14e4:	14070713          	addi	a4,a4,320
    14e8:	009686b3          	add	a3,a3,s1
    14ec:	00a68023          	sb	a0,0(a3)
    14f0:	9287a683          	lw	a3,-1752(a5)
    14f4:	008686b3          	add	a3,a3,s0
    14f8:	00a68023          	sb	a0,0(a3)
    14fc:	9287a683          	lw	a3,-1752(a5)
    1500:	007686b3          	add	a3,a3,t2
    1504:	00a68023          	sb	a0,0(a3)
    1508:	9287a683          	lw	a3,-1752(a5)
    150c:	005686b3          	add	a3,a3,t0
    1510:	00a68023          	sb	a0,0(a3)
    1514:	9287a683          	lw	a3,-1752(a5)
    1518:	01f686b3          	add	a3,a3,t6
    151c:	00a68023          	sb	a0,0(a3)
    1520:	9287a683          	lw	a3,-1752(a5)
    1524:	01e686b3          	add	a3,a3,t5
    1528:	00a68023          	sb	a0,0(a3)
    152c:	f6e810e3          	bne	a6,a4,148c <draw_A+0x1bc>
    1530:	00658733          	add	a4,a1,t1
    1534:	9287a683          	lw	a3,-1752(a5)
    1538:	00170293          	addi	t0,a4,1
    153c:	00270f93          	addi	t6,a4,2
    1540:	00e686b3          	add	a3,a3,a4
    1544:	00a68023          	sb	a0,0(a3)
    1548:	9287a683          	lw	a3,-1752(a5)
    154c:	00370f13          	addi	t5,a4,3
    1550:	00470493          	addi	s1,a4,4
    1554:	005686b3          	add	a3,a3,t0
    1558:	00a68023          	sb	a0,0(a3)
    155c:	9287a683          	lw	a3,-1752(a5)
    1560:	00570413          	addi	s0,a4,5
    1564:	00670393          	addi	t2,a4,6
    1568:	01f686b3          	add	a3,a3,t6
    156c:	00a68023          	sb	a0,0(a3)
    1570:	9287a683          	lw	a3,-1752(a5)
    1574:	00770293          	addi	t0,a4,7
    1578:	00870f93          	addi	t6,a4,8
    157c:	01e686b3          	add	a3,a3,t5
    1580:	00a68023          	sb	a0,0(a3)
    1584:	9287a683          	lw	a3,-1752(a5)
    1588:	00970f13          	addi	t5,a4,9
    158c:	14070713          	addi	a4,a4,320
    1590:	009686b3          	add	a3,a3,s1
    1594:	00a68023          	sb	a0,0(a3)
    1598:	9287a683          	lw	a3,-1752(a5)
    159c:	008686b3          	add	a3,a3,s0
    15a0:	00a68023          	sb	a0,0(a3)
    15a4:	9287a683          	lw	a3,-1752(a5)
    15a8:	007686b3          	add	a3,a3,t2
    15ac:	00a68023          	sb	a0,0(a3)
    15b0:	9287a683          	lw	a3,-1752(a5)
    15b4:	005686b3          	add	a3,a3,t0
    15b8:	00a68023          	sb	a0,0(a3)
    15bc:	9287a683          	lw	a3,-1752(a5)
    15c0:	01f686b3          	add	a3,a3,t6
    15c4:	00a68023          	sb	a0,0(a3)
    15c8:	9287a683          	lw	a3,-1752(a5)
    15cc:	01e686b3          	add	a3,a3,t5
    15d0:	00a68023          	sb	a0,0(a3)
    15d4:	f6e590e3          	bne	a1,a4,1534 <draw_A+0x264>
    15d8:	00a60613          	addi	a2,a2,10
    15dc:	011585b3          	add	a1,a1,a7
    15e0:	01180833          	add	a6,a6,a7
    15e4:	dfc61ee3          	bne	a2,t3,13e0 <draw_A+0x110>
    15e8:	00c12403          	lw	s0,12(sp)
    15ec:	00812483          	lw	s1,8(sp)
    15f0:	01010113          	addi	sp,sp,16
    15f4:	00008067          	ret

000015f8 <draw_M>:
    15f8:	ff010113          	addi	sp,sp,-16
    15fc:	00006837          	lui	a6,0x6
    1600:	000065b7          	lui	a1,0x6
    1604:	fffffe37          	lui	t3,0xfffff
    1608:	fffffeb7          	lui	t4,0xfffff
    160c:	000018b7          	lui	a7,0x1
    1610:	00009337          	lui	t1,0x9
    1614:	00812623          	sw	s0,12(sp)
    1618:	00050793          	mv	a5,a0
    161c:	82580813          	addi	a6,a6,-2011 # 5825 <__global_pointer+0x704>
    1620:	84d58593          	addi	a1,a1,-1971 # 584d <__global_pointer+0x72c>
    1624:	00005737          	lui	a4,0x5
    1628:	358e0e13          	addi	t3,t3,856 # fffff358 <_stack_end+0xffefa648>
    162c:	380e8e93          	addi	t4,t4,896 # fffff380 <_stack_end+0xffefa670>
    1630:	c8088893          	addi	a7,a7,-896 # c80 <draw_letter_block+0x7c>
    1634:	6cd30313          	addi	t1,t1,1741 # 96cd <__global_pointer+0x45ac>
    1638:	01c586b3          	add	a3,a1,t3
    163c:	92872603          	lw	a2,-1752(a4) # 4928 <VGA>
    1640:	00168f93          	addi	t6,a3,1
    1644:	00268f13          	addi	t5,a3,2
    1648:	00d60633          	add	a2,a2,a3
    164c:	00f60023          	sb	a5,0(a2)
    1650:	92872603          	lw	a2,-1752(a4)
    1654:	00368513          	addi	a0,a3,3
    1658:	00468413          	addi	s0,a3,4
    165c:	01f60633          	add	a2,a2,t6
    1660:	00f60023          	sb	a5,0(a2)
    1664:	92872603          	lw	a2,-1752(a4)
    1668:	00568393          	addi	t2,a3,5
    166c:	00668293          	addi	t0,a3,6
    1670:	01e60633          	add	a2,a2,t5
    1674:	00f60023          	sb	a5,0(a2)
    1678:	92872603          	lw	a2,-1752(a4)
    167c:	00768f93          	addi	t6,a3,7
    1680:	00868f13          	addi	t5,a3,8
    1684:	00a60633          	add	a2,a2,a0
    1688:	00f60023          	sb	a5,0(a2)
    168c:	92872603          	lw	a2,-1752(a4)
    1690:	00968513          	addi	a0,a3,9
    1694:	14068693          	addi	a3,a3,320
    1698:	00860633          	add	a2,a2,s0
    169c:	00f60023          	sb	a5,0(a2)
    16a0:	92872603          	lw	a2,-1752(a4)
    16a4:	00760633          	add	a2,a2,t2
    16a8:	00f60023          	sb	a5,0(a2)
    16ac:	92872603          	lw	a2,-1752(a4)
    16b0:	00560633          	add	a2,a2,t0
    16b4:	00f60023          	sb	a5,0(a2)
    16b8:	92872603          	lw	a2,-1752(a4)
    16bc:	01f60633          	add	a2,a2,t6
    16c0:	00f60023          	sb	a5,0(a2)
    16c4:	92872603          	lw	a2,-1752(a4)
    16c8:	01e60633          	add	a2,a2,t5
    16cc:	00f60023          	sb	a5,0(a2)
    16d0:	92872603          	lw	a2,-1752(a4)
    16d4:	00a60633          	add	a2,a2,a0
    16d8:	00f60023          	sb	a5,0(a2)
    16dc:	f70690e3          	bne	a3,a6,163c <draw_M+0x44>
    16e0:	01d586b3          	add	a3,a1,t4
    16e4:	92872603          	lw	a2,-1752(a4)
    16e8:	00168f93          	addi	t6,a3,1
    16ec:	00268f13          	addi	t5,a3,2
    16f0:	00d60633          	add	a2,a2,a3
    16f4:	00f60023          	sb	a5,0(a2)
    16f8:	92872603          	lw	a2,-1752(a4)
    16fc:	00368513          	addi	a0,a3,3
    1700:	00468413          	addi	s0,a3,4
    1704:	01f60633          	add	a2,a2,t6
    1708:	00f60023          	sb	a5,0(a2)
    170c:	92872603          	lw	a2,-1752(a4)
    1710:	00568393          	addi	t2,a3,5
    1714:	00668293          	addi	t0,a3,6
    1718:	01e60633          	add	a2,a2,t5
    171c:	00f60023          	sb	a5,0(a2)
    1720:	92872603          	lw	a2,-1752(a4)
    1724:	00768f93          	addi	t6,a3,7
    1728:	00868f13          	addi	t5,a3,8
    172c:	00a60633          	add	a2,a2,a0
    1730:	00f60023          	sb	a5,0(a2)
    1734:	92872603          	lw	a2,-1752(a4)
    1738:	00968513          	addi	a0,a3,9
    173c:	14068693          	addi	a3,a3,320
    1740:	00860633          	add	a2,a2,s0
    1744:	00f60023          	sb	a5,0(a2)
    1748:	92872603          	lw	a2,-1752(a4)
    174c:	00760633          	add	a2,a2,t2
    1750:	00f60023          	sb	a5,0(a2)
    1754:	92872603          	lw	a2,-1752(a4)
    1758:	00560633          	add	a2,a2,t0
    175c:	00f60023          	sb	a5,0(a2)
    1760:	92872603          	lw	a2,-1752(a4)
    1764:	01f60633          	add	a2,a2,t6
    1768:	00f60023          	sb	a5,0(a2)
    176c:	92872603          	lw	a2,-1752(a4)
    1770:	01e60633          	add	a2,a2,t5
    1774:	00f60023          	sb	a5,0(a2)
    1778:	92872603          	lw	a2,-1752(a4)
    177c:	00a60633          	add	a2,a2,a0
    1780:	00f60023          	sb	a5,0(a2)
    1784:	f6b690e3          	bne	a3,a1,16e4 <draw_M+0xec>
    1788:	011685b3          	add	a1,a3,a7
    178c:	01180833          	add	a6,a6,a7
    1790:	ea6594e3          	bne	a1,t1,1638 <draw_M+0x40>
    1794:	92872683          	lw	a3,-1752(a4)
    1798:	00006737          	lui	a4,0x6
    179c:	00007637          	lui	a2,0x7
    17a0:	00e68733          	add	a4,a3,a4
    17a4:	82f707a3          	sb	a5,-2001(a4) # 582f <__global_pointer+0x70e>
    17a8:	82f70823          	sb	a5,-2000(a4)
    17ac:	82f708a3          	sb	a5,-1999(a4)
    17b0:	82f70923          	sb	a5,-1998(a4)
    17b4:	82f709a3          	sb	a5,-1997(a4)
    17b8:	82f70a23          	sb	a5,-1996(a4)
    17bc:	82f70aa3          	sb	a5,-1995(a4)
    17c0:	82f70b23          	sb	a5,-1994(a4)
    17c4:	82f70ba3          	sb	a5,-1993(a4)
    17c8:	82f70c23          	sb	a5,-1992(a4)
    17cc:	96f707a3          	sb	a5,-1681(a4)
    17d0:	96f70823          	sb	a5,-1680(a4)
    17d4:	96f708a3          	sb	a5,-1679(a4)
    17d8:	96f70923          	sb	a5,-1678(a4)
    17dc:	96f709a3          	sb	a5,-1677(a4)
    17e0:	96f70a23          	sb	a5,-1676(a4)
    17e4:	96f70aa3          	sb	a5,-1675(a4)
    17e8:	96f70b23          	sb	a5,-1674(a4)
    17ec:	96f70ba3          	sb	a5,-1673(a4)
    17f0:	96f70c23          	sb	a5,-1672(a4)
    17f4:	aaf707a3          	sb	a5,-1361(a4)
    17f8:	aaf70823          	sb	a5,-1360(a4)
    17fc:	aaf708a3          	sb	a5,-1359(a4)
    1800:	aaf70923          	sb	a5,-1358(a4)
    1804:	aaf709a3          	sb	a5,-1357(a4)
    1808:	aaf70a23          	sb	a5,-1356(a4)
    180c:	aaf70aa3          	sb	a5,-1355(a4)
    1810:	aaf70b23          	sb	a5,-1354(a4)
    1814:	aaf70ba3          	sb	a5,-1353(a4)
    1818:	aaf70c23          	sb	a5,-1352(a4)
    181c:	bef707a3          	sb	a5,-1041(a4)
    1820:	bef70823          	sb	a5,-1040(a4)
    1824:	bef708a3          	sb	a5,-1039(a4)
    1828:	bef70923          	sb	a5,-1038(a4)
    182c:	bef709a3          	sb	a5,-1037(a4)
    1830:	bef70a23          	sb	a5,-1036(a4)
    1834:	bef70aa3          	sb	a5,-1035(a4)
    1838:	bef70b23          	sb	a5,-1034(a4)
    183c:	bef70ba3          	sb	a5,-1033(a4)
    1840:	bef70c23          	sb	a5,-1032(a4)
    1844:	d2f707a3          	sb	a5,-721(a4)
    1848:	d2f70823          	sb	a5,-720(a4)
    184c:	d2f708a3          	sb	a5,-719(a4)
    1850:	d2f70923          	sb	a5,-718(a4)
    1854:	d2f709a3          	sb	a5,-717(a4)
    1858:	d2f70a23          	sb	a5,-716(a4)
    185c:	d2f70aa3          	sb	a5,-715(a4)
    1860:	d2f70b23          	sb	a5,-714(a4)
    1864:	d2f70ba3          	sb	a5,-713(a4)
    1868:	d2f70c23          	sb	a5,-712(a4)
    186c:	e6f707a3          	sb	a5,-401(a4)
    1870:	e6f70823          	sb	a5,-400(a4)
    1874:	e6f708a3          	sb	a5,-399(a4)
    1878:	e6f70923          	sb	a5,-398(a4)
    187c:	e6f709a3          	sb	a5,-397(a4)
    1880:	e6f70a23          	sb	a5,-396(a4)
    1884:	e6f70aa3          	sb	a5,-395(a4)
    1888:	e6f70b23          	sb	a5,-394(a4)
    188c:	e6f70ba3          	sb	a5,-393(a4)
    1890:	e6f70c23          	sb	a5,-392(a4)
    1894:	faf707a3          	sb	a5,-81(a4)
    1898:	faf70823          	sb	a5,-80(a4)
    189c:	faf708a3          	sb	a5,-79(a4)
    18a0:	faf70923          	sb	a5,-78(a4)
    18a4:	faf709a3          	sb	a5,-77(a4)
    18a8:	faf70a23          	sb	a5,-76(a4)
    18ac:	faf70aa3          	sb	a5,-75(a4)
    18b0:	faf70b23          	sb	a5,-74(a4)
    18b4:	faf70ba3          	sb	a5,-73(a4)
    18b8:	faf70c23          	sb	a5,-72(a4)
    18bc:	0ef707a3          	sb	a5,239(a4)
    18c0:	0ef70823          	sb	a5,240(a4)
    18c4:	0ef708a3          	sb	a5,241(a4)
    18c8:	0ef70923          	sb	a5,242(a4)
    18cc:	0ef709a3          	sb	a5,243(a4)
    18d0:	0ef70a23          	sb	a5,244(a4)
    18d4:	0ef70aa3          	sb	a5,245(a4)
    18d8:	0ef70b23          	sb	a5,246(a4)
    18dc:	0ef70ba3          	sb	a5,247(a4)
    18e0:	0ef70c23          	sb	a5,248(a4)
    18e4:	22f707a3          	sb	a5,559(a4)
    18e8:	22f70823          	sb	a5,560(a4)
    18ec:	22f708a3          	sb	a5,561(a4)
    18f0:	22f70923          	sb	a5,562(a4)
    18f4:	22f709a3          	sb	a5,563(a4)
    18f8:	22f70a23          	sb	a5,564(a4)
    18fc:	22f70aa3          	sb	a5,565(a4)
    1900:	22f70b23          	sb	a5,566(a4)
    1904:	22f70ba3          	sb	a5,567(a4)
    1908:	22f70c23          	sb	a5,568(a4)
    190c:	36f707a3          	sb	a5,879(a4)
    1910:	36f70823          	sb	a5,880(a4)
    1914:	36f708a3          	sb	a5,881(a4)
    1918:	36f70923          	sb	a5,882(a4)
    191c:	36f709a3          	sb	a5,883(a4)
    1920:	36f70a23          	sb	a5,884(a4)
    1924:	36f70aa3          	sb	a5,885(a4)
    1928:	36f70b23          	sb	a5,886(a4)
    192c:	36f70ba3          	sb	a5,887(a4)
    1930:	36f70c23          	sb	a5,888(a4)
    1934:	4af70ca3          	sb	a5,1209(a4)
    1938:	4af70d23          	sb	a5,1210(a4)
    193c:	4af70da3          	sb	a5,1211(a4)
    1940:	4af70e23          	sb	a5,1212(a4)
    1944:	4af70ea3          	sb	a5,1213(a4)
    1948:	4af70f23          	sb	a5,1214(a4)
    194c:	4af70fa3          	sb	a5,1215(a4)
    1950:	4cf70023          	sb	a5,1216(a4)
    1954:	4cf700a3          	sb	a5,1217(a4)
    1958:	4cf70123          	sb	a5,1218(a4)
    195c:	5ef70ca3          	sb	a5,1529(a4)
    1960:	5ef70d23          	sb	a5,1530(a4)
    1964:	5ef70da3          	sb	a5,1531(a4)
    1968:	5ef70e23          	sb	a5,1532(a4)
    196c:	5ef70ea3          	sb	a5,1533(a4)
    1970:	5ef70f23          	sb	a5,1534(a4)
    1974:	5ef70fa3          	sb	a5,1535(a4)
    1978:	60f70023          	sb	a5,1536(a4)
    197c:	60f700a3          	sb	a5,1537(a4)
    1980:	60f70123          	sb	a5,1538(a4)
    1984:	72f70ca3          	sb	a5,1849(a4)
    1988:	72f70d23          	sb	a5,1850(a4)
    198c:	72f70da3          	sb	a5,1851(a4)
    1990:	72f70e23          	sb	a5,1852(a4)
    1994:	72f70ea3          	sb	a5,1853(a4)
    1998:	72f70f23          	sb	a5,1854(a4)
    199c:	72f70fa3          	sb	a5,1855(a4)
    19a0:	74f70023          	sb	a5,1856(a4)
    19a4:	74f700a3          	sb	a5,1857(a4)
    19a8:	00c686b3          	add	a3,a3,a2
    19ac:	74f70123          	sb	a5,1858(a4)
    19b0:	86f68ca3          	sb	a5,-1927(a3)
    19b4:	86f68d23          	sb	a5,-1926(a3)
    19b8:	86f68da3          	sb	a5,-1925(a3)
    19bc:	86f68e23          	sb	a5,-1924(a3)
    19c0:	86f68ea3          	sb	a5,-1923(a3)
    19c4:	86f68f23          	sb	a5,-1922(a3)
    19c8:	86f68fa3          	sb	a5,-1921(a3)
    19cc:	88f68023          	sb	a5,-1920(a3)
    19d0:	88f680a3          	sb	a5,-1919(a3)
    19d4:	88f68123          	sb	a5,-1918(a3)
    19d8:	9af68ca3          	sb	a5,-1607(a3)
    19dc:	9af68d23          	sb	a5,-1606(a3)
    19e0:	9af68da3          	sb	a5,-1605(a3)
    19e4:	9af68e23          	sb	a5,-1604(a3)
    19e8:	9af68ea3          	sb	a5,-1603(a3)
    19ec:	9af68f23          	sb	a5,-1602(a3)
    19f0:	9af68fa3          	sb	a5,-1601(a3)
    19f4:	9cf68023          	sb	a5,-1600(a3)
    19f8:	9cf680a3          	sb	a5,-1599(a3)
    19fc:	9cf68123          	sb	a5,-1598(a3)
    1a00:	aef68ca3          	sb	a5,-1287(a3)
    1a04:	aef68d23          	sb	a5,-1286(a3)
    1a08:	aef68da3          	sb	a5,-1285(a3)
    1a0c:	aef68e23          	sb	a5,-1284(a3)
    1a10:	aef68ea3          	sb	a5,-1283(a3)
    1a14:	aef68f23          	sb	a5,-1282(a3)
    1a18:	aef68fa3          	sb	a5,-1281(a3)
    1a1c:	b0f68023          	sb	a5,-1280(a3)
    1a20:	b0f680a3          	sb	a5,-1279(a3)
    1a24:	b0f68123          	sb	a5,-1278(a3)
    1a28:	c2f68ca3          	sb	a5,-967(a3)
    1a2c:	c2f68d23          	sb	a5,-966(a3)
    1a30:	c2f68da3          	sb	a5,-965(a3)
    1a34:	c2f68e23          	sb	a5,-964(a3)
    1a38:	c2f68ea3          	sb	a5,-963(a3)
    1a3c:	c2f68f23          	sb	a5,-962(a3)
    1a40:	c2f68fa3          	sb	a5,-961(a3)
    1a44:	c4f68023          	sb	a5,-960(a3)
    1a48:	c4f680a3          	sb	a5,-959(a3)
    1a4c:	c4f68123          	sb	a5,-958(a3)
    1a50:	d6f68ca3          	sb	a5,-647(a3)
    1a54:	d6f68d23          	sb	a5,-646(a3)
    1a58:	d6f68da3          	sb	a5,-645(a3)
    1a5c:	d6f68e23          	sb	a5,-644(a3)
    1a60:	d6f68ea3          	sb	a5,-643(a3)
    1a64:	d6f68f23          	sb	a5,-642(a3)
    1a68:	d6f68fa3          	sb	a5,-641(a3)
    1a6c:	d8f68023          	sb	a5,-640(a3)
    1a70:	d8f680a3          	sb	a5,-639(a3)
    1a74:	d8f68123          	sb	a5,-638(a3)
    1a78:	eaf68ca3          	sb	a5,-327(a3)
    1a7c:	eaf68d23          	sb	a5,-326(a3)
    1a80:	eaf68da3          	sb	a5,-325(a3)
    1a84:	eaf68e23          	sb	a5,-324(a3)
    1a88:	eaf68ea3          	sb	a5,-323(a3)
    1a8c:	eaf68f23          	sb	a5,-322(a3)
    1a90:	eaf68fa3          	sb	a5,-321(a3)
    1a94:	ecf68023          	sb	a5,-320(a3)
    1a98:	ecf680a3          	sb	a5,-319(a3)
    1a9c:	ecf68123          	sb	a5,-318(a3)
    1aa0:	fef68ca3          	sb	a5,-7(a3)
    1aa4:	fef68d23          	sb	a5,-6(a3)
    1aa8:	fef68da3          	sb	a5,-5(a3)
    1aac:	fef68e23          	sb	a5,-4(a3)
    1ab0:	fef68ea3          	sb	a5,-3(a3)
    1ab4:	fef68f23          	sb	a5,-2(a3)
    1ab8:	fef68fa3          	sb	a5,-1(a3)
    1abc:	00f68023          	sb	a5,0(a3)
    1ac0:	00f680a3          	sb	a5,1(a3)
    1ac4:	00f68123          	sb	a5,2(a3)
    1ac8:	84f701a3          	sb	a5,-1981(a4)
    1acc:	84f70223          	sb	a5,-1980(a4)
    1ad0:	84f702a3          	sb	a5,-1979(a4)
    1ad4:	84f70323          	sb	a5,-1978(a4)
    1ad8:	84f703a3          	sb	a5,-1977(a4)
    1adc:	84f70423          	sb	a5,-1976(a4)
    1ae0:	84f704a3          	sb	a5,-1975(a4)
    1ae4:	84f70523          	sb	a5,-1974(a4)
    1ae8:	84f705a3          	sb	a5,-1973(a4)
    1aec:	84f70623          	sb	a5,-1972(a4)
    1af0:	98f701a3          	sb	a5,-1661(a4)
    1af4:	98f70223          	sb	a5,-1660(a4)
    1af8:	98f702a3          	sb	a5,-1659(a4)
    1afc:	98f70323          	sb	a5,-1658(a4)
    1b00:	98f703a3          	sb	a5,-1657(a4)
    1b04:	98f70423          	sb	a5,-1656(a4)
    1b08:	98f704a3          	sb	a5,-1655(a4)
    1b0c:	98f70523          	sb	a5,-1654(a4)
    1b10:	98f705a3          	sb	a5,-1653(a4)
    1b14:	98f70623          	sb	a5,-1652(a4)
    1b18:	acf701a3          	sb	a5,-1341(a4)
    1b1c:	acf70223          	sb	a5,-1340(a4)
    1b20:	acf702a3          	sb	a5,-1339(a4)
    1b24:	acf70323          	sb	a5,-1338(a4)
    1b28:	acf703a3          	sb	a5,-1337(a4)
    1b2c:	acf70423          	sb	a5,-1336(a4)
    1b30:	acf704a3          	sb	a5,-1335(a4)
    1b34:	acf70523          	sb	a5,-1334(a4)
    1b38:	acf705a3          	sb	a5,-1333(a4)
    1b3c:	acf70623          	sb	a5,-1332(a4)
    1b40:	c0f701a3          	sb	a5,-1021(a4)
    1b44:	c0f70223          	sb	a5,-1020(a4)
    1b48:	c0f702a3          	sb	a5,-1019(a4)
    1b4c:	c0f70323          	sb	a5,-1018(a4)
    1b50:	c0f703a3          	sb	a5,-1017(a4)
    1b54:	c0f70423          	sb	a5,-1016(a4)
    1b58:	c0f704a3          	sb	a5,-1015(a4)
    1b5c:	c0f70523          	sb	a5,-1014(a4)
    1b60:	c0f705a3          	sb	a5,-1013(a4)
    1b64:	c0f70623          	sb	a5,-1012(a4)
    1b68:	d4f701a3          	sb	a5,-701(a4)
    1b6c:	d4f70223          	sb	a5,-700(a4)
    1b70:	d4f702a3          	sb	a5,-699(a4)
    1b74:	d4f70323          	sb	a5,-698(a4)
    1b78:	d4f703a3          	sb	a5,-697(a4)
    1b7c:	d4f70423          	sb	a5,-696(a4)
    1b80:	d4f704a3          	sb	a5,-695(a4)
    1b84:	d4f70523          	sb	a5,-694(a4)
    1b88:	d4f705a3          	sb	a5,-693(a4)
    1b8c:	d4f70623          	sb	a5,-692(a4)
    1b90:	e8f701a3          	sb	a5,-381(a4)
    1b94:	e8f70223          	sb	a5,-380(a4)
    1b98:	e8f702a3          	sb	a5,-379(a4)
    1b9c:	e8f70323          	sb	a5,-378(a4)
    1ba0:	e8f703a3          	sb	a5,-377(a4)
    1ba4:	e8f70423          	sb	a5,-376(a4)
    1ba8:	e8f704a3          	sb	a5,-375(a4)
    1bac:	e8f70523          	sb	a5,-374(a4)
    1bb0:	e8f705a3          	sb	a5,-373(a4)
    1bb4:	e8f70623          	sb	a5,-372(a4)
    1bb8:	fcf701a3          	sb	a5,-61(a4)
    1bbc:	fcf70223          	sb	a5,-60(a4)
    1bc0:	fcf702a3          	sb	a5,-59(a4)
    1bc4:	fcf70323          	sb	a5,-58(a4)
    1bc8:	fcf703a3          	sb	a5,-57(a4)
    1bcc:	fcf70423          	sb	a5,-56(a4)
    1bd0:	fcf704a3          	sb	a5,-55(a4)
    1bd4:	fcf70523          	sb	a5,-54(a4)
    1bd8:	fcf705a3          	sb	a5,-53(a4)
    1bdc:	fcf70623          	sb	a5,-52(a4)
    1be0:	10f701a3          	sb	a5,259(a4)
    1be4:	10f70223          	sb	a5,260(a4)
    1be8:	10f702a3          	sb	a5,261(a4)
    1bec:	10f70323          	sb	a5,262(a4)
    1bf0:	10f703a3          	sb	a5,263(a4)
    1bf4:	10f70423          	sb	a5,264(a4)
    1bf8:	10f704a3          	sb	a5,265(a4)
    1bfc:	10f70523          	sb	a5,266(a4)
    1c00:	10f705a3          	sb	a5,267(a4)
    1c04:	10f70623          	sb	a5,268(a4)
    1c08:	24f701a3          	sb	a5,579(a4)
    1c0c:	24f70223          	sb	a5,580(a4)
    1c10:	24f702a3          	sb	a5,581(a4)
    1c14:	24f70323          	sb	a5,582(a4)
    1c18:	24f703a3          	sb	a5,583(a4)
    1c1c:	24f70423          	sb	a5,584(a4)
    1c20:	24f704a3          	sb	a5,585(a4)
    1c24:	24f70523          	sb	a5,586(a4)
    1c28:	24f705a3          	sb	a5,587(a4)
    1c2c:	24f70623          	sb	a5,588(a4)
    1c30:	38f701a3          	sb	a5,899(a4)
    1c34:	38f70223          	sb	a5,900(a4)
    1c38:	38f702a3          	sb	a5,901(a4)
    1c3c:	38f70323          	sb	a5,902(a4)
    1c40:	38f703a3          	sb	a5,903(a4)
    1c44:	38f70423          	sb	a5,904(a4)
    1c48:	38f704a3          	sb	a5,905(a4)
    1c4c:	38f70523          	sb	a5,906(a4)
    1c50:	38f705a3          	sb	a5,907(a4)
    1c54:	38f70623          	sb	a5,908(a4)
    1c58:	00c12403          	lw	s0,12(sp)
    1c5c:	01010113          	addi	sp,sp,16
    1c60:	00008067          	ret

00001c64 <draw_E>:
    1c64:	00001337          	lui	t1,0x1
    1c68:	00358793          	addi	a5,a1,3
    1c6c:	c8030313          	addi	t1,t1,-896 # c80 <draw_letter_block+0x7c>
    1c70:	02678e33          	mul	t3,a5,t1
    1c74:	00251893          	slli	a7,a0,0x2
    1c78:	01450593          	addi	a1,a0,20
    1c7c:	00279e93          	slli	t4,a5,0x2
    1c80:	00a888b3          	add	a7,a7,a0
    1c84:	00003737          	lui	a4,0x3
    1c88:	00259693          	slli	a3,a1,0x2
    1c8c:	00fe8eb3          	add	t4,t4,a5
    1c90:	00189893          	slli	a7,a7,0x1
    1c94:	2e170713          	addi	a4,a4,737 # 32e1 <draw_GAMEOVER+0x209>
    1c98:	ff010113          	addi	sp,sp,-16
    1c9c:	001e9e93          	slli	t4,t4,0x1
    1ca0:	00b686b3          	add	a3,a3,a1
    1ca4:	00e88733          	add	a4,a7,a4
    1ca8:	ffffff37          	lui	t5,0xfffff
    1cac:	01ee8813          	addi	a6,t4,30
    1cb0:	01c705b3          	add	a1,a4,t3
    1cb4:	00812623          	sw	s0,12(sp)
    1cb8:	00912423          	sw	s1,8(sp)
    1cbc:	01212223          	sw	s2,4(sp)
    1cc0:	00060793          	mv	a5,a2
    1cc4:	00169513          	slli	a0,a3,0x1
    1cc8:	050e8e93          	addi	t4,t4,80
    1ccc:	00005737          	lui	a4,0x5
    1cd0:	380f0f13          	addi	t5,t5,896 # fffff380 <_stack_end+0xffefa670>
    1cd4:	01e586b3          	add	a3,a1,t5
    1cd8:	92872603          	lw	a2,-1752(a4) # 4928 <VGA>
    1cdc:	00168393          	addi	t2,a3,1
    1ce0:	00268293          	addi	t0,a3,2
    1ce4:	00d60633          	add	a2,a2,a3
    1ce8:	00f60023          	sb	a5,0(a2) # 7000 <__global_pointer+0x1edf>
    1cec:	92872603          	lw	a2,-1752(a4)
    1cf0:	00368f93          	addi	t6,a3,3
    1cf4:	00468913          	addi	s2,a3,4
    1cf8:	00760633          	add	a2,a2,t2
    1cfc:	00f60023          	sb	a5,0(a2)
    1d00:	92872603          	lw	a2,-1752(a4)
    1d04:	00568493          	addi	s1,a3,5
    1d08:	00668413          	addi	s0,a3,6
    1d0c:	00560633          	add	a2,a2,t0
    1d10:	00f60023          	sb	a5,0(a2)
    1d14:	92872603          	lw	a2,-1752(a4)
    1d18:	00768393          	addi	t2,a3,7
    1d1c:	00868293          	addi	t0,a3,8
    1d20:	01f60633          	add	a2,a2,t6
    1d24:	00f60023          	sb	a5,0(a2)
    1d28:	92872603          	lw	a2,-1752(a4)
    1d2c:	00968f93          	addi	t6,a3,9
    1d30:	14068693          	addi	a3,a3,320
    1d34:	01260633          	add	a2,a2,s2
    1d38:	00f60023          	sb	a5,0(a2)
    1d3c:	92872603          	lw	a2,-1752(a4)
    1d40:	00960633          	add	a2,a2,s1
    1d44:	00f60023          	sb	a5,0(a2)
    1d48:	92872603          	lw	a2,-1752(a4)
    1d4c:	00860633          	add	a2,a2,s0
    1d50:	00f60023          	sb	a5,0(a2)
    1d54:	92872603          	lw	a2,-1752(a4)
    1d58:	00760633          	add	a2,a2,t2
    1d5c:	00f60023          	sb	a5,0(a2)
    1d60:	92872603          	lw	a2,-1752(a4)
    1d64:	00560633          	add	a2,a2,t0
    1d68:	00f60023          	sb	a5,0(a2)
    1d6c:	92872603          	lw	a2,-1752(a4)
    1d70:	01f60633          	add	a2,a2,t6
    1d74:	00f60023          	sb	a5,0(a2)
    1d78:	f6d590e3          	bne	a1,a3,1cd8 <draw_E+0x74>
    1d7c:	00a80813          	addi	a6,a6,10
    1d80:	006585b3          	add	a1,a1,t1
    1d84:	f50e98e3          	bne	t4,a6,1cd4 <draw_E+0x70>
    1d88:	ffffef37          	lui	t5,0xffffe
    1d8c:	000095b7          	lui	a1,0x9
    1d90:	00007637          	lui	a2,0x7
    1d94:	000066b7          	lui	a3,0x6
    1d98:	a80f0f13          	addi	t5,t5,-1408 # ffffda80 <_stack_end+0xffef8d70>
    1d9c:	a6b58593          	addi	a1,a1,-1429 # 8a6b <__global_pointer+0x394a>
    1da0:	16b60613          	addi	a2,a2,363 # 716b <__global_pointer+0x204a>
    1da4:	86b68693          	addi	a3,a3,-1941 # 586b <__global_pointer+0x74a>
    1da8:	01ee0e33          	add	t3,t3,t5
    1dac:	00b885b3          	add	a1,a7,a1
    1db0:	00c88633          	add	a2,a7,a2
    1db4:	00d886b3          	add	a3,a7,a3
    1db8:	ffffceb7          	lui	t4,0xffffc
    1dbc:	ffffffb7          	lui	t6,0xfffff
    1dc0:	02350513          	addi	a0,a0,35
    1dc4:	01c585b3          	add	a1,a1,t3
    1dc8:	01c60333          	add	t1,a2,t3
    1dcc:	01c68833          	add	a6,a3,t3
    1dd0:	11388893          	addi	a7,a7,275
    1dd4:	180e8e93          	addi	t4,t4,384 # ffffc180 <_stack_end+0xffef7470>
    1dd8:	380f8f93          	addi	t6,t6,896 # fffff380 <_stack_end+0xffefa670>
    1ddc:	01d586b3          	add	a3,a1,t4
    1de0:	92872603          	lw	a2,-1752(a4)
    1de4:	00168393          	addi	t2,a3,1
    1de8:	00268293          	addi	t0,a3,2
    1dec:	00d60633          	add	a2,a2,a3
    1df0:	00f60023          	sb	a5,0(a2)
    1df4:	92872603          	lw	a2,-1752(a4)
    1df8:	00368e13          	addi	t3,a3,3
    1dfc:	00468913          	addi	s2,a3,4
    1e00:	00760633          	add	a2,a2,t2
    1e04:	00f60023          	sb	a5,0(a2)
    1e08:	92872603          	lw	a2,-1752(a4)
    1e0c:	00568493          	addi	s1,a3,5
    1e10:	00668413          	addi	s0,a3,6
    1e14:	00560633          	add	a2,a2,t0
    1e18:	00f60023          	sb	a5,0(a2)
    1e1c:	92872603          	lw	a2,-1752(a4)
    1e20:	00768393          	addi	t2,a3,7
    1e24:	00868293          	addi	t0,a3,8
    1e28:	01c60633          	add	a2,a2,t3
    1e2c:	00f60023          	sb	a5,0(a2)
    1e30:	92872603          	lw	a2,-1752(a4)
    1e34:	00968e13          	addi	t3,a3,9
    1e38:	14068693          	addi	a3,a3,320
    1e3c:	01260633          	add	a2,a2,s2
    1e40:	00f60023          	sb	a5,0(a2)
    1e44:	92872603          	lw	a2,-1752(a4)
    1e48:	00960633          	add	a2,a2,s1
    1e4c:	00f60023          	sb	a5,0(a2)
    1e50:	92872603          	lw	a2,-1752(a4)
    1e54:	00860633          	add	a2,a2,s0
    1e58:	00f60023          	sb	a5,0(a2)
    1e5c:	92872603          	lw	a2,-1752(a4)
    1e60:	00760633          	add	a2,a2,t2
    1e64:	00f60023          	sb	a5,0(a2)
    1e68:	92872603          	lw	a2,-1752(a4)
    1e6c:	00560633          	add	a2,a2,t0
    1e70:	00f60023          	sb	a5,0(a2)
    1e74:	92872603          	lw	a2,-1752(a4)
    1e78:	01c60633          	add	a2,a2,t3
    1e7c:	00f60023          	sb	a5,0(a2)
    1e80:	f6d810e3          	bne	a6,a3,1de0 <draw_E+0x17c>
    1e84:	01e586b3          	add	a3,a1,t5
    1e88:	92872603          	lw	a2,-1752(a4)
    1e8c:	00168393          	addi	t2,a3,1
    1e90:	00268293          	addi	t0,a3,2
    1e94:	00d60633          	add	a2,a2,a3
    1e98:	00f60023          	sb	a5,0(a2)
    1e9c:	92872603          	lw	a2,-1752(a4)
    1ea0:	00368e13          	addi	t3,a3,3
    1ea4:	00468913          	addi	s2,a3,4
    1ea8:	00760633          	add	a2,a2,t2
    1eac:	00f60023          	sb	a5,0(a2)
    1eb0:	92872603          	lw	a2,-1752(a4)
    1eb4:	00568493          	addi	s1,a3,5
    1eb8:	00668413          	addi	s0,a3,6
    1ebc:	00560633          	add	a2,a2,t0
    1ec0:	00f60023          	sb	a5,0(a2)
    1ec4:	92872603          	lw	a2,-1752(a4)
    1ec8:	00768393          	addi	t2,a3,7
    1ecc:	00868293          	addi	t0,a3,8
    1ed0:	01c60633          	add	a2,a2,t3
    1ed4:	00f60023          	sb	a5,0(a2)
    1ed8:	92872603          	lw	a2,-1752(a4)
    1edc:	00968e13          	addi	t3,a3,9
    1ee0:	14068693          	addi	a3,a3,320
    1ee4:	01260633          	add	a2,a2,s2
    1ee8:	00f60023          	sb	a5,0(a2)
    1eec:	92872603          	lw	a2,-1752(a4)
    1ef0:	00960633          	add	a2,a2,s1
    1ef4:	00f60023          	sb	a5,0(a2)
    1ef8:	92872603          	lw	a2,-1752(a4)
    1efc:	00860633          	add	a2,a2,s0
    1f00:	00f60023          	sb	a5,0(a2)
    1f04:	92872603          	lw	a2,-1752(a4)
    1f08:	00760633          	add	a2,a2,t2
    1f0c:	00f60023          	sb	a5,0(a2)
    1f10:	92872603          	lw	a2,-1752(a4)
    1f14:	00560633          	add	a2,a2,t0
    1f18:	00f60023          	sb	a5,0(a2)
    1f1c:	92872603          	lw	a2,-1752(a4)
    1f20:	01c60633          	add	a2,a2,t3
    1f24:	00f60023          	sb	a5,0(a2)
    1f28:	f6d310e3          	bne	t1,a3,1e88 <draw_E+0x224>
    1f2c:	01f586b3          	add	a3,a1,t6
    1f30:	92872603          	lw	a2,-1752(a4)
    1f34:	00168393          	addi	t2,a3,1
    1f38:	00268293          	addi	t0,a3,2
    1f3c:	00d60633          	add	a2,a2,a3
    1f40:	00f60023          	sb	a5,0(a2)
    1f44:	92872603          	lw	a2,-1752(a4)
    1f48:	00368e13          	addi	t3,a3,3
    1f4c:	00468913          	addi	s2,a3,4
    1f50:	00760633          	add	a2,a2,t2
    1f54:	00f60023          	sb	a5,0(a2)
    1f58:	92872603          	lw	a2,-1752(a4)
    1f5c:	00568493          	addi	s1,a3,5
    1f60:	00668413          	addi	s0,a3,6
    1f64:	00560633          	add	a2,a2,t0
    1f68:	00f60023          	sb	a5,0(a2)
    1f6c:	92872603          	lw	a2,-1752(a4)
    1f70:	00768393          	addi	t2,a3,7
    1f74:	00868293          	addi	t0,a3,8
    1f78:	01c60633          	add	a2,a2,t3
    1f7c:	00f60023          	sb	a5,0(a2)
    1f80:	92872603          	lw	a2,-1752(a4)
    1f84:	00968e13          	addi	t3,a3,9
    1f88:	14068693          	addi	a3,a3,320
    1f8c:	01260633          	add	a2,a2,s2
    1f90:	00f60023          	sb	a5,0(a2)
    1f94:	92872603          	lw	a2,-1752(a4)
    1f98:	00960633          	add	a2,a2,s1
    1f9c:	00f60023          	sb	a5,0(a2)
    1fa0:	92872603          	lw	a2,-1752(a4)
    1fa4:	00860633          	add	a2,a2,s0
    1fa8:	00f60023          	sb	a5,0(a2)
    1fac:	92872603          	lw	a2,-1752(a4)
    1fb0:	00760633          	add	a2,a2,t2
    1fb4:	00f60023          	sb	a5,0(a2)
    1fb8:	92872603          	lw	a2,-1752(a4)
    1fbc:	00560633          	add	a2,a2,t0
    1fc0:	00f60023          	sb	a5,0(a2)
    1fc4:	92872603          	lw	a2,-1752(a4)
    1fc8:	01c60633          	add	a2,a2,t3
    1fcc:	00f60023          	sb	a5,0(a2)
    1fd0:	f6d590e3          	bne	a1,a3,1f30 <draw_E+0x2cc>
    1fd4:	00a50513          	addi	a0,a0,10
    1fd8:	00a58593          	addi	a1,a1,10
    1fdc:	00a30313          	addi	t1,t1,10
    1fe0:	00a80813          	addi	a6,a6,10
    1fe4:	dea89ce3          	bne	a7,a0,1ddc <draw_E+0x178>
    1fe8:	00c12403          	lw	s0,12(sp)
    1fec:	00812483          	lw	s1,8(sp)
    1ff0:	00412903          	lw	s2,4(sp)
    1ff4:	01010113          	addi	sp,sp,16
    1ff8:	00008067          	ret

00001ffc <draw_O>:
    1ffc:	ff010113          	addi	sp,sp,-16
    2000:	0000a537          	lui	a0,0xa
    2004:	0000d5b7          	lui	a1,0xd
    2008:	ffffc8b7          	lui	a7,0xffffc
    200c:	fffff337          	lui	t1,0xfffff
    2010:	0000d837          	lui	a6,0xd
    2014:	00812623          	sw	s0,12(sp)
    2018:	2b750513          	addi	a0,a0,695 # a2b7 <__global_pointer+0x5196>
    201c:	4b758593          	addi	a1,a1,1207 # d4b7 <__global_pointer+0x8396>
    2020:	000057b7          	lui	a5,0x5
    2024:	18088893          	addi	a7,a7,384 # ffffc180 <_stack_end+0xffef7470>
    2028:	fe000713          	li	a4,-32
    202c:	38030313          	addi	t1,t1,896 # fffff380 <_stack_end+0xffefa670>
    2030:	4d580813          	addi	a6,a6,1237 # d4d5 <__global_pointer+0x83b4>
    2034:	011586b3          	add	a3,a1,a7
    2038:	9287a603          	lw	a2,-1752(a5) # 4928 <VGA>
    203c:	00168f13          	addi	t5,a3,1
    2040:	00268e93          	addi	t4,a3,2
    2044:	00d60633          	add	a2,a2,a3
    2048:	00e60023          	sb	a4,0(a2)
    204c:	9287a603          	lw	a2,-1752(a5)
    2050:	00368e13          	addi	t3,a3,3
    2054:	00468393          	addi	t2,a3,4
    2058:	01e60633          	add	a2,a2,t5
    205c:	00e60023          	sb	a4,0(a2)
    2060:	9287a603          	lw	a2,-1752(a5)
    2064:	00568293          	addi	t0,a3,5
    2068:	00668f93          	addi	t6,a3,6
    206c:	01d60633          	add	a2,a2,t4
    2070:	00e60023          	sb	a4,0(a2)
    2074:	9287a603          	lw	a2,-1752(a5)
    2078:	00768f13          	addi	t5,a3,7
    207c:	00868e93          	addi	t4,a3,8
    2080:	01c60633          	add	a2,a2,t3
    2084:	00e60023          	sb	a4,0(a2)
    2088:	9287a603          	lw	a2,-1752(a5)
    208c:	00968e13          	addi	t3,a3,9
    2090:	14068693          	addi	a3,a3,320
    2094:	00760633          	add	a2,a2,t2
    2098:	00e60023          	sb	a4,0(a2)
    209c:	9287a603          	lw	a2,-1752(a5)
    20a0:	00560633          	add	a2,a2,t0
    20a4:	00e60023          	sb	a4,0(a2)
    20a8:	9287a603          	lw	a2,-1752(a5)
    20ac:	01f60633          	add	a2,a2,t6
    20b0:	00e60023          	sb	a4,0(a2)
    20b4:	9287a603          	lw	a2,-1752(a5)
    20b8:	01e60633          	add	a2,a2,t5
    20bc:	00e60023          	sb	a4,0(a2)
    20c0:	9287a603          	lw	a2,-1752(a5)
    20c4:	01d60633          	add	a2,a2,t4
    20c8:	00e60023          	sb	a4,0(a2)
    20cc:	9287a603          	lw	a2,-1752(a5)
    20d0:	01c60633          	add	a2,a2,t3
    20d4:	00e60023          	sb	a4,0(a2)
    20d8:	f6d510e3          	bne	a0,a3,2038 <draw_O+0x3c>
    20dc:	006586b3          	add	a3,a1,t1
    20e0:	9287a603          	lw	a2,-1752(a5)
    20e4:	00168f13          	addi	t5,a3,1
    20e8:	00268e93          	addi	t4,a3,2
    20ec:	00d60633          	add	a2,a2,a3
    20f0:	00e60023          	sb	a4,0(a2)
    20f4:	9287a603          	lw	a2,-1752(a5)
    20f8:	00368e13          	addi	t3,a3,3
    20fc:	00468393          	addi	t2,a3,4
    2100:	01e60633          	add	a2,a2,t5
    2104:	00e60023          	sb	a4,0(a2)
    2108:	9287a603          	lw	a2,-1752(a5)
    210c:	00568293          	addi	t0,a3,5
    2110:	00668f93          	addi	t6,a3,6
    2114:	01d60633          	add	a2,a2,t4
    2118:	00e60023          	sb	a4,0(a2)
    211c:	9287a603          	lw	a2,-1752(a5)
    2120:	00768f13          	addi	t5,a3,7
    2124:	00868e93          	addi	t4,a3,8
    2128:	01c60633          	add	a2,a2,t3
    212c:	00e60023          	sb	a4,0(a2)
    2130:	9287a603          	lw	a2,-1752(a5)
    2134:	00968e13          	addi	t3,a3,9
    2138:	14068693          	addi	a3,a3,320
    213c:	00760633          	add	a2,a2,t2
    2140:	00e60023          	sb	a4,0(a2)
    2144:	9287a603          	lw	a2,-1752(a5)
    2148:	00560633          	add	a2,a2,t0
    214c:	00e60023          	sb	a4,0(a2)
    2150:	9287a603          	lw	a2,-1752(a5)
    2154:	01f60633          	add	a2,a2,t6
    2158:	00e60023          	sb	a4,0(a2)
    215c:	9287a603          	lw	a2,-1752(a5)
    2160:	01e60633          	add	a2,a2,t5
    2164:	00e60023          	sb	a4,0(a2)
    2168:	9287a603          	lw	a2,-1752(a5)
    216c:	01d60633          	add	a2,a2,t4
    2170:	00e60023          	sb	a4,0(a2)
    2174:	9287a603          	lw	a2,-1752(a5)
    2178:	01c60633          	add	a2,a2,t3
    217c:	00e60023          	sb	a4,0(a2)
    2180:	f6d590e3          	bne	a1,a3,20e0 <draw_O+0xe4>
    2184:	00a58593          	addi	a1,a1,10
    2188:	00a50513          	addi	a0,a0,10
    218c:	eb0594e3          	bne	a1,a6,2034 <draw_O+0x38>
    2190:	0000b537          	lui	a0,0xb
    2194:	0000b5b7          	lui	a1,0xb
    2198:	fffff337          	lui	t1,0xfffff
    219c:	fffffe37          	lui	t3,0xfffff
    21a0:	00001837          	lui	a6,0x1
    21a4:	0000d8b7          	lui	a7,0xd
    21a8:	f2d50513          	addi	a0,a0,-211 # af2d <__global_pointer+0x5e0c>
    21ac:	f5558593          	addi	a1,a1,-171 # af55 <__global_pointer+0x5e34>
    21b0:	35830313          	addi	t1,t1,856 # fffff358 <_stack_end+0xffefa648>
    21b4:	fe000713          	li	a4,-32
    21b8:	380e0e13          	addi	t3,t3,896 # fffff380 <_stack_end+0xffefa670>
    21bc:	c8080813          	addi	a6,a6,-896 # c80 <draw_letter_block+0x7c>
    21c0:	4d588893          	addi	a7,a7,1237 # d4d5 <__global_pointer+0x83b4>
    21c4:	006586b3          	add	a3,a1,t1
    21c8:	9287a603          	lw	a2,-1752(a5)
    21cc:	00168f93          	addi	t6,a3,1
    21d0:	00268f13          	addi	t5,a3,2
    21d4:	00d60633          	add	a2,a2,a3
    21d8:	00e60023          	sb	a4,0(a2)
    21dc:	9287a603          	lw	a2,-1752(a5)
    21e0:	00368e93          	addi	t4,a3,3
    21e4:	00468413          	addi	s0,a3,4
    21e8:	01f60633          	add	a2,a2,t6
    21ec:	00e60023          	sb	a4,0(a2)
    21f0:	9287a603          	lw	a2,-1752(a5)
    21f4:	00568393          	addi	t2,a3,5
    21f8:	00668293          	addi	t0,a3,6
    21fc:	01e60633          	add	a2,a2,t5
    2200:	00e60023          	sb	a4,0(a2)
    2204:	9287a603          	lw	a2,-1752(a5)
    2208:	00768f93          	addi	t6,a3,7
    220c:	00868f13          	addi	t5,a3,8
    2210:	01d60633          	add	a2,a2,t4
    2214:	00e60023          	sb	a4,0(a2)
    2218:	9287a603          	lw	a2,-1752(a5)
    221c:	00968e93          	addi	t4,a3,9
    2220:	14068693          	addi	a3,a3,320
    2224:	00860633          	add	a2,a2,s0
    2228:	00e60023          	sb	a4,0(a2)
    222c:	9287a603          	lw	a2,-1752(a5)
    2230:	00760633          	add	a2,a2,t2
    2234:	00e60023          	sb	a4,0(a2)
    2238:	9287a603          	lw	a2,-1752(a5)
    223c:	00560633          	add	a2,a2,t0
    2240:	00e60023          	sb	a4,0(a2)
    2244:	9287a603          	lw	a2,-1752(a5)
    2248:	01f60633          	add	a2,a2,t6
    224c:	00e60023          	sb	a4,0(a2)
    2250:	9287a603          	lw	a2,-1752(a5)
    2254:	01e60633          	add	a2,a2,t5
    2258:	00e60023          	sb	a4,0(a2)
    225c:	9287a603          	lw	a2,-1752(a5)
    2260:	01d60633          	add	a2,a2,t4
    2264:	00e60023          	sb	a4,0(a2)
    2268:	f6d510e3          	bne	a0,a3,21c8 <draw_O+0x1cc>
    226c:	01c586b3          	add	a3,a1,t3
    2270:	9287a603          	lw	a2,-1752(a5)
    2274:	00168f93          	addi	t6,a3,1
    2278:	00268f13          	addi	t5,a3,2
    227c:	00d60633          	add	a2,a2,a3
    2280:	00e60023          	sb	a4,0(a2)
    2284:	9287a603          	lw	a2,-1752(a5)
    2288:	00368e93          	addi	t4,a3,3
    228c:	00468413          	addi	s0,a3,4
    2290:	01f60633          	add	a2,a2,t6
    2294:	00e60023          	sb	a4,0(a2)
    2298:	9287a603          	lw	a2,-1752(a5)
    229c:	00568393          	addi	t2,a3,5
    22a0:	00668293          	addi	t0,a3,6
    22a4:	01e60633          	add	a2,a2,t5
    22a8:	00e60023          	sb	a4,0(a2)
    22ac:	9287a603          	lw	a2,-1752(a5)
    22b0:	00768f93          	addi	t6,a3,7
    22b4:	00868f13          	addi	t5,a3,8
    22b8:	01d60633          	add	a2,a2,t4
    22bc:	00e60023          	sb	a4,0(a2)
    22c0:	9287a603          	lw	a2,-1752(a5)
    22c4:	00968e93          	addi	t4,a3,9
    22c8:	14068693          	addi	a3,a3,320
    22cc:	00860633          	add	a2,a2,s0
    22d0:	00e60023          	sb	a4,0(a2)
    22d4:	9287a603          	lw	a2,-1752(a5)
    22d8:	00760633          	add	a2,a2,t2
    22dc:	00e60023          	sb	a4,0(a2)
    22e0:	9287a603          	lw	a2,-1752(a5)
    22e4:	00560633          	add	a2,a2,t0
    22e8:	00e60023          	sb	a4,0(a2)
    22ec:	9287a603          	lw	a2,-1752(a5)
    22f0:	01f60633          	add	a2,a2,t6
    22f4:	00e60023          	sb	a4,0(a2)
    22f8:	9287a603          	lw	a2,-1752(a5)
    22fc:	01e60633          	add	a2,a2,t5
    2300:	00e60023          	sb	a4,0(a2)
    2304:	9287a603          	lw	a2,-1752(a5)
    2308:	01d60633          	add	a2,a2,t4
    230c:	00e60023          	sb	a4,0(a2)
    2310:	f6d590e3          	bne	a1,a3,2270 <draw_O+0x274>
    2314:	010585b3          	add	a1,a1,a6
    2318:	01050533          	add	a0,a0,a6
    231c:	eb1594e3          	bne	a1,a7,21c4 <draw_O+0x1c8>
    2320:	00c12403          	lw	s0,12(sp)
    2324:	01010113          	addi	sp,sp,16
    2328:	00008067          	ret

0000232c <draw_V>:
    232c:	ff010113          	addi	sp,sp,-16
    2330:	0000a537          	lui	a0,0xa
    2334:	0000a5b7          	lui	a1,0xa
    2338:	fffff337          	lui	t1,0xfffff
    233c:	fffffe37          	lui	t3,0xfffff
    2340:	00001837          	lui	a6,0x1
    2344:	0000d8b7          	lui	a7,0xd
    2348:	00812623          	sw	s0,12(sp)
    234c:	2e950513          	addi	a0,a0,745 # a2e9 <__global_pointer+0x51c8>
    2350:	31158593          	addi	a1,a1,785 # a311 <__global_pointer+0x51f0>
    2354:	00005737          	lui	a4,0x5
    2358:	35830313          	addi	t1,t1,856 # fffff358 <_stack_end+0xffefa648>
    235c:	fe000793          	li	a5,-32
    2360:	380e0e13          	addi	t3,t3,896 # fffff380 <_stack_end+0xffefa670>
    2364:	c8080813          	addi	a6,a6,-896 # c80 <draw_letter_block+0x7c>
    2368:	89188893          	addi	a7,a7,-1903 # c891 <__global_pointer+0x7770>
    236c:	006586b3          	add	a3,a1,t1
    2370:	92872603          	lw	a2,-1752(a4) # 4928 <VGA>
    2374:	00168f93          	addi	t6,a3,1
    2378:	00268f13          	addi	t5,a3,2
    237c:	00d60633          	add	a2,a2,a3
    2380:	00f60023          	sb	a5,0(a2)
    2384:	92872603          	lw	a2,-1752(a4)
    2388:	00368e93          	addi	t4,a3,3
    238c:	00468413          	addi	s0,a3,4
    2390:	01f60633          	add	a2,a2,t6
    2394:	00f60023          	sb	a5,0(a2)
    2398:	92872603          	lw	a2,-1752(a4)
    239c:	00568393          	addi	t2,a3,5
    23a0:	00668293          	addi	t0,a3,6
    23a4:	01e60633          	add	a2,a2,t5
    23a8:	00f60023          	sb	a5,0(a2)
    23ac:	92872603          	lw	a2,-1752(a4)
    23b0:	00768f93          	addi	t6,a3,7
    23b4:	00868f13          	addi	t5,a3,8
    23b8:	01d60633          	add	a2,a2,t4
    23bc:	00f60023          	sb	a5,0(a2)
    23c0:	92872603          	lw	a2,-1752(a4)
    23c4:	00968e93          	addi	t4,a3,9
    23c8:	14068693          	addi	a3,a3,320
    23cc:	00860633          	add	a2,a2,s0
    23d0:	00f60023          	sb	a5,0(a2)
    23d4:	92872603          	lw	a2,-1752(a4)
    23d8:	00760633          	add	a2,a2,t2
    23dc:	00f60023          	sb	a5,0(a2)
    23e0:	92872603          	lw	a2,-1752(a4)
    23e4:	00560633          	add	a2,a2,t0
    23e8:	00f60023          	sb	a5,0(a2)
    23ec:	92872603          	lw	a2,-1752(a4)
    23f0:	01f60633          	add	a2,a2,t6
    23f4:	00f60023          	sb	a5,0(a2)
    23f8:	92872603          	lw	a2,-1752(a4)
    23fc:	01e60633          	add	a2,a2,t5
    2400:	00f60023          	sb	a5,0(a2)
    2404:	92872603          	lw	a2,-1752(a4)
    2408:	01d60633          	add	a2,a2,t4
    240c:	00f60023          	sb	a5,0(a2)
    2410:	f6a690e3          	bne	a3,a0,2370 <draw_V+0x44>
    2414:	01c586b3          	add	a3,a1,t3
    2418:	92872603          	lw	a2,-1752(a4)
    241c:	00168f93          	addi	t6,a3,1
    2420:	00268f13          	addi	t5,a3,2
    2424:	00d60633          	add	a2,a2,a3
    2428:	00f60023          	sb	a5,0(a2)
    242c:	92872603          	lw	a2,-1752(a4)
    2430:	00368e93          	addi	t4,a3,3
    2434:	00468413          	addi	s0,a3,4
    2438:	01f60633          	add	a2,a2,t6
    243c:	00f60023          	sb	a5,0(a2)
    2440:	92872603          	lw	a2,-1752(a4)
    2444:	00568393          	addi	t2,a3,5
    2448:	00668293          	addi	t0,a3,6
    244c:	01e60633          	add	a2,a2,t5
    2450:	00f60023          	sb	a5,0(a2)
    2454:	92872603          	lw	a2,-1752(a4)
    2458:	00768f93          	addi	t6,a3,7
    245c:	00868f13          	addi	t5,a3,8
    2460:	01d60633          	add	a2,a2,t4
    2464:	00f60023          	sb	a5,0(a2)
    2468:	92872603          	lw	a2,-1752(a4)
    246c:	00968e93          	addi	t4,a3,9
    2470:	14068693          	addi	a3,a3,320
    2474:	00860633          	add	a2,a2,s0
    2478:	00f60023          	sb	a5,0(a2)
    247c:	92872603          	lw	a2,-1752(a4)
    2480:	00760633          	add	a2,a2,t2
    2484:	00f60023          	sb	a5,0(a2)
    2488:	92872603          	lw	a2,-1752(a4)
    248c:	00560633          	add	a2,a2,t0
    2490:	00f60023          	sb	a5,0(a2)
    2494:	92872603          	lw	a2,-1752(a4)
    2498:	01f60633          	add	a2,a2,t6
    249c:	00f60023          	sb	a5,0(a2)
    24a0:	92872603          	lw	a2,-1752(a4)
    24a4:	01e60633          	add	a2,a2,t5
    24a8:	00f60023          	sb	a5,0(a2)
    24ac:	92872603          	lw	a2,-1752(a4)
    24b0:	01d60633          	add	a2,a2,t4
    24b4:	00f60023          	sb	a5,0(a2)
    24b8:	f6b690e3          	bne	a3,a1,2418 <draw_V+0xec>
    24bc:	010685b3          	add	a1,a3,a6
    24c0:	01050533          	add	a0,a0,a6
    24c4:	eb1594e3          	bne	a1,a7,236c <draw_V+0x40>
    24c8:	92872683          	lw	a3,-1752(a4)
    24cc:	0000c737          	lui	a4,0xc
    24d0:	0000d5b7          	lui	a1,0xd
    24d4:	00e68733          	add	a4,a3,a4
    24d8:	bef709a3          	sb	a5,-1037(a4) # bbf3 <__global_pointer+0x6ad2>
    24dc:	bef70a23          	sb	a5,-1036(a4)
    24e0:	bef70aa3          	sb	a5,-1035(a4)
    24e4:	bef70b23          	sb	a5,-1034(a4)
    24e8:	bef70ba3          	sb	a5,-1033(a4)
    24ec:	bef70c23          	sb	a5,-1032(a4)
    24f0:	bef70ca3          	sb	a5,-1031(a4)
    24f4:	bef70d23          	sb	a5,-1030(a4)
    24f8:	bef70da3          	sb	a5,-1029(a4)
    24fc:	bef70e23          	sb	a5,-1028(a4)
    2500:	d2f709a3          	sb	a5,-717(a4)
    2504:	d2f70a23          	sb	a5,-716(a4)
    2508:	d2f70aa3          	sb	a5,-715(a4)
    250c:	d2f70b23          	sb	a5,-714(a4)
    2510:	d2f70ba3          	sb	a5,-713(a4)
    2514:	d2f70c23          	sb	a5,-712(a4)
    2518:	d2f70ca3          	sb	a5,-711(a4)
    251c:	d2f70d23          	sb	a5,-710(a4)
    2520:	d2f70da3          	sb	a5,-709(a4)
    2524:	d2f70e23          	sb	a5,-708(a4)
    2528:	e6f709a3          	sb	a5,-397(a4)
    252c:	e6f70a23          	sb	a5,-396(a4)
    2530:	e6f70aa3          	sb	a5,-395(a4)
    2534:	e6f70b23          	sb	a5,-394(a4)
    2538:	e6f70ba3          	sb	a5,-393(a4)
    253c:	e6f70c23          	sb	a5,-392(a4)
    2540:	e6f70ca3          	sb	a5,-391(a4)
    2544:	e6f70d23          	sb	a5,-390(a4)
    2548:	e6f70da3          	sb	a5,-389(a4)
    254c:	e6f70e23          	sb	a5,-388(a4)
    2550:	faf709a3          	sb	a5,-77(a4)
    2554:	faf70a23          	sb	a5,-76(a4)
    2558:	faf70aa3          	sb	a5,-75(a4)
    255c:	faf70b23          	sb	a5,-74(a4)
    2560:	faf70ba3          	sb	a5,-73(a4)
    2564:	faf70c23          	sb	a5,-72(a4)
    2568:	faf70ca3          	sb	a5,-71(a4)
    256c:	faf70d23          	sb	a5,-70(a4)
    2570:	faf70da3          	sb	a5,-69(a4)
    2574:	faf70e23          	sb	a5,-68(a4)
    2578:	0ef709a3          	sb	a5,243(a4)
    257c:	0ef70a23          	sb	a5,244(a4)
    2580:	0ef70aa3          	sb	a5,245(a4)
    2584:	0ef70b23          	sb	a5,246(a4)
    2588:	0ef70ba3          	sb	a5,247(a4)
    258c:	0ef70c23          	sb	a5,248(a4)
    2590:	0ef70ca3          	sb	a5,249(a4)
    2594:	0ef70d23          	sb	a5,250(a4)
    2598:	0ef70da3          	sb	a5,251(a4)
    259c:	0ef70e23          	sb	a5,252(a4)
    25a0:	22f709a3          	sb	a5,563(a4)
    25a4:	22f70a23          	sb	a5,564(a4)
    25a8:	22f70aa3          	sb	a5,565(a4)
    25ac:	22f70b23          	sb	a5,566(a4)
    25b0:	22f70ba3          	sb	a5,567(a4)
    25b4:	22f70c23          	sb	a5,568(a4)
    25b8:	22f70ca3          	sb	a5,569(a4)
    25bc:	22f70d23          	sb	a5,570(a4)
    25c0:	22f70da3          	sb	a5,571(a4)
    25c4:	22f70e23          	sb	a5,572(a4)
    25c8:	36f709a3          	sb	a5,883(a4)
    25cc:	36f70a23          	sb	a5,884(a4)
    25d0:	36f70aa3          	sb	a5,885(a4)
    25d4:	36f70b23          	sb	a5,886(a4)
    25d8:	36f70ba3          	sb	a5,887(a4)
    25dc:	36f70c23          	sb	a5,888(a4)
    25e0:	36f70ca3          	sb	a5,889(a4)
    25e4:	36f70d23          	sb	a5,890(a4)
    25e8:	36f70da3          	sb	a5,891(a4)
    25ec:	36f70e23          	sb	a5,892(a4)
    25f0:	4af709a3          	sb	a5,1203(a4)
    25f4:	4af70a23          	sb	a5,1204(a4)
    25f8:	4af70aa3          	sb	a5,1205(a4)
    25fc:	4af70b23          	sb	a5,1206(a4)
    2600:	4af70ba3          	sb	a5,1207(a4)
    2604:	4af70c23          	sb	a5,1208(a4)
    2608:	4af70ca3          	sb	a5,1209(a4)
    260c:	4af70d23          	sb	a5,1210(a4)
    2610:	4af70da3          	sb	a5,1211(a4)
    2614:	4af70e23          	sb	a5,1212(a4)
    2618:	5ef709a3          	sb	a5,1523(a4)
    261c:	5ef70a23          	sb	a5,1524(a4)
    2620:	5ef70aa3          	sb	a5,1525(a4)
    2624:	5ef70b23          	sb	a5,1526(a4)
    2628:	5ef70ba3          	sb	a5,1527(a4)
    262c:	5ef70c23          	sb	a5,1528(a4)
    2630:	5ef70ca3          	sb	a5,1529(a4)
    2634:	5ef70d23          	sb	a5,1530(a4)
    2638:	5ef70da3          	sb	a5,1531(a4)
    263c:	5ef70e23          	sb	a5,1532(a4)
    2640:	72f709a3          	sb	a5,1843(a4)
    2644:	72f70a23          	sb	a5,1844(a4)
    2648:	72f70aa3          	sb	a5,1845(a4)
    264c:	72f70b23          	sb	a5,1846(a4)
    2650:	72f70ba3          	sb	a5,1847(a4)
    2654:	72f70c23          	sb	a5,1848(a4)
    2658:	72f70ca3          	sb	a5,1849(a4)
    265c:	72f70d23          	sb	a5,1850(a4)
    2660:	72f70da3          	sb	a5,1851(a4)
    2664:	72f70e23          	sb	a5,1852(a4)
    2668:	c0f703a3          	sb	a5,-1017(a4)
    266c:	c0f70423          	sb	a5,-1016(a4)
    2670:	c0f704a3          	sb	a5,-1015(a4)
    2674:	c0f70523          	sb	a5,-1014(a4)
    2678:	c0f705a3          	sb	a5,-1013(a4)
    267c:	c0f70623          	sb	a5,-1012(a4)
    2680:	c0f706a3          	sb	a5,-1011(a4)
    2684:	c0f70723          	sb	a5,-1010(a4)
    2688:	c0f707a3          	sb	a5,-1009(a4)
    268c:	c0f70823          	sb	a5,-1008(a4)
    2690:	d4f703a3          	sb	a5,-697(a4)
    2694:	d4f70423          	sb	a5,-696(a4)
    2698:	d4f704a3          	sb	a5,-695(a4)
    269c:	d4f70523          	sb	a5,-694(a4)
    26a0:	d4f705a3          	sb	a5,-693(a4)
    26a4:	d4f70623          	sb	a5,-692(a4)
    26a8:	d4f706a3          	sb	a5,-691(a4)
    26ac:	d4f70723          	sb	a5,-690(a4)
    26b0:	d4f707a3          	sb	a5,-689(a4)
    26b4:	d4f70823          	sb	a5,-688(a4)
    26b8:	e8f703a3          	sb	a5,-377(a4)
    26bc:	e8f70423          	sb	a5,-376(a4)
    26c0:	e8f704a3          	sb	a5,-375(a4)
    26c4:	e8f70523          	sb	a5,-374(a4)
    26c8:	e8f705a3          	sb	a5,-373(a4)
    26cc:	e8f70623          	sb	a5,-372(a4)
    26d0:	e8f706a3          	sb	a5,-371(a4)
    26d4:	e8f70723          	sb	a5,-370(a4)
    26d8:	e8f707a3          	sb	a5,-369(a4)
    26dc:	e8f70823          	sb	a5,-368(a4)
    26e0:	fcf703a3          	sb	a5,-57(a4)
    26e4:	fcf70423          	sb	a5,-56(a4)
    26e8:	fcf704a3          	sb	a5,-55(a4)
    26ec:	fcf70523          	sb	a5,-54(a4)
    26f0:	fcf705a3          	sb	a5,-53(a4)
    26f4:	fcf70623          	sb	a5,-52(a4)
    26f8:	fcf706a3          	sb	a5,-51(a4)
    26fc:	fcf70723          	sb	a5,-50(a4)
    2700:	fcf707a3          	sb	a5,-49(a4)
    2704:	fcf70823          	sb	a5,-48(a4)
    2708:	10f703a3          	sb	a5,263(a4)
    270c:	10f70423          	sb	a5,264(a4)
    2710:	10f704a3          	sb	a5,265(a4)
    2714:	10f70523          	sb	a5,266(a4)
    2718:	10f705a3          	sb	a5,267(a4)
    271c:	10f70623          	sb	a5,268(a4)
    2720:	10f706a3          	sb	a5,269(a4)
    2724:	10f70723          	sb	a5,270(a4)
    2728:	10f707a3          	sb	a5,271(a4)
    272c:	10f70823          	sb	a5,272(a4)
    2730:	24f703a3          	sb	a5,583(a4)
    2734:	24f70423          	sb	a5,584(a4)
    2738:	24f704a3          	sb	a5,585(a4)
    273c:	24f70523          	sb	a5,586(a4)
    2740:	24f705a3          	sb	a5,587(a4)
    2744:	24f70623          	sb	a5,588(a4)
    2748:	24f706a3          	sb	a5,589(a4)
    274c:	24f70723          	sb	a5,590(a4)
    2750:	24f707a3          	sb	a5,591(a4)
    2754:	24f70823          	sb	a5,592(a4)
    2758:	38f703a3          	sb	a5,903(a4)
    275c:	38f70423          	sb	a5,904(a4)
    2760:	38f704a3          	sb	a5,905(a4)
    2764:	38f70523          	sb	a5,906(a4)
    2768:	38f705a3          	sb	a5,907(a4)
    276c:	38f70623          	sb	a5,908(a4)
    2770:	38f706a3          	sb	a5,909(a4)
    2774:	38f70723          	sb	a5,910(a4)
    2778:	38f707a3          	sb	a5,911(a4)
    277c:	38f70823          	sb	a5,912(a4)
    2780:	4cf703a3          	sb	a5,1223(a4)
    2784:	4cf70423          	sb	a5,1224(a4)
    2788:	4cf704a3          	sb	a5,1225(a4)
    278c:	4cf70523          	sb	a5,1226(a4)
    2790:	4cf705a3          	sb	a5,1227(a4)
    2794:	4cf70623          	sb	a5,1228(a4)
    2798:	4cf706a3          	sb	a5,1229(a4)
    279c:	4cf70723          	sb	a5,1230(a4)
    27a0:	4cf707a3          	sb	a5,1231(a4)
    27a4:	4cf70823          	sb	a5,1232(a4)
    27a8:	60f703a3          	sb	a5,1543(a4)
    27ac:	60f70423          	sb	a5,1544(a4)
    27b0:	60f704a3          	sb	a5,1545(a4)
    27b4:	60f70523          	sb	a5,1546(a4)
    27b8:	60f705a3          	sb	a5,1547(a4)
    27bc:	60f70623          	sb	a5,1548(a4)
    27c0:	60f706a3          	sb	a5,1549(a4)
    27c4:	60f70723          	sb	a5,1550(a4)
    27c8:	60f707a3          	sb	a5,1551(a4)
    27cc:	60f70823          	sb	a5,1552(a4)
    27d0:	74f703a3          	sb	a5,1863(a4)
    27d4:	74f70423          	sb	a5,1864(a4)
    27d8:	74f704a3          	sb	a5,1865(a4)
    27dc:	74f70523          	sb	a5,1866(a4)
    27e0:	74f705a3          	sb	a5,1867(a4)
    27e4:	74f70623          	sb	a5,1868(a4)
    27e8:	74f706a3          	sb	a5,1869(a4)
    27ec:	74f70723          	sb	a5,1870(a4)
    27f0:	74f707a3          	sb	a5,1871(a4)
    27f4:	00b686b3          	add	a3,a3,a1
    27f8:	74f70823          	sb	a5,1872(a4)
    27fc:	86f68ea3          	sb	a5,-1923(a3)
    2800:	86f68f23          	sb	a5,-1922(a3)
    2804:	86f68fa3          	sb	a5,-1921(a3)
    2808:	88f68023          	sb	a5,-1920(a3)
    280c:	88f680a3          	sb	a5,-1919(a3)
    2810:	88f68123          	sb	a5,-1918(a3)
    2814:	88f681a3          	sb	a5,-1917(a3)
    2818:	88f68223          	sb	a5,-1916(a3)
    281c:	88f682a3          	sb	a5,-1915(a3)
    2820:	88f68323          	sb	a5,-1914(a3)
    2824:	9af68ea3          	sb	a5,-1603(a3)
    2828:	9af68f23          	sb	a5,-1602(a3)
    282c:	9af68fa3          	sb	a5,-1601(a3)
    2830:	9cf68023          	sb	a5,-1600(a3)
    2834:	9cf680a3          	sb	a5,-1599(a3)
    2838:	9cf68123          	sb	a5,-1598(a3)
    283c:	9cf681a3          	sb	a5,-1597(a3)
    2840:	9cf68223          	sb	a5,-1596(a3)
    2844:	9cf682a3          	sb	a5,-1595(a3)
    2848:	9cf68323          	sb	a5,-1594(a3)
    284c:	aef68ea3          	sb	a5,-1283(a3)
    2850:	aef68f23          	sb	a5,-1282(a3)
    2854:	aef68fa3          	sb	a5,-1281(a3)
    2858:	b0f68023          	sb	a5,-1280(a3)
    285c:	b0f680a3          	sb	a5,-1279(a3)
    2860:	b0f68123          	sb	a5,-1278(a3)
    2864:	b0f681a3          	sb	a5,-1277(a3)
    2868:	b0f68223          	sb	a5,-1276(a3)
    286c:	b0f682a3          	sb	a5,-1275(a3)
    2870:	b0f68323          	sb	a5,-1274(a3)
    2874:	c2f68ea3          	sb	a5,-963(a3)
    2878:	fe000613          	li	a2,-32
    287c:	c2f68f23          	sb	a5,-962(a3)
    2880:	c2c68fa3          	sb	a2,-961(a3)
    2884:	c4c68023          	sb	a2,-960(a3)
    2888:	c4c680a3          	sb	a2,-959(a3)
    288c:	c4c68123          	sb	a2,-958(a3)
    2890:	c4c681a3          	sb	a2,-957(a3)
    2894:	c4c68223          	sb	a2,-956(a3)
    2898:	c4c682a3          	sb	a2,-955(a3)
    289c:	c4c68323          	sb	a2,-954(a3)
    28a0:	d6c68ea3          	sb	a2,-643(a3)
    28a4:	d6c68f23          	sb	a2,-642(a3)
    28a8:	d6c68fa3          	sb	a2,-641(a3)
    28ac:	d8c68023          	sb	a2,-640(a3)
    28b0:	d8c680a3          	sb	a2,-639(a3)
    28b4:	d8c68123          	sb	a2,-638(a3)
    28b8:	d8c681a3          	sb	a2,-637(a3)
    28bc:	d8c68223          	sb	a2,-636(a3)
    28c0:	d8c682a3          	sb	a2,-635(a3)
    28c4:	d8c68323          	sb	a2,-634(a3)
    28c8:	eac68ea3          	sb	a2,-323(a3)
    28cc:	eac68f23          	sb	a2,-322(a3)
    28d0:	eac68fa3          	sb	a2,-321(a3)
    28d4:	ecc68023          	sb	a2,-320(a3)
    28d8:	ecc680a3          	sb	a2,-319(a3)
    28dc:	ecc68123          	sb	a2,-318(a3)
    28e0:	ecc681a3          	sb	a2,-317(a3)
    28e4:	ecc68223          	sb	a2,-316(a3)
    28e8:	ecc682a3          	sb	a2,-315(a3)
    28ec:	ecc68323          	sb	a2,-314(a3)
    28f0:	fec68ea3          	sb	a2,-3(a3)
    28f4:	fec68f23          	sb	a2,-2(a3)
    28f8:	fec68fa3          	sb	a2,-1(a3)
    28fc:	00c68023          	sb	a2,0(a3)
    2900:	00c680a3          	sb	a2,1(a3)
    2904:	00c68123          	sb	a2,2(a3)
    2908:	00c681a3          	sb	a2,3(a3)
    290c:	00c68223          	sb	a2,4(a3)
    2910:	00c682a3          	sb	a2,5(a3)
    2914:	00c68323          	sb	a2,6(a3)
    2918:	12c68ea3          	sb	a2,317(a3)
    291c:	12c68f23          	sb	a2,318(a3)
    2920:	12c68fa3          	sb	a2,319(a3)
    2924:	14c68023          	sb	a2,320(a3)
    2928:	14c680a3          	sb	a2,321(a3)
    292c:	14c68123          	sb	a2,322(a3)
    2930:	14c681a3          	sb	a2,323(a3)
    2934:	14c68223          	sb	a2,324(a3)
    2938:	14c682a3          	sb	a2,325(a3)
    293c:	14c68323          	sb	a2,326(a3)
    2940:	26c68ea3          	sb	a2,637(a3)
    2944:	26c68f23          	sb	a2,638(a3)
    2948:	26c68fa3          	sb	a2,639(a3)
    294c:	28c68023          	sb	a2,640(a3)
    2950:	28c680a3          	sb	a2,641(a3)
    2954:	28c68123          	sb	a2,642(a3)
    2958:	28c681a3          	sb	a2,643(a3)
    295c:	28c68223          	sb	a2,644(a3)
    2960:	28c682a3          	sb	a2,645(a3)
    2964:	28c68323          	sb	a2,646(a3)
    2968:	3ac68ea3          	sb	a2,957(a3)
    296c:	3ac68f23          	sb	a2,958(a3)
    2970:	3ac68fa3          	sb	a2,959(a3)
    2974:	3cc68023          	sb	a2,960(a3)
    2978:	3cc680a3          	sb	a2,961(a3)
    297c:	3cc68123          	sb	a2,962(a3)
    2980:	3cc681a3          	sb	a2,963(a3)
    2984:	3cc68223          	sb	a2,964(a3)
    2988:	3cc682a3          	sb	a2,965(a3)
    298c:	3cc68323          	sb	a2,966(a3)
    2990:	00c12403          	lw	s0,12(sp)
    2994:	01010113          	addi	sp,sp,16
    2998:	00008067          	ret

0000299c <draw_R>:
    299c:	0000a5b7          	lui	a1,0xa
    29a0:	fffff8b7          	lui	a7,0xfffff
    29a4:	00001837          	lui	a6,0x1
    29a8:	0000e537          	lui	a0,0xe
    29ac:	36158593          	addi	a1,a1,865 # a361 <__global_pointer+0x5240>
    29b0:	000057b7          	lui	a5,0x5
    29b4:	38088893          	addi	a7,a7,896 # fffff380 <_stack_end+0xffefa670>
    29b8:	fe000693          	li	a3,-32
    29bc:	c8080813          	addi	a6,a6,-896 # c80 <draw_letter_block+0x7c>
    29c0:	1e150513          	addi	a0,a0,481 # e1e1 <__global_pointer+0x90c0>
    29c4:	01158733          	add	a4,a1,a7
    29c8:	9287a603          	lw	a2,-1752(a5) # 4928 <VGA>
    29cc:	00170e93          	addi	t4,a4,1
    29d0:	00270e13          	addi	t3,a4,2
    29d4:	00e60633          	add	a2,a2,a4
    29d8:	00d60023          	sb	a3,0(a2)
    29dc:	9287a603          	lw	a2,-1752(a5)
    29e0:	00370313          	addi	t1,a4,3
    29e4:	00470293          	addi	t0,a4,4
    29e8:	01d60633          	add	a2,a2,t4
    29ec:	00d60023          	sb	a3,0(a2)
    29f0:	9287a603          	lw	a2,-1752(a5)
    29f4:	00570f93          	addi	t6,a4,5
    29f8:	00670f13          	addi	t5,a4,6
    29fc:	01c60633          	add	a2,a2,t3
    2a00:	00d60023          	sb	a3,0(a2)
    2a04:	9287a603          	lw	a2,-1752(a5)
    2a08:	00770e93          	addi	t4,a4,7
    2a0c:	00870e13          	addi	t3,a4,8
    2a10:	00660633          	add	a2,a2,t1
    2a14:	00d60023          	sb	a3,0(a2)
    2a18:	9287a603          	lw	a2,-1752(a5)
    2a1c:	00970313          	addi	t1,a4,9
    2a20:	14070713          	addi	a4,a4,320
    2a24:	00560633          	add	a2,a2,t0
    2a28:	00d60023          	sb	a3,0(a2)
    2a2c:	9287a603          	lw	a2,-1752(a5)
    2a30:	01f60633          	add	a2,a2,t6
    2a34:	00d60023          	sb	a3,0(a2)
    2a38:	9287a603          	lw	a2,-1752(a5)
    2a3c:	01e60633          	add	a2,a2,t5
    2a40:	00d60023          	sb	a3,0(a2)
    2a44:	9287a603          	lw	a2,-1752(a5)
    2a48:	01d60633          	add	a2,a2,t4
    2a4c:	00d60023          	sb	a3,0(a2)
    2a50:	9287a603          	lw	a2,-1752(a5)
    2a54:	01c60633          	add	a2,a2,t3
    2a58:	00d60023          	sb	a3,0(a2)
    2a5c:	9287a603          	lw	a2,-1752(a5)
    2a60:	00660633          	add	a2,a2,t1
    2a64:	00d60023          	sb	a3,0(a2)
    2a68:	f6b710e3          	bne	a4,a1,29c8 <draw_R+0x2c>
    2a6c:	010705b3          	add	a1,a4,a6
    2a70:	f4a59ae3          	bne	a1,a0,29c4 <draw_R+0x28>
    2a74:	0000a537          	lui	a0,0xa
    2a78:	0000c5b7          	lui	a1,0xc
    2a7c:	ffffe8b7          	lui	a7,0xffffe
    2a80:	fffff337          	lui	t1,0xfffff
    2a84:	0000c837          	lui	a6,0xc
    2a88:	36b50513          	addi	a0,a0,875 # a36b <__global_pointer+0x524a>
    2a8c:	c6b58593          	addi	a1,a1,-917 # bc6b <__global_pointer+0x6b4a>
    2a90:	a8088893          	addi	a7,a7,-1408 # ffffda80 <_stack_end+0xffef8d70>
    2a94:	fe000713          	li	a4,-32
    2a98:	38030313          	addi	t1,t1,896 # fffff380 <_stack_end+0xffefa670>
    2a9c:	c9380813          	addi	a6,a6,-877 # bc93 <__global_pointer+0x6b72>
    2aa0:	011586b3          	add	a3,a1,a7
    2aa4:	9287a603          	lw	a2,-1752(a5)
    2aa8:	00168f13          	addi	t5,a3,1
    2aac:	00268e93          	addi	t4,a3,2
    2ab0:	00d60633          	add	a2,a2,a3
    2ab4:	00e60023          	sb	a4,0(a2)
    2ab8:	9287a603          	lw	a2,-1752(a5)
    2abc:	00368e13          	addi	t3,a3,3
    2ac0:	00468393          	addi	t2,a3,4
    2ac4:	01e60633          	add	a2,a2,t5
    2ac8:	00e60023          	sb	a4,0(a2)
    2acc:	9287a603          	lw	a2,-1752(a5)
    2ad0:	00568293          	addi	t0,a3,5
    2ad4:	00668f93          	addi	t6,a3,6
    2ad8:	01d60633          	add	a2,a2,t4
    2adc:	00e60023          	sb	a4,0(a2)
    2ae0:	9287a603          	lw	a2,-1752(a5)
    2ae4:	00768f13          	addi	t5,a3,7
    2ae8:	00868e93          	addi	t4,a3,8
    2aec:	01c60633          	add	a2,a2,t3
    2af0:	00e60023          	sb	a4,0(a2)
    2af4:	9287a603          	lw	a2,-1752(a5)
    2af8:	00968e13          	addi	t3,a3,9
    2afc:	14068693          	addi	a3,a3,320
    2b00:	00760633          	add	a2,a2,t2
    2b04:	00e60023          	sb	a4,0(a2)
    2b08:	9287a603          	lw	a2,-1752(a5)
    2b0c:	00560633          	add	a2,a2,t0
    2b10:	00e60023          	sb	a4,0(a2)
    2b14:	9287a603          	lw	a2,-1752(a5)
    2b18:	01f60633          	add	a2,a2,t6
    2b1c:	00e60023          	sb	a4,0(a2)
    2b20:	9287a603          	lw	a2,-1752(a5)
    2b24:	01e60633          	add	a2,a2,t5
    2b28:	00e60023          	sb	a4,0(a2)
    2b2c:	9287a603          	lw	a2,-1752(a5)
    2b30:	01d60633          	add	a2,a2,t4
    2b34:	00e60023          	sb	a4,0(a2)
    2b38:	9287a603          	lw	a2,-1752(a5)
    2b3c:	01c60633          	add	a2,a2,t3
    2b40:	00e60023          	sb	a4,0(a2)
    2b44:	f6a690e3          	bne	a3,a0,2aa4 <draw_R+0x108>
    2b48:	006586b3          	add	a3,a1,t1
    2b4c:	9287a603          	lw	a2,-1752(a5)
    2b50:	00168f13          	addi	t5,a3,1
    2b54:	00268e93          	addi	t4,a3,2
    2b58:	00d60633          	add	a2,a2,a3
    2b5c:	00e60023          	sb	a4,0(a2)
    2b60:	9287a603          	lw	a2,-1752(a5)
    2b64:	00368e13          	addi	t3,a3,3
    2b68:	00468393          	addi	t2,a3,4
    2b6c:	01e60633          	add	a2,a2,t5
    2b70:	00e60023          	sb	a4,0(a2)
    2b74:	9287a603          	lw	a2,-1752(a5)
    2b78:	00568293          	addi	t0,a3,5
    2b7c:	00668f93          	addi	t6,a3,6
    2b80:	01d60633          	add	a2,a2,t4
    2b84:	00e60023          	sb	a4,0(a2)
    2b88:	9287a603          	lw	a2,-1752(a5)
    2b8c:	00768f13          	addi	t5,a3,7
    2b90:	00868e93          	addi	t4,a3,8
    2b94:	01c60633          	add	a2,a2,t3
    2b98:	00e60023          	sb	a4,0(a2)
    2b9c:	9287a603          	lw	a2,-1752(a5)
    2ba0:	00968e13          	addi	t3,a3,9
    2ba4:	14068693          	addi	a3,a3,320
    2ba8:	00760633          	add	a2,a2,t2
    2bac:	00e60023          	sb	a4,0(a2)
    2bb0:	9287a603          	lw	a2,-1752(a5)
    2bb4:	00560633          	add	a2,a2,t0
    2bb8:	00e60023          	sb	a4,0(a2)
    2bbc:	9287a603          	lw	a2,-1752(a5)
    2bc0:	01f60633          	add	a2,a2,t6
    2bc4:	00e60023          	sb	a4,0(a2)
    2bc8:	9287a603          	lw	a2,-1752(a5)
    2bcc:	01e60633          	add	a2,a2,t5
    2bd0:	00e60023          	sb	a4,0(a2)
    2bd4:	9287a603          	lw	a2,-1752(a5)
    2bd8:	01d60633          	add	a2,a2,t4
    2bdc:	00e60023          	sb	a4,0(a2)
    2be0:	9287a603          	lw	a2,-1752(a5)
    2be4:	01c60633          	add	a2,a2,t3
    2be8:	00e60023          	sb	a4,0(a2)
    2bec:	f6b690e3          	bne	a3,a1,2b4c <draw_R+0x1b0>
    2bf0:	00a68593          	addi	a1,a3,10
    2bf4:	00a50513          	addi	a0,a0,10
    2bf8:	eb0594e3          	bne	a1,a6,2aa0 <draw_R+0x104>
    2bfc:	9287a783          	lw	a5,-1752(a5)
    2c00:	0000a6b7          	lui	a3,0xa
    2c04:	0000b637          	lui	a2,0xb
    2c08:	00d786b3          	add	a3,a5,a3
    2c0c:	38e684a3          	sb	a4,905(a3) # a389 <__global_pointer+0x5268>
    2c10:	38e68523          	sb	a4,906(a3)
    2c14:	38e685a3          	sb	a4,907(a3)
    2c18:	38e68623          	sb	a4,908(a3)
    2c1c:	38e686a3          	sb	a4,909(a3)
    2c20:	38e68723          	sb	a4,910(a3)
    2c24:	38e687a3          	sb	a4,911(a3)
    2c28:	38e68823          	sb	a4,912(a3)
    2c2c:	38e688a3          	sb	a4,913(a3)
    2c30:	38e68923          	sb	a4,914(a3)
    2c34:	4ce684a3          	sb	a4,1225(a3)
    2c38:	4ce68523          	sb	a4,1226(a3)
    2c3c:	4ce685a3          	sb	a4,1227(a3)
    2c40:	4ce68623          	sb	a4,1228(a3)
    2c44:	4ce686a3          	sb	a4,1229(a3)
    2c48:	4ce68723          	sb	a4,1230(a3)
    2c4c:	4ce687a3          	sb	a4,1231(a3)
    2c50:	4ce68823          	sb	a4,1232(a3)
    2c54:	4ce688a3          	sb	a4,1233(a3)
    2c58:	4ce68923          	sb	a4,1234(a3)
    2c5c:	60e684a3          	sb	a4,1545(a3)
    2c60:	60e68523          	sb	a4,1546(a3)
    2c64:	60e685a3          	sb	a4,1547(a3)
    2c68:	60e68623          	sb	a4,1548(a3)
    2c6c:	60e686a3          	sb	a4,1549(a3)
    2c70:	60e68723          	sb	a4,1550(a3)
    2c74:	60e687a3          	sb	a4,1551(a3)
    2c78:	60e68823          	sb	a4,1552(a3)
    2c7c:	60e688a3          	sb	a4,1553(a3)
    2c80:	60e68923          	sb	a4,1554(a3)
    2c84:	74e684a3          	sb	a4,1865(a3)
    2c88:	74e68523          	sb	a4,1866(a3)
    2c8c:	74e685a3          	sb	a4,1867(a3)
    2c90:	74e68623          	sb	a4,1868(a3)
    2c94:	74e686a3          	sb	a4,1869(a3)
    2c98:	74e68723          	sb	a4,1870(a3)
    2c9c:	74e687a3          	sb	a4,1871(a3)
    2ca0:	74e68823          	sb	a4,1872(a3)
    2ca4:	74e688a3          	sb	a4,1873(a3)
    2ca8:	00c78633          	add	a2,a5,a2
    2cac:	74e68923          	sb	a4,1874(a3)
    2cb0:	88e604a3          	sb	a4,-1911(a2) # a889 <__global_pointer+0x5768>
    2cb4:	88e60523          	sb	a4,-1910(a2)
    2cb8:	88e605a3          	sb	a4,-1909(a2)
    2cbc:	88e60623          	sb	a4,-1908(a2)
    2cc0:	88e606a3          	sb	a4,-1907(a2)
    2cc4:	88e60723          	sb	a4,-1906(a2)
    2cc8:	88e607a3          	sb	a4,-1905(a2)
    2ccc:	88e60823          	sb	a4,-1904(a2)
    2cd0:	88e608a3          	sb	a4,-1903(a2)
    2cd4:	88e60923          	sb	a4,-1902(a2)
    2cd8:	9ce604a3          	sb	a4,-1591(a2)
    2cdc:	9ce60523          	sb	a4,-1590(a2)
    2ce0:	9ce605a3          	sb	a4,-1589(a2)
    2ce4:	9ce60623          	sb	a4,-1588(a2)
    2ce8:	9ce606a3          	sb	a4,-1587(a2)
    2cec:	9ce60723          	sb	a4,-1586(a2)
    2cf0:	9ce607a3          	sb	a4,-1585(a2)
    2cf4:	9ce60823          	sb	a4,-1584(a2)
    2cf8:	9ce608a3          	sb	a4,-1583(a2)
    2cfc:	9ce60923          	sb	a4,-1582(a2)
    2d00:	b0e604a3          	sb	a4,-1271(a2)
    2d04:	b0e60523          	sb	a4,-1270(a2)
    2d08:	b0e605a3          	sb	a4,-1269(a2)
    2d0c:	b0e60623          	sb	a4,-1268(a2)
    2d10:	b0e606a3          	sb	a4,-1267(a2)
    2d14:	b0e60723          	sb	a4,-1266(a2)
    2d18:	b0e607a3          	sb	a4,-1265(a2)
    2d1c:	b0e60823          	sb	a4,-1264(a2)
    2d20:	b0e608a3          	sb	a4,-1263(a2)
    2d24:	b0e60923          	sb	a4,-1262(a2)
    2d28:	c4e604a3          	sb	a4,-951(a2)
    2d2c:	c4e60523          	sb	a4,-950(a2)
    2d30:	c4e605a3          	sb	a4,-949(a2)
    2d34:	c4e60623          	sb	a4,-948(a2)
    2d38:	c4e606a3          	sb	a4,-947(a2)
    2d3c:	c4e60723          	sb	a4,-946(a2)
    2d40:	c4e607a3          	sb	a4,-945(a2)
    2d44:	c4e60823          	sb	a4,-944(a2)
    2d48:	c4e608a3          	sb	a4,-943(a2)
    2d4c:	c4e60923          	sb	a4,-942(a2)
    2d50:	d8e604a3          	sb	a4,-631(a2)
    2d54:	d8e60523          	sb	a4,-630(a2)
    2d58:	d8e605a3          	sb	a4,-629(a2)
    2d5c:	d8e60623          	sb	a4,-628(a2)
    2d60:	d8e606a3          	sb	a4,-627(a2)
    2d64:	d8e60723          	sb	a4,-626(a2)
    2d68:	d8e607a3          	sb	a4,-625(a2)
    2d6c:	d8e60823          	sb	a4,-624(a2)
    2d70:	d8e608a3          	sb	a4,-623(a2)
    2d74:	d8e60923          	sb	a4,-622(a2)
    2d78:	ece604a3          	sb	a4,-311(a2)
    2d7c:	ece60523          	sb	a4,-310(a2)
    2d80:	ece605a3          	sb	a4,-309(a2)
    2d84:	ece60623          	sb	a4,-308(a2)
    2d88:	ece606a3          	sb	a4,-307(a2)
    2d8c:	ece60723          	sb	a4,-306(a2)
    2d90:	ece607a3          	sb	a4,-305(a2)
    2d94:	ece60823          	sb	a4,-304(a2)
    2d98:	0000c6b7          	lui	a3,0xc
    2d9c:	ece608a3          	sb	a4,-303(a2)
    2da0:	00d786b3          	add	a3,a5,a3
    2da4:	ece60923          	sb	a4,-302(a2)
    2da8:	c6e68fa3          	sb	a4,-897(a3) # bc7f <__global_pointer+0x6b5e>
    2dac:	c8e68023          	sb	a4,-896(a3)
    2db0:	c8e680a3          	sb	a4,-895(a3)
    2db4:	c8e68123          	sb	a4,-894(a3)
    2db8:	c8e681a3          	sb	a4,-893(a3)
    2dbc:	c8e68223          	sb	a4,-892(a3)
    2dc0:	c8e682a3          	sb	a4,-891(a3)
    2dc4:	c8e68323          	sb	a4,-890(a3)
    2dc8:	c8e683a3          	sb	a4,-889(a3)
    2dcc:	c8e68423          	sb	a4,-888(a3)
    2dd0:	dae68fa3          	sb	a4,-577(a3)
    2dd4:	dce68023          	sb	a4,-576(a3)
    2dd8:	dce680a3          	sb	a4,-575(a3)
    2ddc:	dce68123          	sb	a4,-574(a3)
    2de0:	dce681a3          	sb	a4,-573(a3)
    2de4:	dce68223          	sb	a4,-572(a3)
    2de8:	dce682a3          	sb	a4,-571(a3)
    2dec:	dce68323          	sb	a4,-570(a3)
    2df0:	dce683a3          	sb	a4,-569(a3)
    2df4:	dce68423          	sb	a4,-568(a3)
    2df8:	eee68fa3          	sb	a4,-257(a3)
    2dfc:	f0e68023          	sb	a4,-256(a3)
    2e00:	f0e680a3          	sb	a4,-255(a3)
    2e04:	f0e68123          	sb	a4,-254(a3)
    2e08:	f0e681a3          	sb	a4,-253(a3)
    2e0c:	f0e68223          	sb	a4,-252(a3)
    2e10:	f0e682a3          	sb	a4,-251(a3)
    2e14:	f0e68323          	sb	a4,-250(a3)
    2e18:	f0e683a3          	sb	a4,-249(a3)
    2e1c:	f0e68423          	sb	a4,-248(a3)
    2e20:	02e68fa3          	sb	a4,63(a3)
    2e24:	04e68023          	sb	a4,64(a3)
    2e28:	04e680a3          	sb	a4,65(a3)
    2e2c:	04e68123          	sb	a4,66(a3)
    2e30:	04e681a3          	sb	a4,67(a3)
    2e34:	04e68223          	sb	a4,68(a3)
    2e38:	04e682a3          	sb	a4,69(a3)
    2e3c:	04e68323          	sb	a4,70(a3)
    2e40:	04e683a3          	sb	a4,71(a3)
    2e44:	04e68423          	sb	a4,72(a3)
    2e48:	16e68fa3          	sb	a4,383(a3)
    2e4c:	18e68023          	sb	a4,384(a3)
    2e50:	18e680a3          	sb	a4,385(a3)
    2e54:	18e68123          	sb	a4,386(a3)
    2e58:	18e681a3          	sb	a4,387(a3)
    2e5c:	18e68223          	sb	a4,388(a3)
    2e60:	18e682a3          	sb	a4,389(a3)
    2e64:	18e68323          	sb	a4,390(a3)
    2e68:	18e683a3          	sb	a4,391(a3)
    2e6c:	18e68423          	sb	a4,392(a3)
    2e70:	2ae68fa3          	sb	a4,703(a3)
    2e74:	2ce68023          	sb	a4,704(a3)
    2e78:	2ce680a3          	sb	a4,705(a3)
    2e7c:	2ce68123          	sb	a4,706(a3)
    2e80:	2ce681a3          	sb	a4,707(a3)
    2e84:	2ce68223          	sb	a4,708(a3)
    2e88:	2ce682a3          	sb	a4,709(a3)
    2e8c:	2ce68323          	sb	a4,710(a3)
    2e90:	2ce683a3          	sb	a4,711(a3)
    2e94:	2ce68423          	sb	a4,712(a3)
    2e98:	3ee68fa3          	sb	a4,1023(a3)
    2e9c:	40e68023          	sb	a4,1024(a3)
    2ea0:	40e680a3          	sb	a4,1025(a3)
    2ea4:	40e68123          	sb	a4,1026(a3)
    2ea8:	40e681a3          	sb	a4,1027(a3)
    2eac:	40e68223          	sb	a4,1028(a3)
    2eb0:	40e682a3          	sb	a4,1029(a3)
    2eb4:	40e68323          	sb	a4,1030(a3)
    2eb8:	40e683a3          	sb	a4,1031(a3)
    2ebc:	40e68423          	sb	a4,1032(a3)
    2ec0:	52e68fa3          	sb	a4,1343(a3)
    2ec4:	54e68023          	sb	a4,1344(a3)
    2ec8:	54e680a3          	sb	a4,1345(a3)
    2ecc:	54e68123          	sb	a4,1346(a3)
    2ed0:	54e681a3          	sb	a4,1347(a3)
    2ed4:	54e68223          	sb	a4,1348(a3)
    2ed8:	54e682a3          	sb	a4,1349(a3)
    2edc:	54e68323          	sb	a4,1350(a3)
    2ee0:	54e683a3          	sb	a4,1351(a3)
    2ee4:	54e68423          	sb	a4,1352(a3)
    2ee8:	66e68fa3          	sb	a4,1663(a3)
    2eec:	68e68023          	sb	a4,1664(a3)
    2ef0:	68e680a3          	sb	a4,1665(a3)
    2ef4:	68e68123          	sb	a4,1666(a3)
    2ef8:	68e681a3          	sb	a4,1667(a3)
    2efc:	68e68223          	sb	a4,1668(a3)
    2f00:	68e682a3          	sb	a4,1669(a3)
    2f04:	68e68323          	sb	a4,1670(a3)
    2f08:	68e683a3          	sb	a4,1671(a3)
    2f0c:	68e68423          	sb	a4,1672(a3)
    2f10:	7ae68fa3          	sb	a4,1983(a3)
    2f14:	7ce68023          	sb	a4,1984(a3)
    2f18:	7ce680a3          	sb	a4,1985(a3)
    2f1c:	7ce68123          	sb	a4,1986(a3)
    2f20:	7ce681a3          	sb	a4,1987(a3)
    2f24:	7ce68223          	sb	a4,1988(a3)
    2f28:	7ce682a3          	sb	a4,1989(a3)
    2f2c:	7ce68323          	sb	a4,1990(a3)
    2f30:	7ce683a3          	sb	a4,1991(a3)
    2f34:	0000d637          	lui	a2,0xd
    2f38:	00c787b3          	add	a5,a5,a2
    2f3c:	7ce68423          	sb	a4,1992(a3)
    2f40:	90e784a3          	sb	a4,-1783(a5)
    2f44:	90e78523          	sb	a4,-1782(a5)
    2f48:	90e785a3          	sb	a4,-1781(a5)
    2f4c:	90e78623          	sb	a4,-1780(a5)
    2f50:	90e786a3          	sb	a4,-1779(a5)
    2f54:	90e78723          	sb	a4,-1778(a5)
    2f58:	90e787a3          	sb	a4,-1777(a5)
    2f5c:	90e78823          	sb	a4,-1776(a5)
    2f60:	90e788a3          	sb	a4,-1775(a5)
    2f64:	90e78923          	sb	a4,-1774(a5)
    2f68:	a4e784a3          	sb	a4,-1463(a5)
    2f6c:	a4e78523          	sb	a4,-1462(a5)
    2f70:	a4e785a3          	sb	a4,-1461(a5)
    2f74:	a4e78623          	sb	a4,-1460(a5)
    2f78:	a4e786a3          	sb	a4,-1459(a5)
    2f7c:	a4e78723          	sb	a4,-1458(a5)
    2f80:	a4e787a3          	sb	a4,-1457(a5)
    2f84:	a4e78823          	sb	a4,-1456(a5)
    2f88:	a4e788a3          	sb	a4,-1455(a5)
    2f8c:	a4e78923          	sb	a4,-1454(a5)
    2f90:	b8e784a3          	sb	a4,-1143(a5)
    2f94:	b8e78523          	sb	a4,-1142(a5)
    2f98:	b8e785a3          	sb	a4,-1141(a5)
    2f9c:	b8e78623          	sb	a4,-1140(a5)
    2fa0:	b8e786a3          	sb	a4,-1139(a5)
    2fa4:	b8e78723          	sb	a4,-1138(a5)
    2fa8:	b8e787a3          	sb	a4,-1137(a5)
    2fac:	b8e78823          	sb	a4,-1136(a5)
    2fb0:	b8e788a3          	sb	a4,-1135(a5)
    2fb4:	b8e78923          	sb	a4,-1134(a5)
    2fb8:	cce784a3          	sb	a4,-823(a5)
    2fbc:	cce78523          	sb	a4,-822(a5)
    2fc0:	fe000693          	li	a3,-32
    2fc4:	cce785a3          	sb	a4,-821(a5)
    2fc8:	ccd78623          	sb	a3,-820(a5)
    2fcc:	ccd786a3          	sb	a3,-819(a5)
    2fd0:	ccd78723          	sb	a3,-818(a5)
    2fd4:	ccd787a3          	sb	a3,-817(a5)
    2fd8:	ccd78823          	sb	a3,-816(a5)
    2fdc:	ccd788a3          	sb	a3,-815(a5)
    2fe0:	ccd78923          	sb	a3,-814(a5)
    2fe4:	e0d784a3          	sb	a3,-503(a5)
    2fe8:	e0d78523          	sb	a3,-502(a5)
    2fec:	e0d785a3          	sb	a3,-501(a5)
    2ff0:	e0d78623          	sb	a3,-500(a5)
    2ff4:	e0d786a3          	sb	a3,-499(a5)
    2ff8:	e0d78723          	sb	a3,-498(a5)
    2ffc:	e0d787a3          	sb	a3,-497(a5)
    3000:	e0d78823          	sb	a3,-496(a5)
    3004:	e0d788a3          	sb	a3,-495(a5)
    3008:	e0d78923          	sb	a3,-494(a5)
    300c:	f4d784a3          	sb	a3,-183(a5)
    3010:	f4d78523          	sb	a3,-182(a5)
    3014:	f4d785a3          	sb	a3,-181(a5)
    3018:	f4d78623          	sb	a3,-180(a5)
    301c:	f4d786a3          	sb	a3,-179(a5)
    3020:	f4d78723          	sb	a3,-178(a5)
    3024:	f4d787a3          	sb	a3,-177(a5)
    3028:	f4d78823          	sb	a3,-176(a5)
    302c:	f4d788a3          	sb	a3,-175(a5)
    3030:	f4d78923          	sb	a3,-174(a5)
    3034:	08d784a3          	sb	a3,137(a5)
    3038:	08d78523          	sb	a3,138(a5)
    303c:	08d785a3          	sb	a3,139(a5)
    3040:	08d78623          	sb	a3,140(a5)
    3044:	08d786a3          	sb	a3,141(a5)
    3048:	08d78723          	sb	a3,142(a5)
    304c:	08d787a3          	sb	a3,143(a5)
    3050:	08d78823          	sb	a3,144(a5)
    3054:	08d788a3          	sb	a3,145(a5)
    3058:	08d78923          	sb	a3,146(a5)
    305c:	1cd784a3          	sb	a3,457(a5)
    3060:	1cd78523          	sb	a3,458(a5)
    3064:	1cd785a3          	sb	a3,459(a5)
    3068:	1cd78623          	sb	a3,460(a5)
    306c:	1cd786a3          	sb	a3,461(a5)
    3070:	1cd78723          	sb	a3,462(a5)
    3074:	1cd787a3          	sb	a3,463(a5)
    3078:	1cd78823          	sb	a3,464(a5)
    307c:	1cd788a3          	sb	a3,465(a5)
    3080:	1cd78923          	sb	a3,466(a5)
    3084:	30d784a3          	sb	a3,777(a5)
    3088:	30d78523          	sb	a3,778(a5)
    308c:	30d785a3          	sb	a3,779(a5)
    3090:	30d78623          	sb	a3,780(a5)
    3094:	30d786a3          	sb	a3,781(a5)
    3098:	30d78723          	sb	a3,782(a5)
    309c:	30d787a3          	sb	a3,783(a5)
    30a0:	30d78823          	sb	a3,784(a5)
    30a4:	30d788a3          	sb	a3,785(a5)
    30a8:	30d78923          	sb	a3,786(a5)
    30ac:	44d784a3          	sb	a3,1097(a5)
    30b0:	44d78523          	sb	a3,1098(a5)
    30b4:	44d785a3          	sb	a3,1099(a5)
    30b8:	44d78623          	sb	a3,1100(a5)
    30bc:	44d786a3          	sb	a3,1101(a5)
    30c0:	44d78723          	sb	a3,1102(a5)
    30c4:	44d787a3          	sb	a3,1103(a5)
    30c8:	44d78823          	sb	a3,1104(a5)
    30cc:	44d788a3          	sb	a3,1105(a5)
    30d0:	44d78923          	sb	a3,1106(a5)
    30d4:	00008067          	ret

000030d8 <draw_GAMEOVER>:
    30d8:	ff010113          	addi	sp,sp,-16
    30dc:	0e000513          	li	a0,224
    30e0:	00112623          	sw	ra,12(sp)
    30e4:	00812423          	sw	s0,8(sp)
    30e8:	00912223          	sw	s1,4(sp)
    30ec:	d31fd0ef          	jal	e1c <draw_G>
    30f0:	0e000513          	li	a0,224
    30f4:	9dcfe0ef          	jal	12d0 <draw_A>
    30f8:	0e000513          	li	a0,224
    30fc:	cfcfe0ef          	jal	15f8 <draw_M>
    3100:	0e000513          	li	a0,224
    3104:	e30fd0ef          	jal	734 <draw_E.constprop.0>
    3108:	ef5fe0ef          	jal	1ffc <draw_O>
    310c:	a20ff0ef          	jal	232c <draw_V>
    3110:	0000a5b7          	lui	a1,0xa
    3114:	fffff8b7          	lui	a7,0xfffff
    3118:	00001837          	lui	a6,0x1
    311c:	0000e537          	lui	a0,0xe
    3120:	32558593          	addi	a1,a1,805 # a325 <__global_pointer+0x5204>
    3124:	000057b7          	lui	a5,0x5
    3128:	38088893          	addi	a7,a7,896 # fffff380 <_stack_end+0xffefa670>
    312c:	fe000693          	li	a3,-32
    3130:	c8080813          	addi	a6,a6,-896 # c80 <draw_letter_block+0x7c>
    3134:	1a550513          	addi	a0,a0,421 # e1a5 <__global_pointer+0x9084>
    3138:	01158733          	add	a4,a1,a7
    313c:	9287a603          	lw	a2,-1752(a5) # 4928 <VGA>
    3140:	00170e93          	addi	t4,a4,1
    3144:	00270e13          	addi	t3,a4,2
    3148:	00e60633          	add	a2,a2,a4
    314c:	00d60023          	sb	a3,0(a2) # d000 <__global_pointer+0x7edf>
    3150:	9287a603          	lw	a2,-1752(a5)
    3154:	00370313          	addi	t1,a4,3
    3158:	00470293          	addi	t0,a4,4
    315c:	01d60633          	add	a2,a2,t4
    3160:	00d60023          	sb	a3,0(a2)
    3164:	9287a603          	lw	a2,-1752(a5)
    3168:	00570f93          	addi	t6,a4,5
    316c:	00670f13          	addi	t5,a4,6
    3170:	01c60633          	add	a2,a2,t3
    3174:	00d60023          	sb	a3,0(a2)
    3178:	9287a603          	lw	a2,-1752(a5)
    317c:	00770e93          	addi	t4,a4,7
    3180:	00870e13          	addi	t3,a4,8
    3184:	00660633          	add	a2,a2,t1
    3188:	00d60023          	sb	a3,0(a2)
    318c:	9287a603          	lw	a2,-1752(a5)
    3190:	00970313          	addi	t1,a4,9
    3194:	14070713          	addi	a4,a4,320
    3198:	00560633          	add	a2,a2,t0
    319c:	00d60023          	sb	a3,0(a2)
    31a0:	9287a603          	lw	a2,-1752(a5)
    31a4:	01f60633          	add	a2,a2,t6
    31a8:	00d60023          	sb	a3,0(a2)
    31ac:	9287a603          	lw	a2,-1752(a5)
    31b0:	01e60633          	add	a2,a2,t5
    31b4:	00d60023          	sb	a3,0(a2)
    31b8:	9287a603          	lw	a2,-1752(a5)
    31bc:	01d60633          	add	a2,a2,t4
    31c0:	00d60023          	sb	a3,0(a2)
    31c4:	9287a603          	lw	a2,-1752(a5)
    31c8:	01c60633          	add	a2,a2,t3
    31cc:	00d60023          	sb	a3,0(a2)
    31d0:	9287a603          	lw	a2,-1752(a5)
    31d4:	00660633          	add	a2,a2,t1
    31d8:	00d60023          	sb	a3,0(a2)
    31dc:	f6e590e3          	bne	a1,a4,313c <draw_GAMEOVER+0x64>
    31e0:	010585b3          	add	a1,a1,a6
    31e4:	f4a59ae3          	bne	a1,a0,3138 <draw_GAMEOVER+0x60>
    31e8:	0000a837          	lui	a6,0xa
    31ec:	0000c537          	lui	a0,0xc
    31f0:	0000d5b7          	lui	a1,0xd
    31f4:	ffffc337          	lui	t1,0xffffc
    31f8:	ffffeeb7          	lui	t4,0xffffe
    31fc:	fffffe37          	lui	t3,0xfffff
    3200:	0000d8b7          	lui	a7,0xd
    3204:	32f80813          	addi	a6,a6,815 # a32f <__global_pointer+0x520e>
    3208:	c2f50513          	addi	a0,a0,-977 # bc2f <__global_pointer+0x6b0e>
    320c:	52f58593          	addi	a1,a1,1327 # d52f <__global_pointer+0x840e>
    3210:	18030313          	addi	t1,t1,384 # ffffc180 <_stack_end+0xffef7470>
    3214:	fe000713          	li	a4,-32
    3218:	a80e8e93          	addi	t4,t4,-1408 # ffffda80 <_stack_end+0xffef8d70>
    321c:	380e0e13          	addi	t3,t3,896 # fffff380 <_stack_end+0xffefa670>
    3220:	55788893          	addi	a7,a7,1367 # d557 <__global_pointer+0x8436>
    3224:	006586b3          	add	a3,a1,t1
    3228:	9287a603          	lw	a2,-1752(a5)
    322c:	00168293          	addi	t0,a3,1
    3230:	00268f93          	addi	t6,a3,2
    3234:	00d60633          	add	a2,a2,a3
    3238:	00e60023          	sb	a4,0(a2)
    323c:	9287a603          	lw	a2,-1752(a5)
    3240:	00368f13          	addi	t5,a3,3
    3244:	00468493          	addi	s1,a3,4
    3248:	00560633          	add	a2,a2,t0
    324c:	00e60023          	sb	a4,0(a2)
    3250:	9287a603          	lw	a2,-1752(a5)
    3254:	00568413          	addi	s0,a3,5
    3258:	00668393          	addi	t2,a3,6
    325c:	01f60633          	add	a2,a2,t6
    3260:	00e60023          	sb	a4,0(a2)
    3264:	9287a603          	lw	a2,-1752(a5)
    3268:	00768293          	addi	t0,a3,7
    326c:	00868f93          	addi	t6,a3,8
    3270:	01e60633          	add	a2,a2,t5
    3274:	00e60023          	sb	a4,0(a2)
    3278:	9287a603          	lw	a2,-1752(a5)
    327c:	00968f13          	addi	t5,a3,9
    3280:	14068693          	addi	a3,a3,320
    3284:	00960633          	add	a2,a2,s1
    3288:	00e60023          	sb	a4,0(a2)
    328c:	9287a603          	lw	a2,-1752(a5)
    3290:	00860633          	add	a2,a2,s0
    3294:	00e60023          	sb	a4,0(a2)
    3298:	9287a603          	lw	a2,-1752(a5)
    329c:	00760633          	add	a2,a2,t2
    32a0:	00e60023          	sb	a4,0(a2)
    32a4:	9287a603          	lw	a2,-1752(a5)
    32a8:	00560633          	add	a2,a2,t0
    32ac:	00e60023          	sb	a4,0(a2)
    32b0:	9287a603          	lw	a2,-1752(a5)
    32b4:	01f60633          	add	a2,a2,t6
    32b8:	00e60023          	sb	a4,0(a2)
    32bc:	9287a603          	lw	a2,-1752(a5)
    32c0:	01e60633          	add	a2,a2,t5
    32c4:	00e60023          	sb	a4,0(a2)
    32c8:	f6d810e3          	bne	a6,a3,3228 <draw_GAMEOVER+0x150>
    32cc:	01d586b3          	add	a3,a1,t4
    32d0:	9287a603          	lw	a2,-1752(a5)
    32d4:	00168293          	addi	t0,a3,1
    32d8:	00268f93          	addi	t6,a3,2
    32dc:	00d60633          	add	a2,a2,a3
    32e0:	00e60023          	sb	a4,0(a2)
    32e4:	9287a603          	lw	a2,-1752(a5)
    32e8:	00368f13          	addi	t5,a3,3
    32ec:	00468493          	addi	s1,a3,4
    32f0:	00560633          	add	a2,a2,t0
    32f4:	00e60023          	sb	a4,0(a2)
    32f8:	9287a603          	lw	a2,-1752(a5)
    32fc:	00568413          	addi	s0,a3,5
    3300:	00668393          	addi	t2,a3,6
    3304:	01f60633          	add	a2,a2,t6
    3308:	00e60023          	sb	a4,0(a2)
    330c:	9287a603          	lw	a2,-1752(a5)
    3310:	00768293          	addi	t0,a3,7
    3314:	00868f93          	addi	t6,a3,8
    3318:	01e60633          	add	a2,a2,t5
    331c:	00e60023          	sb	a4,0(a2)
    3320:	9287a603          	lw	a2,-1752(a5)
    3324:	00968f13          	addi	t5,a3,9
    3328:	14068693          	addi	a3,a3,320
    332c:	00960633          	add	a2,a2,s1
    3330:	00e60023          	sb	a4,0(a2)
    3334:	9287a603          	lw	a2,-1752(a5)
    3338:	00860633          	add	a2,a2,s0
    333c:	00e60023          	sb	a4,0(a2)
    3340:	9287a603          	lw	a2,-1752(a5)
    3344:	00760633          	add	a2,a2,t2
    3348:	00e60023          	sb	a4,0(a2)
    334c:	9287a603          	lw	a2,-1752(a5)
    3350:	00560633          	add	a2,a2,t0
    3354:	00e60023          	sb	a4,0(a2)
    3358:	9287a603          	lw	a2,-1752(a5)
    335c:	01f60633          	add	a2,a2,t6
    3360:	00e60023          	sb	a4,0(a2)
    3364:	9287a603          	lw	a2,-1752(a5)
    3368:	01e60633          	add	a2,a2,t5
    336c:	00e60023          	sb	a4,0(a2)
    3370:	f6d510e3          	bne	a0,a3,32d0 <draw_GAMEOVER+0x1f8>
    3374:	01c586b3          	add	a3,a1,t3
    3378:	9287a603          	lw	a2,-1752(a5)
    337c:	00168293          	addi	t0,a3,1
    3380:	00268f93          	addi	t6,a3,2
    3384:	00d60633          	add	a2,a2,a3
    3388:	00e60023          	sb	a4,0(a2)
    338c:	9287a603          	lw	a2,-1752(a5)
    3390:	00368f13          	addi	t5,a3,3
    3394:	00468493          	addi	s1,a3,4
    3398:	00560633          	add	a2,a2,t0
    339c:	00e60023          	sb	a4,0(a2)
    33a0:	9287a603          	lw	a2,-1752(a5)
    33a4:	00568413          	addi	s0,a3,5
    33a8:	00668393          	addi	t2,a3,6
    33ac:	01f60633          	add	a2,a2,t6
    33b0:	00e60023          	sb	a4,0(a2)
    33b4:	9287a603          	lw	a2,-1752(a5)
    33b8:	00768293          	addi	t0,a3,7
    33bc:	00868f93          	addi	t6,a3,8
    33c0:	01e60633          	add	a2,a2,t5
    33c4:	00e60023          	sb	a4,0(a2)
    33c8:	9287a603          	lw	a2,-1752(a5)
    33cc:	00968f13          	addi	t5,a3,9
    33d0:	14068693          	addi	a3,a3,320
    33d4:	00960633          	add	a2,a2,s1
    33d8:	00e60023          	sb	a4,0(a2)
    33dc:	9287a603          	lw	a2,-1752(a5)
    33e0:	00860633          	add	a2,a2,s0
    33e4:	00e60023          	sb	a4,0(a2)
    33e8:	9287a603          	lw	a2,-1752(a5)
    33ec:	00760633          	add	a2,a2,t2
    33f0:	00e60023          	sb	a4,0(a2)
    33f4:	9287a603          	lw	a2,-1752(a5)
    33f8:	00560633          	add	a2,a2,t0
    33fc:	00e60023          	sb	a4,0(a2)
    3400:	9287a603          	lw	a2,-1752(a5)
    3404:	01f60633          	add	a2,a2,t6
    3408:	00e60023          	sb	a4,0(a2)
    340c:	9287a603          	lw	a2,-1752(a5)
    3410:	01e60633          	add	a2,a2,t5
    3414:	00e60023          	sb	a4,0(a2)
    3418:	f6d590e3          	bne	a1,a3,3378 <draw_GAMEOVER+0x2a0>
    341c:	00a58593          	addi	a1,a1,10
    3420:	00a50513          	addi	a0,a0,10
    3424:	00a80813          	addi	a6,a6,10
    3428:	df159ee3          	bne	a1,a7,3224 <draw_GAMEOVER+0x14c>
    342c:	00812403          	lw	s0,8(sp)
    3430:	00c12083          	lw	ra,12(sp)
    3434:	00412483          	lw	s1,4(sp)
    3438:	01010113          	addi	sp,sp,16
    343c:	d60ff06f          	j	299c <draw_R>

00003440 <create_background>:
    3440:	000136b7          	lui	a3,0x13
    3444:	00000793          	li	a5,0
    3448:	00005637          	lui	a2,0x5
    344c:	c0068693          	addi	a3,a3,-1024 # 12c00 <__global_pointer+0xdadf>
    3450:	92862703          	lw	a4,-1752(a2) # 4928 <VGA>
    3454:	00f70733          	add	a4,a4,a5
    3458:	00a70023          	sb	a0,0(a4)
    345c:	00178793          	addi	a5,a5,1
    3460:	fed798e3          	bne	a5,a3,3450 <create_background+0x10>
    3464:	000057b7          	lui	a5,0x5
    3468:	9247a783          	lw	a5,-1756(a5) # 4924 <VGA_CTRL>
    346c:	92862703          	lw	a4,-1752(a2)
    3470:	00e7a223          	sw	a4,4(a5)
    3474:	0007a023          	sw	zero,0(a5)
    3478:	00008067          	ret

0000347c <WIN>:
    347c:	ff010113          	addi	sp,sp,-16
    3480:	000057b7          	lui	a5,0x5
    3484:	000136b7          	lui	a3,0x13
    3488:	00812423          	sw	s0,8(sp)
    348c:	c607a223          	sw	zero,-924(a5) # 4c64 <run>
    3490:	00112623          	sw	ra,12(sp)
    3494:	00912223          	sw	s1,4(sp)
    3498:	00000793          	li	a5,0
    349c:	00005437          	lui	s0,0x5
    34a0:	c0068693          	addi	a3,a3,-1024 # 12c00 <__global_pointer+0xdadf>
    34a4:	92842703          	lw	a4,-1752(s0) # 4928 <VGA>
    34a8:	00f70733          	add	a4,a4,a5
    34ac:	00070023          	sb	zero,0(a4)
    34b0:	00178793          	addi	a5,a5,1
    34b4:	fed798e3          	bne	a5,a3,34a4 <WIN+0x28>
    34b8:	000054b7          	lui	s1,0x5
    34bc:	9244a783          	lw	a5,-1756(s1) # 4924 <VGA_CTRL>
    34c0:	92842703          	lw	a4,-1752(s0)
    34c4:	01800513          	li	a0,24
    34c8:	00e7a223          	sw	a4,4(a5)
    34cc:	0007a023          	sw	zero,0(a5)
    34d0:	94dfd0ef          	jal	e1c <draw_G>
    34d4:	01800513          	li	a0,24
    34d8:	df9fd0ef          	jal	12d0 <draw_A>
    34dc:	01800513          	li	a0,24
    34e0:	918fe0ef          	jal	15f8 <draw_M>
    34e4:	01800513          	li	a0,24
    34e8:	a4cfd0ef          	jal	734 <draw_E.constprop.0>
    34ec:	9244a783          	lw	a5,-1756(s1)
    34f0:	92842703          	lw	a4,-1752(s0)
    34f4:	00c12083          	lw	ra,12(sp)
    34f8:	00812403          	lw	s0,8(sp)
    34fc:	00e7a223          	sw	a4,4(a5)
    3500:	0007a023          	sw	zero,0(a5)
    3504:	00412483          	lw	s1,4(sp)
    3508:	01010113          	addi	sp,sp,16
    350c:	00008067          	ret

00003510 <create_playing_field>:
    3510:	fe010113          	addi	sp,sp,-32
    3514:	00912a23          	sw	s1,20(sp)
    3518:	01212823          	sw	s2,16(sp)
    351c:	01312623          	sw	s3,12(sp)
    3520:	00112e23          	sw	ra,28(sp)
    3524:	00812c23          	sw	s0,24(sp)
    3528:	00050913          	mv	s2,a0
    352c:	00000493          	li	s1,0
    3530:	00a00993          	li	s3,10
    3534:	00000413          	li	s0,0
    3538:	00040513          	mv	a0,s0
    353c:	00090613          	mv	a2,s2
    3540:	00048593          	mv	a1,s1
    3544:	00140413          	addi	s0,s0,1
    3548:	801fd0ef          	jal	d48 <draw_grid_block>
    354c:	ff3416e3          	bne	s0,s3,3538 <create_playing_field+0x28>
    3550:	00148493          	addi	s1,s1,1
    3554:	fe8490e3          	bne	s1,s0,3534 <create_playing_field+0x24>
    3558:	000057b7          	lui	a5,0x5
    355c:	00005737          	lui	a4,0x5
    3560:	9247a783          	lw	a5,-1756(a5) # 4924 <VGA_CTRL>
    3564:	92872703          	lw	a4,-1752(a4) # 4928 <VGA>
    3568:	01c12083          	lw	ra,28(sp)
    356c:	01812403          	lw	s0,24(sp)
    3570:	00e7a223          	sw	a4,4(a5)
    3574:	0007a023          	sw	zero,0(a5)
    3578:	01412483          	lw	s1,20(sp)
    357c:	01012903          	lw	s2,16(sp)
    3580:	00c12983          	lw	s3,12(sp)
    3584:	02010113          	addi	sp,sp,32
    3588:	00008067          	ret

0000358c <draw_snake_head>:
    358c:	000056b7          	lui	a3,0x5
    3590:	93068693          	addi	a3,a3,-1744 # 4930 <snake>
    3594:	00c6a703          	lw	a4,12(a3)
    3598:	000027b7          	lui	a5,0x2
    359c:	90078793          	addi	a5,a5,-1792 # 1900 <draw_M+0x308>
    35a0:	00170713          	addi	a4,a4,1
    35a4:	02f70733          	mul	a4,a4,a5
    35a8:	0086a683          	lw	a3,8(a3)
    35ac:	00003837          	lui	a6,0x3
    35b0:	25080813          	addi	a6,a6,592 # 3250 <draw_GAMEOVER+0x178>
    35b4:	00269613          	slli	a2,a3,0x2
    35b8:	00d60633          	add	a2,a2,a3
    35bc:	00261613          	slli	a2,a2,0x2
    35c0:	05060693          	addi	a3,a2,80
    35c4:	40f705b3          	sub	a1,a4,a5
    35c8:	00c585b3          	add	a1,a1,a2
    35cc:	00e686b3          	add	a3,a3,a4
    35d0:	010585b3          	add	a1,a1,a6
    35d4:	00005637          	lui	a2,0x5
    35d8:	fec68793          	addi	a5,a3,-20
    35dc:	92862703          	lw	a4,-1752(a2) # 4928 <VGA>
    35e0:	00f70733          	add	a4,a4,a5
    35e4:	00a70023          	sb	a0,0(a4)
    35e8:	00178793          	addi	a5,a5,1
    35ec:	fed798e3          	bne	a5,a3,35dc <draw_snake_head+0x50>
    35f0:	14078693          	addi	a3,a5,320
    35f4:	feb692e3          	bne	a3,a1,35d8 <draw_snake_head+0x4c>
    35f8:	00008067          	ret

000035fc <draw_pineapple>:
    35fc:	00158593          	addi	a1,a1,1
    3600:	00259713          	slli	a4,a1,0x2
    3604:	00b70733          	add	a4,a4,a1
    3608:	00271713          	slli	a4,a4,0x2
    360c:	00a70713          	addi	a4,a4,10
    3610:	00251613          	slli	a2,a0,0x2
    3614:	000057b7          	lui	a5,0x5
    3618:	00a60633          	add	a2,a2,a0
    361c:	00271693          	slli	a3,a4,0x2
    3620:	9287a583          	lw	a1,-1752(a5) # 4928 <VGA>
    3624:	00261613          	slli	a2,a2,0x2
    3628:	00e686b3          	add	a3,a3,a4
    362c:	00669693          	slli	a3,a3,0x6
    3630:	04360893          	addi	a7,a2,67
    3634:	fc010113          	addi	sp,sp,-64
    3638:	00d88533          	add	a0,a7,a3
    363c:	ffc00713          	li	a4,-4
    3640:	02812e23          	sw	s0,60(sp)
    3644:	02912c23          	sw	s1,56(sp)
    3648:	03212a23          	sw	s2,52(sp)
    364c:	03312823          	sw	s3,48(sp)
    3650:	03412623          	sw	s4,44(sp)
    3654:	03512423          	sw	s5,40(sp)
    3658:	03612223          	sw	s6,36(sp)
    365c:	03712023          	sw	s7,32(sp)
    3660:	01812e23          	sw	s8,28(sp)
    3664:	01912c23          	sw	s9,24(sp)
    3668:	01a12a23          	sw	s10,20(sp)
    366c:	01b12823          	sw	s11,16(sp)
    3670:	00a585b3          	add	a1,a1,a0
    3674:	00e58023          	sb	a4,0(a1)
    3678:	9287a583          	lw	a1,-1752(a5)
    367c:	04460813          	addi	a6,a2,68
    3680:	00d80533          	add	a0,a6,a3
    3684:	00a585b3          	add	a1,a1,a0
    3688:	00e58023          	sb	a4,0(a1)
    368c:	9287a583          	lw	a1,-1752(a5)
    3690:	04560513          	addi	a0,a2,69
    3694:	00d50333          	add	t1,a0,a3
    3698:	006585b3          	add	a1,a1,t1
    369c:	00e58023          	sb	a4,0(a1)
    36a0:	9287a303          	lw	t1,-1752(a5)
    36a4:	04660593          	addi	a1,a2,70
    36a8:	00d58e33          	add	t3,a1,a3
    36ac:	01c30333          	add	t1,t1,t3
    36b0:	00e30023          	sb	a4,0(t1)
    36b4:	9287a303          	lw	t1,-1752(a5)
    36b8:	04760e93          	addi	t4,a2,71
    36bc:	00de8e33          	add	t3,t4,a3
    36c0:	01c30333          	add	t1,t1,t3
    36c4:	00e30023          	sb	a4,0(t1)
    36c8:	9287a303          	lw	t1,-1752(a5)
    36cc:	04860613          	addi	a2,a2,72
    36d0:	00d60e33          	add	t3,a2,a3
    36d4:	01c30333          	add	t1,t1,t3
    36d8:	00e30023          	sb	a4,0(t1)
    36dc:	9287ae03          	lw	t3,-1752(a5)
    36e0:	14068313          	addi	t1,a3,320
    36e4:	00688f33          	add	t5,a7,t1
    36e8:	01ee0e33          	add	t3,t3,t5
    36ec:	00ee0023          	sb	a4,0(t3)
    36f0:	9287ae03          	lw	t3,-1752(a5)
    36f4:	00680fb3          	add	t6,a6,t1
    36f8:	00650f33          	add	t5,a0,t1
    36fc:	01fe0e33          	add	t3,t3,t6
    3700:	00ee0023          	sb	a4,0(t3)
    3704:	9287ae03          	lw	t3,-1752(a5)
    3708:	006582b3          	add	t0,a1,t1
    370c:	006e8fb3          	add	t6,t4,t1
    3710:	01ee0e33          	add	t3,t3,t5
    3714:	00ee0023          	sb	a4,0(t3)
    3718:	9287af03          	lw	t5,-1752(a5)
    371c:	00660333          	add	t1,a2,t1
    3720:	28068e13          	addi	t3,a3,640
    3724:	005f0f33          	add	t5,t5,t0
    3728:	00ef0023          	sb	a4,0(t5)
    372c:	9287af03          	lw	t5,-1752(a5)
    3730:	01c88433          	add	s0,a7,t3
    3734:	01c803b3          	add	t2,a6,t3
    3738:	01ff0f33          	add	t5,t5,t6
    373c:	00ef0023          	sb	a4,0(t5)
    3740:	9287af03          	lw	t5,-1752(a5)
    3744:	01c502b3          	add	t0,a0,t3
    3748:	01c58fb3          	add	t6,a1,t3
    374c:	006f0333          	add	t1,t5,t1
    3750:	00e30023          	sb	a4,0(t1)
    3754:	9287a303          	lw	t1,-1752(a5)
    3758:	01ce89b3          	add	s3,t4,t3
    375c:	01c60e33          	add	t3,a2,t3
    3760:	00830333          	add	t1,t1,s0
    3764:	00e30023          	sb	a4,0(t1)
    3768:	9287af03          	lw	t5,-1752(a5)
    376c:	3c068313          	addi	t1,a3,960
    3770:	00688933          	add	s2,a7,t1
    3774:	007f0f33          	add	t5,t5,t2
    3778:	00ef0023          	sb	a4,0(t5)
    377c:	9287af03          	lw	t5,-1752(a5)
    3780:	006804b3          	add	s1,a6,t1
    3784:	00650433          	add	s0,a0,t1
    3788:	005f0f33          	add	t5,t5,t0
    378c:	00ef0023          	sb	a4,0(t5)
    3790:	9287af03          	lw	t5,-1752(a5)
    3794:	006582b3          	add	t0,a1,t1
    3798:	006e83b3          	add	t2,t4,t1
    379c:	01ff0f33          	add	t5,t5,t6
    37a0:	00ef0023          	sb	a4,0(t5)
    37a4:	9287af83          	lw	t6,-1752(a5)
    37a8:	50068f13          	addi	t5,a3,1280
    37ac:	01e88b33          	add	s6,a7,t5
    37b0:	013f8fb3          	add	t6,t6,s3
    37b4:	00ef8023          	sb	a4,0(t6)
    37b8:	9287af83          	lw	t6,-1752(a5)
    37bc:	01e80ab3          	add	s5,a6,t5
    37c0:	01e50a33          	add	s4,a0,t5
    37c4:	01cf8e33          	add	t3,t6,t3
    37c8:	00ee0023          	sb	a4,0(t3)
    37cc:	9287ae03          	lw	t3,-1752(a5)
    37d0:	01e589b3          	add	s3,a1,t5
    37d4:	00660333          	add	t1,a2,t1
    37d8:	012e0e33          	add	t3,t3,s2
    37dc:	00ee0023          	sb	a4,0(t3)
    37e0:	9287af83          	lw	t6,-1752(a5)
    37e4:	01ee8933          	add	s2,t4,t5
    37e8:	01e60e33          	add	t3,a2,t5
    37ec:	009f8f33          	add	t5,t6,s1
    37f0:	00ef0023          	sb	a4,0(t5)
    37f4:	9287af03          	lw	t5,-1752(a5)
    37f8:	64068f93          	addi	t6,a3,1600
    37fc:	01f88d33          	add	s10,a7,t6
    3800:	008f0f33          	add	t5,t5,s0
    3804:	00ef0023          	sb	a4,0(t5)
    3808:	9287af03          	lw	t5,-1752(a5)
    380c:	01f80cb3          	add	s9,a6,t6
    3810:	01f504b3          	add	s1,a0,t6
    3814:	005f0f33          	add	t5,t5,t0
    3818:	00ef0023          	sb	a4,0(t5)
    381c:	9287af03          	lw	t5,-1752(a5)
    3820:	01f58433          	add	s0,a1,t6
    3824:	01fe82b3          	add	t0,t4,t6
    3828:	007f0f33          	add	t5,t5,t2
    382c:	00ef0023          	sb	a4,0(t5)
    3830:	9287a383          	lw	t2,-1752(a5)
    3834:	01f60fb3          	add	t6,a2,t6
    3838:	78068f13          	addi	t5,a3,1920
    383c:	00638333          	add	t1,t2,t1
    3840:	00e30023          	sb	a4,0(t1)
    3844:	9287a303          	lw	t1,-1752(a5)
    3848:	01e88db3          	add	s11,a7,t5
    384c:	01e803b3          	add	t2,a6,t5
    3850:	01630333          	add	t1,t1,s6
    3854:	00e30023          	sb	a4,0(t1)
    3858:	9287a303          	lw	t1,-1752(a5)
    385c:	01e50c33          	add	s8,a0,t5
    3860:	01e58bb3          	add	s7,a1,t5
    3864:	01530333          	add	t1,t1,s5
    3868:	00e30023          	sb	a4,0(t1)
    386c:	9287a303          	lw	t1,-1752(a5)
    3870:	01ee8b33          	add	s6,t4,t5
    3874:	01e60f33          	add	t5,a2,t5
    3878:	01430333          	add	t1,t1,s4
    387c:	00e30023          	sb	a4,0(t1)
    3880:	9287aa03          	lw	s4,-1752(a5)
    3884:	00001337          	lui	t1,0x1
    3888:	8c030313          	addi	t1,t1,-1856 # 8c0 <__heap_size+0xc0>
    388c:	013a09b3          	add	s3,s4,s3
    3890:	00e98023          	sb	a4,0(s3)
    3894:	9287a983          	lw	s3,-1752(a5)
    3898:	00668333          	add	t1,a3,t1
    389c:	00688ab3          	add	s5,a7,t1
    38a0:	01298933          	add	s2,s3,s2
    38a4:	00e90023          	sb	a4,0(s2)
    38a8:	9287a903          	lw	s2,-1752(a5)
    38ac:	00680a33          	add	s4,a6,t1
    38b0:	006509b3          	add	s3,a0,t1
    38b4:	01c90e33          	add	t3,s2,t3
    38b8:	00ee0023          	sb	a4,0(t3)
    38bc:	9287ae03          	lw	t3,-1752(a5)
    38c0:	00658933          	add	s2,a1,t1
    38c4:	01c12023          	sw	t3,0(sp)
    38c8:	006e8e33          	add	t3,t4,t1
    38cc:	01c12223          	sw	t3,4(sp)
    38d0:	00012e03          	lw	t3,0(sp)
    38d4:	00660333          	add	t1,a2,t1
    38d8:	00612023          	sw	t1,0(sp)
    38dc:	01ae0e33          	add	t3,t3,s10
    38e0:	00ee0023          	sb	a4,0(t3)
    38e4:	9287ae03          	lw	t3,-1752(a5)
    38e8:	00001337          	lui	t1,0x1
    38ec:	a0030313          	addi	t1,t1,-1536 # a00 <__heap_size+0x200>
    38f0:	019e0e33          	add	t3,t3,s9
    38f4:	00ee0023          	sb	a4,0(t3)
    38f8:	9287ae03          	lw	t3,-1752(a5)
    38fc:	00668333          	add	t1,a3,t1
    3900:	00680cb3          	add	s9,a6,t1
    3904:	009e0e33          	add	t3,t3,s1
    3908:	00ee0023          	sb	a4,0(t3)
    390c:	9287ae03          	lw	t3,-1752(a5)
    3910:	006884b3          	add	s1,a7,t1
    3914:	00912423          	sw	s1,8(sp)
    3918:	008e0e33          	add	t3,t3,s0
    391c:	00ee0023          	sb	a4,0(t3)
    3920:	9287ae03          	lw	t3,-1752(a5)
    3924:	006584b3          	add	s1,a1,t1
    3928:	006e8433          	add	s0,t4,t1
    392c:	005e0e33          	add	t3,t3,t0
    3930:	00ee0023          	sb	a4,0(t3)
    3934:	9287a283          	lw	t0,-1752(a5)
    3938:	01912623          	sw	s9,12(sp)
    393c:	00660e33          	add	t3,a2,t1
    3940:	00650cb3          	add	s9,a0,t1
    3944:	01f28333          	add	t1,t0,t6
    3948:	00e30023          	sb	a4,0(t1)
    394c:	9287a303          	lw	t1,-1752(a5)
    3950:	c4068293          	addi	t0,a3,-960
    3954:	00550d33          	add	s10,a0,t0
    3958:	01b30333          	add	t1,t1,s11
    395c:	00e30023          	sb	a4,0(t1)
    3960:	9287af83          	lw	t6,-1752(a5)
    3964:	005582b3          	add	t0,a1,t0
    3968:	01c00313          	li	t1,28
    396c:	007f8fb3          	add	t6,t6,t2
    3970:	00ef8023          	sb	a4,0(t6)
    3974:	9287a383          	lw	t2,-1752(a5)
    3978:	d8068f93          	addi	t6,a3,-640
    397c:	01f50db3          	add	s11,a0,t6
    3980:	018383b3          	add	t2,t2,s8
    3984:	00e38023          	sb	a4,0(t2)
    3988:	9287ac03          	lw	s8,-1752(a5)
    398c:	01f583b3          	add	t2,a1,t6
    3990:	01f888b3          	add	a7,a7,t6
    3994:	017c0bb3          	add	s7,s8,s7
    3998:	00eb8023          	sb	a4,0(s7)
    399c:	9287ab83          	lw	s7,-1752(a5)
    39a0:	01f60fb3          	add	t6,a2,t6
    39a4:	ec068693          	addi	a3,a3,-320
    39a8:	016b8b33          	add	s6,s7,s6
    39ac:	00eb0023          	sb	a4,0(s6)
    39b0:	9287ab03          	lw	s6,-1752(a5)
    39b4:	00d50533          	add	a0,a0,a3
    39b8:	00d585b3          	add	a1,a1,a3
    39bc:	01eb0f33          	add	t5,s6,t5
    39c0:	00ef0023          	sb	a4,0(t5)
    39c4:	9287af03          	lw	t5,-1752(a5)
    39c8:	00d80833          	add	a6,a6,a3
    39cc:	00de86b3          	add	a3,t4,a3
    39d0:	015f0f33          	add	t5,t5,s5
    39d4:	00ef0023          	sb	a4,0(t5)
    39d8:	9287a603          	lw	a2,-1752(a5)
    39dc:	00412e83          	lw	t4,4(sp)
    39e0:	01460633          	add	a2,a2,s4
    39e4:	00e60023          	sb	a4,0(a2)
    39e8:	9287a603          	lw	a2,-1752(a5)
    39ec:	01360633          	add	a2,a2,s3
    39f0:	00e60023          	sb	a4,0(a2)
    39f4:	9287a603          	lw	a2,-1752(a5)
    39f8:	01260633          	add	a2,a2,s2
    39fc:	00e60023          	sb	a4,0(a2)
    3a00:	9287a603          	lw	a2,-1752(a5)
    3a04:	01d60633          	add	a2,a2,t4
    3a08:	00e60023          	sb	a4,0(a2)
    3a0c:	9287a603          	lw	a2,-1752(a5)
    3a10:	00012e83          	lw	t4,0(sp)
    3a14:	01d60633          	add	a2,a2,t4
    3a18:	00e60023          	sb	a4,0(a2)
    3a1c:	9287a603          	lw	a2,-1752(a5)
    3a20:	00812e83          	lw	t4,8(sp)
    3a24:	01d60633          	add	a2,a2,t4
    3a28:	00e60023          	sb	a4,0(a2)
    3a2c:	9287a603          	lw	a2,-1752(a5)
    3a30:	00c12e83          	lw	t4,12(sp)
    3a34:	01d60633          	add	a2,a2,t4
    3a38:	00e60023          	sb	a4,0(a2)
    3a3c:	9287a603          	lw	a2,-1752(a5)
    3a40:	01960633          	add	a2,a2,s9
    3a44:	00e60023          	sb	a4,0(a2)
    3a48:	9287a603          	lw	a2,-1752(a5)
    3a4c:	00960633          	add	a2,a2,s1
    3a50:	00e60023          	sb	a4,0(a2)
    3a54:	9287a603          	lw	a2,-1752(a5)
    3a58:	00860633          	add	a2,a2,s0
    3a5c:	00e60023          	sb	a4,0(a2)
    3a60:	9287a603          	lw	a2,-1752(a5)
    3a64:	01c60633          	add	a2,a2,t3
    3a68:	00e60023          	sb	a4,0(a2)
    3a6c:	9287a703          	lw	a4,-1752(a5)
    3a70:	01a70733          	add	a4,a4,s10
    3a74:	00670023          	sb	t1,0(a4)
    3a78:	9287a703          	lw	a4,-1752(a5)
    3a7c:	00570733          	add	a4,a4,t0
    3a80:	00670023          	sb	t1,0(a4)
    3a84:	9287a703          	lw	a4,-1752(a5)
    3a88:	01b70733          	add	a4,a4,s11
    3a8c:	00670023          	sb	t1,0(a4)
    3a90:	9287a703          	lw	a4,-1752(a5)
    3a94:	00770733          	add	a4,a4,t2
    3a98:	00670023          	sb	t1,0(a4)
    3a9c:	9287a703          	lw	a4,-1752(a5)
    3aa0:	00a70733          	add	a4,a4,a0
    3aa4:	00670023          	sb	t1,0(a4)
    3aa8:	9287a703          	lw	a4,-1752(a5)
    3aac:	00b70733          	add	a4,a4,a1
    3ab0:	00670023          	sb	t1,0(a4)
    3ab4:	9287a703          	lw	a4,-1752(a5)
    3ab8:	01170733          	add	a4,a4,a7
    3abc:	00670023          	sb	t1,0(a4)
    3ac0:	9287a703          	lw	a4,-1752(a5)
    3ac4:	01070733          	add	a4,a4,a6
    3ac8:	00670023          	sb	t1,0(a4)
    3acc:	9287a703          	lw	a4,-1752(a5)
    3ad0:	00d70733          	add	a4,a4,a3
    3ad4:	00670023          	sb	t1,0(a4)
    3ad8:	9287a783          	lw	a5,-1752(a5)
    3adc:	01f787b3          	add	a5,a5,t6
    3ae0:	00678023          	sb	t1,0(a5)
    3ae4:	03c12403          	lw	s0,60(sp)
    3ae8:	03812483          	lw	s1,56(sp)
    3aec:	03412903          	lw	s2,52(sp)
    3af0:	03012983          	lw	s3,48(sp)
    3af4:	02c12a03          	lw	s4,44(sp)
    3af8:	02812a83          	lw	s5,40(sp)
    3afc:	02412b03          	lw	s6,36(sp)
    3b00:	02012b83          	lw	s7,32(sp)
    3b04:	01c12c03          	lw	s8,28(sp)
    3b08:	01812c83          	lw	s9,24(sp)
    3b0c:	01412d03          	lw	s10,20(sp)
    3b10:	01012d83          	lw	s11,16(sp)
    3b14:	04010113          	addi	sp,sp,64
    3b18:	00008067          	ret

00003b1c <create_snake>:
    3b1c:	000057b7          	lui	a5,0x5
    3b20:	93078793          	addi	a5,a5,-1744 # 4930 <snake>
    3b24:	00300713          	li	a4,3
    3b28:	00e7a423          	sw	a4,8(a5)
    3b2c:	00e7a623          	sw	a4,12(a5)
    3b30:	00100713          	li	a4,1
    3b34:	000066b7          	lui	a3,0x6
    3b38:	000085b7          	lui	a1,0x8
    3b3c:	00e7a023          	sw	a4,0(a5)
    3b40:	05200713          	li	a4,82
    3b44:	00e78223          	sb	a4,4(a5)
    3b48:	48c68693          	addi	a3,a3,1164 # 648c <__global_pointer+0x136b>
    3b4c:	00005637          	lui	a2,0x5
    3b50:	d8c58593          	addi	a1,a1,-628 # 7d8c <__global_pointer+0x2c6b>
    3b54:	fec68793          	addi	a5,a3,-20
    3b58:	92862703          	lw	a4,-1752(a2) # 4928 <VGA>
    3b5c:	00f70733          	add	a4,a4,a5
    3b60:	00a70023          	sb	a0,0(a4)
    3b64:	00178793          	addi	a5,a5,1
    3b68:	fed798e3          	bne	a5,a3,3b58 <create_snake+0x3c>
    3b6c:	14078693          	addi	a3,a5,320
    3b70:	feb692e3          	bne	a3,a1,3b54 <create_snake+0x38>
    3b74:	000057b7          	lui	a5,0x5
    3b78:	9247a783          	lw	a5,-1756(a5) # 4924 <VGA_CTRL>
    3b7c:	92862703          	lw	a4,-1752(a2)
    3b80:	00e7a223          	sw	a4,4(a5)
    3b84:	0007a023          	sw	zero,0(a5)
    3b88:	00008067          	ret

00003b8c <lengthen_snake>:
    3b8c:	00005737          	lui	a4,0x5
    3b90:	c6870713          	addi	a4,a4,-920 # 4c68 <snake_tail>
    3b94:	00472e03          	lw	t3,4(a4)
    3b98:	000027b7          	lui	a5,0x2
    3b9c:	90078793          	addi	a5,a5,-1792 # 1900 <draw_M+0x308>
    3ba0:	001e0613          	addi	a2,t3,1
    3ba4:	02f60633          	mul	a2,a2,a5
    3ba8:	00072303          	lw	t1,0(a4)
    3bac:	00005837          	lui	a6,0x5
    3bb0:	93080813          	addi	a6,a6,-1744 # 4930 <snake>
    3bb4:	00082683          	lw	a3,0(a6)
    3bb8:	00231713          	slli	a4,t1,0x2
    3bbc:	00670733          	add	a4,a4,t1
    3bc0:	00271713          	slli	a4,a4,0x2
    3bc4:	00369593          	slli	a1,a3,0x3
    3bc8:	000038b7          	lui	a7,0x3
    3bcc:	40f60533          	sub	a0,a2,a5
    3bd0:	00b805b3          	add	a1,a6,a1
    3bd4:	00168793          	addi	a5,a3,1
    3bd8:	00e50533          	add	a0,a0,a4
    3bdc:	05070693          	addi	a3,a4,80
    3be0:	25088893          	addi	a7,a7,592 # 3250 <draw_GAMEOVER+0x178>
    3be4:	0065a423          	sw	t1,8(a1)
    3be8:	01c5a623          	sw	t3,12(a1)
    3bec:	00c686b3          	add	a3,a3,a2
    3bf0:	00f82023          	sw	a5,0(a6)
    3bf4:	01150533          	add	a0,a0,a7
    3bf8:	000055b7          	lui	a1,0x5
    3bfc:	01c00613          	li	a2,28
    3c00:	fec68793          	addi	a5,a3,-20
    3c04:	9285a703          	lw	a4,-1752(a1) # 4928 <VGA>
    3c08:	00f70733          	add	a4,a4,a5
    3c0c:	00c70023          	sb	a2,0(a4)
    3c10:	00178793          	addi	a5,a5,1
    3c14:	fed798e3          	bne	a5,a3,3c04 <lengthen_snake+0x78>
    3c18:	14078693          	addi	a3,a5,320
    3c1c:	fea692e3          	bne	a3,a0,3c00 <lengthen_snake+0x74>
    3c20:	00082703          	lw	a4,0(a6)
    3c24:	06400793          	li	a5,100
    3c28:	00f70463          	beq	a4,a5,3c30 <lengthen_snake+0xa4>
    3c2c:	00008067          	ret
    3c30:	000057b7          	lui	a5,0x5
    3c34:	00100713          	li	a4,1
    3c38:	c4e7ac23          	sw	a4,-936(a5) # 4c58 <victory>
    3c3c:	00008067          	ret

00003c40 <increment_score>:
    3c40:	000057b7          	lui	a5,0x5
    3c44:	c5c7a503          	lw	a0,-932(a5) # 4c5c <score>
    3c48:	00150513          	addi	a0,a0,1
    3c4c:	c4a7ae23          	sw	a0,-932(a5)
    3c50:	d90fc06f          	j	1e0 <set_score>

00003c54 <game_over>:
    3c54:	000057b7          	lui	a5,0x5
    3c58:	ff010113          	addi	sp,sp,-16
    3c5c:	000136b7          	lui	a3,0x13
    3c60:	c607a223          	sw	zero,-924(a5) # 4c64 <run>
    3c64:	000057b7          	lui	a5,0x5
    3c68:	00812423          	sw	s0,8(sp)
    3c6c:	c407ae23          	sw	zero,-932(a5) # 4c5c <score>
    3c70:	00112623          	sw	ra,12(sp)
    3c74:	00912223          	sw	s1,4(sp)
    3c78:	00000793          	li	a5,0
    3c7c:	00005437          	lui	s0,0x5
    3c80:	c0068693          	addi	a3,a3,-1024 # 12c00 <__global_pointer+0xdadf>
    3c84:	92842703          	lw	a4,-1752(s0) # 4928 <VGA>
    3c88:	00f70733          	add	a4,a4,a5
    3c8c:	00070023          	sb	zero,0(a4)
    3c90:	00178793          	addi	a5,a5,1
    3c94:	fed798e3          	bne	a5,a3,3c84 <game_over+0x30>
    3c98:	000054b7          	lui	s1,0x5
    3c9c:	9244a783          	lw	a5,-1756(s1) # 4924 <VGA_CTRL>
    3ca0:	92842703          	lw	a4,-1752(s0)
    3ca4:	00e7a223          	sw	a4,4(a5)
    3ca8:	0007a023          	sw	zero,0(a5)
    3cac:	c2cff0ef          	jal	30d8 <draw_GAMEOVER>
    3cb0:	9244a783          	lw	a5,-1756(s1)
    3cb4:	92842703          	lw	a4,-1752(s0)
    3cb8:	00c12083          	lw	ra,12(sp)
    3cbc:	00812403          	lw	s0,8(sp)
    3cc0:	00e7a223          	sw	a4,4(a5)
    3cc4:	0007a023          	sw	zero,0(a5)
    3cc8:	00412483          	lw	s1,4(sp)
    3ccc:	01010113          	addi	sp,sp,16
    3cd0:	00008067          	ret

00003cd4 <move_snake>:
    3cd4:	ff010113          	addi	sp,sp,-16
    3cd8:	00812423          	sw	s0,8(sp)
    3cdc:	00005437          	lui	s0,0x5
    3ce0:	93040413          	addi	s0,s0,-1744 # 4930 <snake>
    3ce4:	00042783          	lw	a5,0(s0)
    3ce8:	00005737          	lui	a4,0x5
    3cec:	c6870713          	addi	a4,a4,-920 # 4c68 <snake_tail>
    3cf0:	fff78793          	addi	a5,a5,-1
    3cf4:	00379793          	slli	a5,a5,0x3
    3cf8:	00f407b3          	add	a5,s0,a5
    3cfc:	0087a503          	lw	a0,8(a5)
    3d00:	00c7a583          	lw	a1,12(a5)
    3d04:	00112623          	sw	ra,12(sp)
    3d08:	00a72023          	sw	a0,0(a4)
    3d0c:	00b72223          	sw	a1,4(a4)
    3d10:	d59fc0ef          	jal	a68 <draw_grid_block.constprop.0>
    3d14:	00042703          	lw	a4,0(s0)
    3d18:	00100793          	li	a5,1
    3d1c:	12e7d263          	bge	a5,a4,3e40 <move_snake+0x16c>
    3d20:	00371793          	slli	a5,a4,0x3
    3d24:	00f407b3          	add	a5,s0,a5
    3d28:	00840813          	addi	a6,s0,8
    3d2c:	ff87a603          	lw	a2,-8(a5)
    3d30:	ffc7a683          	lw	a3,-4(a5)
    3d34:	ff878793          	addi	a5,a5,-8
    3d38:	00c7a423          	sw	a2,8(a5)
    3d3c:	00d7a623          	sw	a3,12(a5)
    3d40:	fef816e3          	bne	a6,a5,3d2c <move_snake+0x58>
    3d44:	00444783          	lbu	a5,4(s0)
    3d48:	05200693          	li	a3,82
    3d4c:	0ed78263          	beq	a5,a3,3e30 <move_snake+0x15c>
    3d50:	0cf6e463          	bltu	a3,a5,3e18 <move_snake+0x144>
    3d54:	04400693          	li	a3,68
    3d58:	0ad78863          	beq	a5,a3,3e08 <move_snake+0x134>
    3d5c:	04c00693          	li	a3,76
    3d60:	00d79863          	bne	a5,a3,3d70 <move_snake+0x9c>
    3d64:	00842783          	lw	a5,8(s0)
    3d68:	fff78793          	addi	a5,a5,-1
    3d6c:	00f42423          	sw	a5,8(s0)
    3d70:	08e05463          	blez	a4,3df8 <move_snake+0x124>
    3d74:	00005837          	lui	a6,0x5
    3d78:	93880813          	addi	a6,a6,-1736 # 4938 <snake+0x8>
    3d7c:	000028b7          	lui	a7,0x2
    3d80:	00003e37          	lui	t3,0x3
    3d84:	00000313          	li	t1,0
    3d88:	000055b7          	lui	a1,0x5
    3d8c:	90088893          	addi	a7,a7,-1792 # 1900 <draw_M+0x308>
    3d90:	250e0e13          	addi	t3,t3,592 # 3250 <draw_GAMEOVER+0x178>
    3d94:	01c00613          	li	a2,28
    3d98:	00482783          	lw	a5,4(a6)
    3d9c:	00082683          	lw	a3,0(a6)
    3da0:	00178793          	addi	a5,a5,1
    3da4:	031787b3          	mul	a5,a5,a7
    3da8:	00269713          	slli	a4,a3,0x2
    3dac:	00d70733          	add	a4,a4,a3
    3db0:	00271713          	slli	a4,a4,0x2
    3db4:	05070693          	addi	a3,a4,80
    3db8:	41178533          	sub	a0,a5,a7
    3dbc:	00e50533          	add	a0,a0,a4
    3dc0:	00f686b3          	add	a3,a3,a5
    3dc4:	01c50533          	add	a0,a0,t3
    3dc8:	fec68793          	addi	a5,a3,-20
    3dcc:	9285a703          	lw	a4,-1752(a1) # 4928 <VGA>
    3dd0:	00f70733          	add	a4,a4,a5
    3dd4:	00c70023          	sb	a2,0(a4)
    3dd8:	00178793          	addi	a5,a5,1
    3ddc:	fef698e3          	bne	a3,a5,3dcc <move_snake+0xf8>
    3de0:	14068693          	addi	a3,a3,320
    3de4:	fed512e3          	bne	a0,a3,3dc8 <move_snake+0xf4>
    3de8:	00042783          	lw	a5,0(s0)
    3dec:	00130313          	addi	t1,t1,1
    3df0:	00880813          	addi	a6,a6,8
    3df4:	faf342e3          	blt	t1,a5,3d98 <move_snake+0xc4>
    3df8:	00c12083          	lw	ra,12(sp)
    3dfc:	00812403          	lw	s0,8(sp)
    3e00:	01010113          	addi	sp,sp,16
    3e04:	00008067          	ret
    3e08:	00c42783          	lw	a5,12(s0)
    3e0c:	00178793          	addi	a5,a5,1
    3e10:	00f42623          	sw	a5,12(s0)
    3e14:	f5dff06f          	j	3d70 <move_snake+0x9c>
    3e18:	05500693          	li	a3,85
    3e1c:	f6d790e3          	bne	a5,a3,3d7c <move_snake+0xa8>
    3e20:	00c42783          	lw	a5,12(s0)
    3e24:	fff78793          	addi	a5,a5,-1
    3e28:	00f42623          	sw	a5,12(s0)
    3e2c:	f45ff06f          	j	3d70 <move_snake+0x9c>
    3e30:	00842783          	lw	a5,8(s0)
    3e34:	00178793          	addi	a5,a5,1
    3e38:	00f42423          	sw	a5,8(s0)
    3e3c:	f41ff06f          	j	3d7c <move_snake+0xa8>
    3e40:	00444783          	lbu	a5,4(s0)
    3e44:	05200693          	li	a3,82
    3e48:	00d78a63          	beq	a5,a3,3e5c <move_snake+0x188>
    3e4c:	f0f6f4e3          	bgeu	a3,a5,3d54 <move_snake+0x80>
    3e50:	05500693          	li	a3,85
    3e54:	fcd786e3          	beq	a5,a3,3e20 <move_snake+0x14c>
    3e58:	f19ff06f          	j	3d70 <move_snake+0x9c>
    3e5c:	00842783          	lw	a5,8(s0)
    3e60:	00178793          	addi	a5,a5,1
    3e64:	00f42423          	sw	a5,8(s0)
    3e68:	f09ff06f          	j	3d70 <move_snake+0x9c>

00003e6c <change_direction>:
    3e6c:	05200713          	li	a4,82
    3e70:	02e50e63          	beq	a0,a4,3eac <change_direction+0x40>
    3e74:	04c00793          	li	a5,76
    3e78:	00f50463          	beq	a0,a5,3e80 <change_direction+0x14>
    3e7c:	00008067          	ret
    3e80:	000057b7          	lui	a5,0x5
    3e84:	93078793          	addi	a5,a5,-1744 # 4930 <snake>
    3e88:	0047c683          	lbu	a3,4(a5)
    3e8c:	04e68263          	beq	a3,a4,3ed0 <change_direction+0x64>
    3e90:	06d76063          	bltu	a4,a3,3ef0 <change_direction+0x84>
    3e94:	04400713          	li	a4,68
    3e98:	04e68663          	beq	a3,a4,3ee4 <change_direction+0x78>
    3e9c:	06a69463          	bne	a3,a0,3f04 <change_direction+0x98>
    3ea0:	04400713          	li	a4,68
    3ea4:	00e78223          	sb	a4,4(a5)
    3ea8:	00008067          	ret
    3eac:	000057b7          	lui	a5,0x5
    3eb0:	93078793          	addi	a5,a5,-1744 # 4930 <snake>
    3eb4:	0047c703          	lbu	a4,4(a5)
    3eb8:	fea704e3          	beq	a4,a0,3ea0 <change_direction+0x34>
    3ebc:	02e56063          	bltu	a0,a4,3edc <change_direction+0x70>
    3ec0:	04400693          	li	a3,68
    3ec4:	02d70a63          	beq	a4,a3,3ef8 <change_direction+0x8c>
    3ec8:	04c00693          	li	a3,76
    3ecc:	04d71063          	bne	a4,a3,3f0c <change_direction+0xa0>
    3ed0:	05500713          	li	a4,85
    3ed4:	00e78223          	sb	a4,4(a5)
    3ed8:	00008067          	ret
    3edc:	05500693          	li	a3,85
    3ee0:	02d71463          	bne	a4,a3,3f08 <change_direction+0x9c>
    3ee4:	05200713          	li	a4,82
    3ee8:	00e78223          	sb	a4,4(a5)
    3eec:	00008067          	ret
    3ef0:	05500713          	li	a4,85
    3ef4:	f8e694e3          	bne	a3,a4,3e7c <change_direction+0x10>
    3ef8:	04c00713          	li	a4,76
    3efc:	00e78223          	sb	a4,4(a5)
    3f00:	00008067          	ret
    3f04:	00008067          	ret
    3f08:	00008067          	ret
    3f0c:	00008067          	ret

00003f10 <is_head_on_body>:
    3f10:	000057b7          	lui	a5,0x5
    3f14:	93078793          	addi	a5,a5,-1744 # 4930 <snake>
    3f18:	0007a603          	lw	a2,0(a5)
    3f1c:	00100713          	li	a4,1
    3f20:	02c75c63          	bge	a4,a2,3f58 <is_head_on_body+0x48>
    3f24:	0087a583          	lw	a1,8(a5)
    3f28:	00c7a503          	lw	a0,12(a5)
    3f2c:	01078793          	addi	a5,a5,16
    3f30:	00c0006f          	j	3f3c <is_head_on_body+0x2c>
    3f34:	00878793          	addi	a5,a5,8
    3f38:	02c70063          	beq	a4,a2,3f58 <is_head_on_body+0x48>
    3f3c:	0007a683          	lw	a3,0(a5)
    3f40:	00170713          	addi	a4,a4,1
    3f44:	fed598e3          	bne	a1,a3,3f34 <is_head_on_body+0x24>
    3f48:	0047a683          	lw	a3,4(a5)
    3f4c:	fed514e3          	bne	a0,a3,3f34 <is_head_on_body+0x24>
    3f50:	00100513          	li	a0,1
    3f54:	00008067          	ret
    3f58:	00000513          	li	a0,0
    3f5c:	00008067          	ret

00003f60 <is_head_outside_map>:
    3f60:	000057b7          	lui	a5,0x5
    3f64:	93078793          	addi	a5,a5,-1744 # 4930 <snake>
    3f68:	0087a683          	lw	a3,8(a5)
    3f6c:	00900713          	li	a4,9
    3f70:	00100513          	li	a0,1
    3f74:	00d76863          	bltu	a4,a3,3f84 <is_head_outside_map+0x24>
    3f78:	00c7a503          	lw	a0,12(a5)
    3f7c:	00a53513          	sltiu	a0,a0,10
    3f80:	00153513          	seqz	a0,a0
    3f84:	00008067          	ret

00003f88 <is_head_on_apple>:
    3f88:	000057b7          	lui	a5,0x5
    3f8c:	93078793          	addi	a5,a5,-1744 # 4930 <snake>
    3f90:	0087a683          	lw	a3,8(a5)
    3f94:	00052703          	lw	a4,0(a0)
    3f98:	00e68663          	beq	a3,a4,3fa4 <is_head_on_apple+0x1c>
    3f9c:	00000513          	li	a0,0
    3fa0:	00008067          	ret
    3fa4:	00452503          	lw	a0,4(a0)
    3fa8:	00c7a783          	lw	a5,12(a5)
    3fac:	40f50533          	sub	a0,a0,a5
    3fb0:	00153513          	seqz	a0,a0
    3fb4:	00008067          	ret

00003fb8 <is_block_snake>:
    3fb8:	000057b7          	lui	a5,0x5
    3fbc:	93078793          	addi	a5,a5,-1744 # 4930 <snake>
    3fc0:	0007a603          	lw	a2,0(a5)
    3fc4:	02c05a63          	blez	a2,3ff8 <is_block_snake+0x40>
    3fc8:	00878793          	addi	a5,a5,8
    3fcc:	00000713          	li	a4,0
    3fd0:	00c0006f          	j	3fdc <is_block_snake+0x24>
    3fd4:	00878793          	addi	a5,a5,8
    3fd8:	02c70063          	beq	a4,a2,3ff8 <is_block_snake+0x40>
    3fdc:	0007a683          	lw	a3,0(a5)
    3fe0:	00170713          	addi	a4,a4,1
    3fe4:	fea698e3          	bne	a3,a0,3fd4 <is_block_snake+0x1c>
    3fe8:	0047a683          	lw	a3,4(a5)
    3fec:	feb694e3          	bne	a3,a1,3fd4 <is_block_snake+0x1c>
    3ff0:	00100513          	li	a0,1
    3ff4:	00008067          	ret
    3ff8:	00000513          	li	a0,0
    3ffc:	00008067          	ret

00004000 <spawn_apple>:
    4000:	000056b7          	lui	a3,0x5
    4004:	92c6a783          	lw	a5,-1748(a3) # 492c <random_number_seed>
    4008:	004dc737          	lui	a4,0x4dc
    400c:	70170713          	addi	a4,a4,1793 # 4dc701 <_stack_end+0x3d79f1>
    4010:	02e787b3          	mul	a5,a5,a4
    4014:	00014737          	lui	a4,0x14
    4018:	ff010113          	addi	sp,sp,-16
    401c:	e2070713          	addi	a4,a4,-480 # 13e20 <__global_pointer+0xecff>
    4020:	00812423          	sw	s0,8(sp)
    4024:	00005437          	lui	s0,0x5
    4028:	c6042603          	lw	a2,-928(s0) # 4c60 <apple_exists>
    402c:	00112623          	sw	ra,12(sp)
    4030:	00e78333          	add	t1,a5,a4
    4034:	00c31313          	slli	t1,t1,0xc
    4038:	00c35313          	srli	t1,t1,0xc
    403c:	9266a623          	sw	t1,-1748(a3)
    4040:	08061463          	bnez	a2,40c8 <spawn_apple+0xc8>
    4044:	00a00793          	li	a5,10
    4048:	02f37333          	remu	t1,t1,a5
    404c:	000057b7          	lui	a5,0x5
    4050:	9307a603          	lw	a2,-1744(a5) # 4930 <snake>
    4054:	00005e37          	lui	t3,0x5
    4058:	00050893          	mv	a7,a0
    405c:	00a00f13          	li	t5,10
    4060:	938e0e13          	addi	t3,t3,-1736 # 4938 <snake+0x8>
    4064:	00a30e93          	addi	t4,t1,10
    4068:	00030f93          	mv	t6,t1
    406c:	03efe5b3          	rem	a1,t6,t5
    4070:	00030513          	mv	a0,t1
    4074:	04c05063          	blez	a2,40b4 <spawn_apple+0xb4>
    4078:	00030813          	mv	a6,t1
    407c:	000e0793          	mv	a5,t3
    4080:	00000713          	li	a4,0
    4084:	00c0006f          	j	4090 <spawn_apple+0x90>
    4088:	00878793          	addi	a5,a5,8
    408c:	02c70463          	beq	a4,a2,40b4 <spawn_apple+0xb4>
    4090:	0007a683          	lw	a3,0(a5)
    4094:	00170713          	addi	a4,a4,1
    4098:	fea698e3          	bne	a3,a0,4088 <spawn_apple+0x88>
    409c:	0047a683          	lw	a3,4(a5)
    40a0:	fed594e3          	bne	a1,a3,4088 <spawn_apple+0x88>
    40a4:	00180813          	addi	a6,a6,1
    40a8:	03d80863          	beq	a6,t4,40d8 <spawn_apple+0xd8>
    40ac:	03e86533          	rem	a0,a6,t5
    40b0:	fcdff06f          	j	407c <spawn_apple+0x7c>
    40b4:	00a8a023          	sw	a0,0(a7)
    40b8:	00b8a223          	sw	a1,4(a7)
    40bc:	d40ff0ef          	jal	35fc <draw_pineapple>
    40c0:	00100793          	li	a5,1
    40c4:	c6f42023          	sw	a5,-928(s0)
    40c8:	00c12083          	lw	ra,12(sp)
    40cc:	00812403          	lw	s0,8(sp)
    40d0:	01010113          	addi	sp,sp,16
    40d4:	00008067          	ret
    40d8:	001f8f93          	addi	t6,t6,1
    40dc:	f9df98e3          	bne	t6,t4,406c <spawn_apple+0x6c>
    40e0:	fe9ff06f          	j	40c8 <spawn_apple+0xc8>

000040e4 <create_first_apple>:
    40e4:	00500793          	li	a5,5
    40e8:	ff010113          	addi	sp,sp,-16
    40ec:	00f52023          	sw	a5,0(a0)
    40f0:	00f52223          	sw	a5,4(a0)
    40f4:	00112623          	sw	ra,12(sp)
    40f8:	d18fc0ef          	jal	610 <draw_pineapple.constprop.0>
    40fc:	00c12083          	lw	ra,12(sp)
    4100:	000057b7          	lui	a5,0x5
    4104:	00100713          	li	a4,1
    4108:	c6e7a023          	sw	a4,-928(a5) # 4c60 <apple_exists>
    410c:	01010113          	addi	sp,sp,16
    4110:	00008067          	ret

00004114 <check_collision>:
    4114:	00005837          	lui	a6,0x5
    4118:	93080813          	addi	a6,a6,-1744 # 4930 <snake>
    411c:	00882603          	lw	a2,8(a6)
    4120:	ff010113          	addi	sp,sp,-16
    4124:	00112623          	sw	ra,12(sp)
    4128:	00912223          	sw	s1,4(sp)
    412c:	00900793          	li	a5,9
    4130:	0ac7ea63          	bltu	a5,a2,41e4 <check_collision+0xd0>
    4134:	00c82883          	lw	a7,12(a6)
    4138:	0b17e663          	bltu	a5,a7,41e4 <check_collision+0xd0>
    413c:	00082583          	lw	a1,0(a6)
    4140:	00100713          	li	a4,1
    4144:	00050493          	mv	s1,a0
    4148:	01080793          	addi	a5,a6,16
    414c:	00b74863          	blt	a4,a1,415c <check_collision+0x48>
    4150:	0d00006f          	j	4220 <check_collision+0x10c>
    4154:	00878793          	addi	a5,a5,8
    4158:	0cb70463          	beq	a4,a1,4220 <check_collision+0x10c>
    415c:	0007a683          	lw	a3,0(a5)
    4160:	00170713          	addi	a4,a4,1
    4164:	fed618e3          	bne	a2,a3,4154 <check_collision+0x40>
    4168:	0047a683          	lw	a3,4(a5)
    416c:	fed894e3          	bne	a7,a3,4154 <check_collision+0x40>
    4170:	000057b7          	lui	a5,0x5
    4174:	000136b7          	lui	a3,0x13
    4178:	c607a223          	sw	zero,-924(a5) # 4c64 <run>
    417c:	000057b7          	lui	a5,0x5
    4180:	00812423          	sw	s0,8(sp)
    4184:	c407ae23          	sw	zero,-932(a5) # 4c5c <score>
    4188:	00005437          	lui	s0,0x5
    418c:	00000793          	li	a5,0
    4190:	c0068693          	addi	a3,a3,-1024 # 12c00 <__global_pointer+0xdadf>
    4194:	92842703          	lw	a4,-1752(s0) # 4928 <VGA>
    4198:	00f70733          	add	a4,a4,a5
    419c:	00070023          	sb	zero,0(a4)
    41a0:	00178793          	addi	a5,a5,1
    41a4:	fed798e3          	bne	a5,a3,4194 <check_collision+0x80>
    41a8:	000054b7          	lui	s1,0x5
    41ac:	92842703          	lw	a4,-1752(s0)
    41b0:	9244a783          	lw	a5,-1756(s1) # 4924 <VGA_CTRL>
    41b4:	00e7a223          	sw	a4,4(a5)
    41b8:	0007a023          	sw	zero,0(a5)
    41bc:	f1dfe0ef          	jal	30d8 <draw_GAMEOVER>
    41c0:	92842703          	lw	a4,-1752(s0)
    41c4:	9244a783          	lw	a5,-1756(s1)
    41c8:	00812403          	lw	s0,8(sp)
    41cc:	00e7a223          	sw	a4,4(a5)
    41d0:	0007a023          	sw	zero,0(a5)
    41d4:	00c12083          	lw	ra,12(sp)
    41d8:	00412483          	lw	s1,4(sp)
    41dc:	01010113          	addi	sp,sp,16
    41e0:	00008067          	ret
    41e4:	000057b7          	lui	a5,0x5
    41e8:	000136b7          	lui	a3,0x13
    41ec:	c607a223          	sw	zero,-924(a5) # 4c64 <run>
    41f0:	000057b7          	lui	a5,0x5
    41f4:	00812423          	sw	s0,8(sp)
    41f8:	c407ae23          	sw	zero,-932(a5) # 4c5c <score>
    41fc:	00005437          	lui	s0,0x5
    4200:	00000793          	li	a5,0
    4204:	c0068693          	addi	a3,a3,-1024 # 12c00 <__global_pointer+0xdadf>
    4208:	92842703          	lw	a4,-1752(s0) # 4928 <VGA>
    420c:	00f70733          	add	a4,a4,a5
    4210:	00070023          	sb	zero,0(a4)
    4214:	00178793          	addi	a5,a5,1
    4218:	fed798e3          	bne	a5,a3,4208 <check_collision+0xf4>
    421c:	f8dff06f          	j	41a8 <check_collision+0x94>
    4220:	0004a783          	lw	a5,0(s1)
    4224:	faf618e3          	bne	a2,a5,41d4 <check_collision+0xc0>
    4228:	0044a783          	lw	a5,4(s1)
    422c:	faf894e3          	bne	a7,a5,41d4 <check_collision+0xc0>
    4230:	00005737          	lui	a4,0x5
    4234:	c6870713          	addi	a4,a4,-920 # 4c68 <snake_tail>
    4238:	00472e03          	lw	t3,4(a4)
    423c:	000027b7          	lui	a5,0x2
    4240:	90078793          	addi	a5,a5,-1792 # 1900 <draw_M+0x308>
    4244:	001e0613          	addi	a2,t3,1
    4248:	02f60633          	mul	a2,a2,a5
    424c:	00072303          	lw	t1,0(a4)
    4250:	00359513          	slli	a0,a1,0x3
    4254:	000038b7          	lui	a7,0x3
    4258:	00231713          	slli	a4,t1,0x2
    425c:	00670733          	add	a4,a4,t1
    4260:	00271713          	slli	a4,a4,0x2
    4264:	00812423          	sw	s0,8(sp)
    4268:	01212023          	sw	s2,0(sp)
    426c:	00a80533          	add	a0,a6,a0
    4270:	40f607b3          	sub	a5,a2,a5
    4274:	00158593          	addi	a1,a1,1
    4278:	00005937          	lui	s2,0x5
    427c:	05070693          	addi	a3,a4,80
    4280:	00e787b3          	add	a5,a5,a4
    4284:	25088893          	addi	a7,a7,592 # 3250 <draw_GAMEOVER+0x178>
    4288:	00b82023          	sw	a1,0(a6)
    428c:	00c686b3          	add	a3,a3,a2
    4290:	c6092023          	sw	zero,-928(s2) # 4c60 <apple_exists>
    4294:	00652423          	sw	t1,8(a0)
    4298:	01c52623          	sw	t3,12(a0)
    429c:	011785b3          	add	a1,a5,a7
    42a0:	00005437          	lui	s0,0x5
    42a4:	01c00613          	li	a2,28
    42a8:	fec68793          	addi	a5,a3,-20
    42ac:	92842703          	lw	a4,-1752(s0) # 4928 <VGA>
    42b0:	00f70733          	add	a4,a4,a5
    42b4:	00c70023          	sb	a2,0(a4)
    42b8:	00178793          	addi	a5,a5,1
    42bc:	fef698e3          	bne	a3,a5,42ac <check_collision+0x198>
    42c0:	14068693          	addi	a3,a3,320
    42c4:	feb692e3          	bne	a3,a1,42a8 <check_collision+0x194>
    42c8:	00082703          	lw	a4,0(a6)
    42cc:	06400793          	li	a5,100
    42d0:	00f71863          	bne	a4,a5,42e0 <check_collision+0x1cc>
    42d4:	000057b7          	lui	a5,0x5
    42d8:	00100713          	li	a4,1
    42dc:	c4e7ac23          	sw	a4,-936(a5) # 4c58 <victory>
    42e0:	000057b7          	lui	a5,0x5
    42e4:	c5c7a503          	lw	a0,-932(a5) # 4c5c <score>
    42e8:	00150513          	addi	a0,a0,1
    42ec:	c4a7ae23          	sw	a0,-932(a5)
    42f0:	ef1fb0ef          	jal	1e0 <set_score>
    42f4:	c6092783          	lw	a5,-928(s2)
    42f8:	00079a63          	bnez	a5,430c <check_collision+0x1f8>
    42fc:	00048513          	mv	a0,s1
    4300:	d01ff0ef          	jal	4000 <spawn_apple>
    4304:	c6092783          	lw	a5,-928(s2)
    4308:	fe078ae3          	beqz	a5,42fc <check_collision+0x1e8>
    430c:	00812403          	lw	s0,8(sp)
    4310:	00012903          	lw	s2,0(sp)
    4314:	ec1ff06f          	j	41d4 <check_collision+0xc0>

00004318 <game_init>:
    4318:	fe010113          	addi	sp,sp,-32
    431c:	000057b7          	lui	a5,0x5
    4320:	000136b7          	lui	a3,0x13
    4324:	00100713          	li	a4,1
    4328:	00812c23          	sw	s0,24(sp)
    432c:	c6e7a223          	sw	a4,-924(a5) # 4c64 <run>
    4330:	00112e23          	sw	ra,28(sp)
    4334:	00912a23          	sw	s1,20(sp)
    4338:	01212823          	sw	s2,16(sp)
    433c:	01312623          	sw	s3,12(sp)
    4340:	01412423          	sw	s4,8(sp)
    4344:	00000793          	li	a5,0
    4348:	00005437          	lui	s0,0x5
    434c:	fe000613          	li	a2,-32
    4350:	c0068693          	addi	a3,a3,-1024 # 12c00 <__global_pointer+0xdadf>
    4354:	92842703          	lw	a4,-1752(s0) # 4928 <VGA>
    4358:	00f70733          	add	a4,a4,a5
    435c:	00c70023          	sb	a2,0(a4)
    4360:	00178793          	addi	a5,a5,1
    4364:	fed798e3          	bne	a5,a3,4354 <game_init+0x3c>
    4368:	00005a37          	lui	s4,0x5
    436c:	924a2783          	lw	a5,-1756(s4) # 4924 <VGA_CTRL>
    4370:	92842703          	lw	a4,-1752(s0)
    4374:	00000913          	li	s2,0
    4378:	00a00993          	li	s3,10
    437c:	00e7a223          	sw	a4,4(a5)
    4380:	0007a023          	sw	zero,0(a5)
    4384:	00000493          	li	s1,0
    4388:	00048513          	mv	a0,s1
    438c:	00090593          	mv	a1,s2
    4390:	00148493          	addi	s1,s1,1
    4394:	ed4fc0ef          	jal	a68 <draw_grid_block.constprop.0>
    4398:	ff3498e3          	bne	s1,s3,4388 <game_init+0x70>
    439c:	00190913          	addi	s2,s2,1
    43a0:	fe9912e3          	bne	s2,s1,4384 <game_init+0x6c>
    43a4:	924a2783          	lw	a5,-1756(s4)
    43a8:	92842703          	lw	a4,-1752(s0)
    43ac:	00e7a223          	sw	a4,4(a5)
    43b0:	0007a023          	sw	zero,0(a5)
    43b4:	df5fb0ef          	jal	1a8 <init_display>
    43b8:	000057b7          	lui	a5,0x5
    43bc:	c7078793          	addi	a5,a5,-912 # 4c70 <apple>
    43c0:	00500713          	li	a4,5
    43c4:	00e7a023          	sw	a4,0(a5)
    43c8:	00e7a223          	sw	a4,4(a5)
    43cc:	a44fc0ef          	jal	610 <draw_pineapple.constprop.0>
    43d0:	000057b7          	lui	a5,0x5
    43d4:	93078793          	addi	a5,a5,-1744 # 4930 <snake>
    43d8:	00100713          	li	a4,1
    43dc:	00005537          	lui	a0,0x5
    43e0:	00300613          	li	a2,3
    43e4:	000066b7          	lui	a3,0x6
    43e8:	000085b7          	lui	a1,0x8
    43ec:	c6e52023          	sw	a4,-928(a0) # 4c60 <apple_exists>
    43f0:	00e7a023          	sw	a4,0(a5)
    43f4:	05200713          	li	a4,82
    43f8:	00c7a423          	sw	a2,8(a5)
    43fc:	00c7a623          	sw	a2,12(a5)
    4400:	00e78223          	sb	a4,4(a5)
    4404:	48c68693          	addi	a3,a3,1164 # 648c <__global_pointer+0x136b>
    4408:	01c00613          	li	a2,28
    440c:	d8c58593          	addi	a1,a1,-628 # 7d8c <__global_pointer+0x2c6b>
    4410:	fec68793          	addi	a5,a3,-20
    4414:	92842703          	lw	a4,-1752(s0)
    4418:	00f70733          	add	a4,a4,a5
    441c:	00c70023          	sb	a2,0(a4)
    4420:	00178793          	addi	a5,a5,1
    4424:	fef698e3          	bne	a3,a5,4414 <game_init+0xfc>
    4428:	14068693          	addi	a3,a3,320
    442c:	feb692e3          	bne	a3,a1,4410 <game_init+0xf8>
    4430:	924a2783          	lw	a5,-1756(s4)
    4434:	92842703          	lw	a4,-1752(s0)
    4438:	01c12083          	lw	ra,28(sp)
    443c:	01812403          	lw	s0,24(sp)
    4440:	00e7a223          	sw	a4,4(a5)
    4444:	0007a023          	sw	zero,0(a5)
    4448:	01412483          	lw	s1,20(sp)
    444c:	01012903          	lw	s2,16(sp)
    4450:	00c12983          	lw	s3,12(sp)
    4454:	00812a03          	lw	s4,8(sp)
    4458:	02010113          	addi	sp,sp,32
    445c:	00008067          	ret

00004460 <game>:
    4460:	ff010113          	addi	sp,sp,-16
    4464:	00112623          	sw	ra,12(sp)
    4468:	00812423          	sw	s0,8(sp)
    446c:	00912223          	sw	s1,4(sp)
    4470:	865ff0ef          	jal	3cd4 <move_snake>
    4474:	00005537          	lui	a0,0x5
    4478:	c7050513          	addi	a0,a0,-912 # 4c70 <apple>
    447c:	c99ff0ef          	jal	4114 <check_collision>
    4480:	00005437          	lui	s0,0x5
    4484:	000054b7          	lui	s1,0x5
    4488:	92842703          	lw	a4,-1752(s0) # 4928 <VGA>
    448c:	9244a783          	lw	a5,-1756(s1) # 4924 <VGA_CTRL>
    4490:	000056b7          	lui	a3,0x5
    4494:	c586a683          	lw	a3,-936(a3) # 4c58 <victory>
    4498:	00e7a223          	sw	a4,4(a5)
    449c:	0007a023          	sw	zero,0(a5)
    44a0:	00069c63          	bnez	a3,44b8 <game+0x58>
    44a4:	00c12083          	lw	ra,12(sp)
    44a8:	00812403          	lw	s0,8(sp)
    44ac:	00412483          	lw	s1,4(sp)
    44b0:	01010113          	addi	sp,sp,16
    44b4:	00008067          	ret
    44b8:	000057b7          	lui	a5,0x5
    44bc:	c607a223          	sw	zero,-924(a5) # 4c64 <run>
    44c0:	000136b7          	lui	a3,0x13
    44c4:	00070023          	sb	zero,0(a4)
    44c8:	00100793          	li	a5,1
    44cc:	c0068693          	addi	a3,a3,-1024 # 12c00 <__global_pointer+0xdadf>
    44d0:	92842703          	lw	a4,-1752(s0)
    44d4:	00f70733          	add	a4,a4,a5
    44d8:	00070023          	sb	zero,0(a4)
    44dc:	00178793          	addi	a5,a5,1
    44e0:	fed798e3          	bne	a5,a3,44d0 <game+0x70>
    44e4:	9244a783          	lw	a5,-1756(s1)
    44e8:	92842703          	lw	a4,-1752(s0)
    44ec:	01800513          	li	a0,24
    44f0:	00e7a223          	sw	a4,4(a5)
    44f4:	0007a023          	sw	zero,0(a5)
    44f8:	925fc0ef          	jal	e1c <draw_G>
    44fc:	01800513          	li	a0,24
    4500:	dd1fc0ef          	jal	12d0 <draw_A>
    4504:	01800513          	li	a0,24
    4508:	8f0fd0ef          	jal	15f8 <draw_M>
    450c:	01800513          	li	a0,24
    4510:	a24fc0ef          	jal	734 <draw_E.constprop.0>
    4514:	9244a783          	lw	a5,-1756(s1)
    4518:	92842703          	lw	a4,-1752(s0)
    451c:	00c12083          	lw	ra,12(sp)
    4520:	00812403          	lw	s0,8(sp)
    4524:	00e7a223          	sw	a4,4(a5)
    4528:	0007a023          	sw	zero,0(a5)
    452c:	00412483          	lw	s1,4(sp)
    4530:	01010113          	addi	sp,sp,16
    4534:	00008067          	ret

00004538 <hex2asc>:
    4538:	00a00513          	li	a0,10
    453c:	ffc10113          	addi	sp,sp,-4
    4540:	00112023          	sw	ra,0(sp)
    4544:	018000ef          	jal	455c <hexasc>
    4548:	00b00893          	li	a7,11
    454c:	00000073          	ecall
    4550:	00012083          	lw	ra,0(sp)
    4554:	00410113          	addi	sp,sp,4
    4558:	00008067          	ret

0000455c <hexasc>:
    455c:	03900293          	li	t0,57
    4560:	03050513          	addi	a0,a0,48
    4564:	00a2d463          	bge	t0,a0,456c <return>
    4568:	00750513          	addi	a0,a0,7

0000456c <return>:
    456c:	00008067          	ret

00004570 <handle_interrupt>:
    4570:	040007b7          	lui	a5,0x4000
    4574:	0207a703          	lw	a4,32(a5) # 4000020 <_stack_end+0x3efb310>
    4578:	00177713          	andi	a4,a4,1
    457c:	02070463          	beqz	a4,45a4 <handle_interrupt+0x34>
    4580:	00005737          	lui	a4,0x5
    4584:	00100693          	li	a3,1
    4588:	c6d72c23          	sw	a3,-904(a4) # 4c78 <move_snake_mark>
    458c:	0207a703          	lw	a4,32(a5)
    4590:	000106b7          	lui	a3,0x10
    4594:	ffe68693          	addi	a3,a3,-2 # fffe <__global_pointer+0xaedd>
    4598:	00d77733          	and	a4,a4,a3
    459c:	02078793          	addi	a5,a5,32
    45a0:	00e7a023          	sw	a4,0(a5)
    45a4:	04000737          	lui	a4,0x4000
    45a8:	0dc72783          	lw	a5,220(a4) # 40000dc <_stack_end+0x3efb3cc>
    45ac:	0017f793          	andi	a5,a5,1
    45b0:	02078c63          	beqz	a5,45e8 <handle_interrupt+0x78>
    45b4:	01072783          	lw	a5,16(a4)
    45b8:	ff010113          	addi	sp,sp,-16
    45bc:	00112623          	sw	ra,12(sp)
    45c0:	0017f793          	andi	a5,a5,1
    45c4:	02079463          	bnez	a5,45ec <handle_interrupt+0x7c>
    45c8:	05200513          	li	a0,82
    45cc:	8a1ff0ef          	jal	3e6c <change_direction>
    45d0:	00c12083          	lw	ra,12(sp)
    45d4:	040007b7          	lui	a5,0x4000
    45d8:	00100713          	li	a4,1
    45dc:	0ce7ae23          	sw	a4,220(a5) # 40000dc <_stack_end+0x3efb3cc>
    45e0:	01010113          	addi	sp,sp,16
    45e4:	00008067          	ret
    45e8:	00008067          	ret
    45ec:	04c00513          	li	a0,76
    45f0:	87dff0ef          	jal	3e6c <change_direction>
    45f4:	00c12083          	lw	ra,12(sp)
    45f8:	040007b7          	lui	a5,0x4000
    45fc:	00100713          	li	a4,1
    4600:	0ce7ae23          	sw	a4,220(a5) # 40000dc <_stack_end+0x3efb3cc>
    4604:	01010113          	addi	sp,sp,16
    4608:	00008067          	ret

0000460c <init>:
    460c:	0000c6b7          	lui	a3,0xc
    4610:	040007b7          	lui	a5,0x4000
    4614:	38068693          	addi	a3,a3,896 # c380 <__global_pointer+0x725f>
    4618:	02d7a423          	sw	a3,40(a5) # 4000028 <_stack_end+0x3efb318>
    461c:	04000737          	lui	a4,0x4000
    4620:	1c900693          	li	a3,457
    4624:	02d72623          	sw	a3,44(a4) # 400002c <_stack_end+0x3efb31c>
    4628:	040007b7          	lui	a5,0x4000
    462c:	00700693          	li	a3,7
    4630:	02d7a223          	sw	a3,36(a5) # 4000024 <_stack_end+0x3efb314>
    4634:	04000737          	lui	a4,0x4000
    4638:	00100693          	li	a3,1
    463c:	040007b7          	lui	a5,0x4000
    4640:	0cd72e23          	sw	a3,220(a4) # 40000dc <_stack_end+0x3efb3cc>
    4644:	0cd7ac23          	sw	a3,216(a5) # 40000d8 <_stack_end+0x3efb3c8>
    4648:	b2dfb06f          	j	174 <enable_interrupt>

0000464c <main>:
    464c:	ff010113          	addi	sp,sp,-16
    4650:	0000c6b7          	lui	a3,0xc
    4654:	00812423          	sw	s0,8(sp)
    4658:	00912223          	sw	s1,4(sp)
    465c:	01212023          	sw	s2,0(sp)
    4660:	00112623          	sw	ra,12(sp)
    4664:	04000737          	lui	a4,0x4000
    4668:	38068693          	addi	a3,a3,896 # c380 <__global_pointer+0x725f>
    466c:	02d72423          	sw	a3,40(a4) # 4000028 <_stack_end+0x3efb318>
    4670:	040007b7          	lui	a5,0x4000
    4674:	1c900693          	li	a3,457
    4678:	02d7a623          	sw	a3,44(a5) # 400002c <_stack_end+0x3efb31c>
    467c:	04000737          	lui	a4,0x4000
    4680:	00700693          	li	a3,7
    4684:	02d72223          	sw	a3,36(a4) # 4000024 <_stack_end+0x3efb314>
    4688:	040007b7          	lui	a5,0x4000
    468c:	00100693          	li	a3,1
    4690:	04000737          	lui	a4,0x4000
    4694:	0cd7ae23          	sw	a3,220(a5) # 40000dc <_stack_end+0x3efb3cc>
    4698:	0cd72c23          	sw	a3,216(a4) # 40000d8 <_stack_end+0x3efb3c8>
    469c:	ad9fb0ef          	jal	174 <enable_interrupt>
    46a0:	000054b7          	lui	s1,0x5
    46a4:	00005437          	lui	s0,0x5
    46a8:	00100913          	li	s2,1
    46ac:	c6dff0ef          	jal	4318 <game_init>
    46b0:	c644a783          	lw	a5,-924(s1) # 4c64 <run>
    46b4:	00078e63          	beqz	a5,46d0 <main+0x84>
    46b8:	c7842783          	lw	a5,-904(s0) # 4c78 <move_snake_mark>
    46bc:	fe078ee3          	beqz	a5,46b8 <main+0x6c>
    46c0:	c6042c23          	sw	zero,-904(s0)
    46c4:	d9dff0ef          	jal	4460 <game>
    46c8:	c644a783          	lw	a5,-924(s1)
    46cc:	fe0796e3          	bnez	a5,46b8 <main+0x6c>
    46d0:	c7cfc0ef          	jal	b4c <get_btn>
    46d4:	fe050ee3          	beqz	a0,46d0 <main+0x84>
    46d8:	c724a223          	sw	s2,-924(s1)
    46dc:	fd1ff06f          	j	46ac <main+0x60>

000046e0 <display_string>:
    46e0:	00400893          	li	a7,4
    46e4:	00000073          	ecall
    46e8:	00a00513          	li	a0,10
    46ec:	00b00893          	li	a7,11
    46f0:	00000073          	ecall
    46f4:	00008067          	ret

000046f8 <timetemplate>:
    46f8:	00000517          	auipc	a0,0x0
    46fc:	20c50513          	addi	a0,a0,524 # 4904 <timstr>
    4700:	fe1ff0ef          	jal	46e0 <display_string>
    4704:	3e800513          	li	a0,1000
    4708:	0b0000ef          	jal	47b8 <delay>
    470c:	00000517          	auipc	a0,0x0
    4710:	1f450513          	addi	a0,a0,500 # 4900 <mytime>
    4714:	020000ef          	jal	4734 <tick>
    4718:	00000517          	auipc	a0,0x0
    471c:	1ec50513          	addi	a0,a0,492 # 4904 <timstr>
    4720:	00000297          	auipc	t0,0x0
    4724:	1e028293          	addi	t0,t0,480 # 4900 <mytime>
    4728:	0002a583          	lw	a1,0(t0)
    472c:	0bc000ef          	jal	47e8 <time2string>
    4730:	fc9ff06f          	j	46f8 <timetemplate>

00004734 <tick>:
    4734:	00052283          	lw	t0,0(a0)
    4738:	00128293          	addi	t0,t0,1
    473c:	00f2f313          	andi	t1,t0,15
    4740:	00a33393          	sltiu	t2,t1,10
    4744:	06039063          	bnez	t2,47a4 <tiend>
    4748:	00628293          	addi	t0,t0,6
    474c:	0f02f313          	andi	t1,t0,240
    4750:	06033393          	sltiu	t2,t1,96
    4754:	04039863          	bnez	t2,47a4 <tiend>
    4758:	0a028293          	addi	t0,t0,160
    475c:	00f00e13          	li	t3,15
    4760:	008e1e13          	slli	t3,t3,0x8
    4764:	01c2f333          	and	t1,t0,t3
    4768:	00a00e13          	li	t3,10
    476c:	008e1e13          	slli	t3,t3,0x8
    4770:	01c323b3          	slt	t2,t1,t3
    4774:	02039863          	bnez	t2,47a4 <tiend>
    4778:	60028293          	addi	t0,t0,1536
    477c:	00f00e13          	li	t3,15
    4780:	00ce1e13          	slli	t3,t3,0xc
    4784:	01c2f333          	and	t1,t0,t3
    4788:	00600e13          	li	t3,6
    478c:	00ce1e13          	slli	t3,t3,0xc
    4790:	01c323b3          	slt	t2,t1,t3
    4794:	00039863          	bnez	t2,47a4 <tiend>
    4798:	00a00e13          	li	t3,10
    479c:	00ce1e13          	slli	t3,t3,0xc
    47a0:	01c282b3          	add	t0,t0,t3

000047a4 <tiend>:
    47a4:	00552023          	sw	t0,0(a0)
    47a8:	00008067          	ret

000047ac <hexasc>:
    47ac:	00f47513          	andi	a0,s0,15
    47b0:	03050513          	addi	a0,a0,48
    47b4:	00008067          	ret

000047b8 <delay>:
    47b8:	ffc10113          	addi	sp,sp,-4
    47bc:	00a12023          	sw	a0,0(sp)

000047c0 <while>:
    47c0:	fff50513          	addi	a0,a0,-1
    47c4:	000002b3          	add	t0,zero,zero
    47c8:	00002337          	lui	t1,0x2
    47cc:	71030313          	addi	t1,t1,1808 # 2710 <draw_V+0x3e4>

000047d0 <for>:
    47d0:	00128293          	addi	t0,t0,1
    47d4:	fe62cee3          	blt	t0,t1,47d0 <for>
    47d8:	fea044e3          	bgtz	a0,47c0 <while>
    47dc:	00012503          	lw	a0,0(sp)
    47e0:	00410113          	addi	sp,sp,4
    47e4:	00008067          	ret

000047e8 <time2string>:
    47e8:	ffc10113          	addi	sp,sp,-4
    47ec:	00112023          	sw	ra,0(sp)
    47f0:	ffc10113          	addi	sp,sp,-4
    47f4:	00a12023          	sw	a0,0(sp)
    47f8:	ffc10113          	addi	sp,sp,-4
    47fc:	00812023          	sw	s0,0(sp)
    4800:	ffc10113          	addi	sp,sp,-4
    4804:	00912023          	sw	s1,0(sp)
    4808:	00058433          	add	s0,a1,zero
    480c:	000504b3          	add	s1,a0,zero
    4810:	000482a3          	sb	zero,5(s1)
    4814:	f99ff0ef          	jal	47ac <hexasc>
    4818:	00a48223          	sb	a0,4(s1)
    481c:	00445413          	srli	s0,s0,0x4
    4820:	f8dff0ef          	jal	47ac <hexasc>
    4824:	00a481a3          	sb	a0,3(s1)
    4828:	00445413          	srli	s0,s0,0x4
    482c:	03a00293          	li	t0,58
    4830:	00548123          	sb	t0,2(s1)
    4834:	f79ff0ef          	jal	47ac <hexasc>
    4838:	00a480a3          	sb	a0,1(s1)
    483c:	00445413          	srli	s0,s0,0x4
    4840:	f6dff0ef          	jal	47ac <hexasc>
    4844:	00a48023          	sb	a0,0(s1)
    4848:	00012483          	lw	s1,0(sp)
    484c:	00410113          	addi	sp,sp,4
    4850:	00012403          	lw	s0,0(sp)
    4854:	00410113          	addi	sp,sp,4
    4858:	00012503          	lw	a0,0(sp)
    485c:	00410113          	addi	sp,sp,4
    4860:	00012083          	lw	ra,0(sp)
    4864:	00410113          	addi	sp,sp,4
    4868:	00008067          	ret

Disassembly of section .data:

0000486c <welcome_msg>:
    486c:	3d3d                	.insn	2, 0x3d3d
    486e:	3d3d                	.insn	2, 0x3d3d
    4870:	3d3d                	.insn	2, 0x3d3d
    4872:	3d3d                	.insn	2, 0x3d3d
    4874:	3d3d                	.insn	2, 0x3d3d
    4876:	3d3d                	.insn	2, 0x3d3d
    4878:	3d3d                	.insn	2, 0x3d3d
    487a:	3d3d                	.insn	2, 0x3d3d
    487c:	3d3d                	.insn	2, 0x3d3d
    487e:	3d3d                	.insn	2, 0x3d3d
    4880:	3d3d                	.insn	2, 0x3d3d
    4882:	3d3d                	.insn	2, 0x3d3d
    4884:	3d3d                	.insn	2, 0x3d3d
    4886:	3d3d                	.insn	2, 0x3d3d
    4888:	3d3d                	.insn	2, 0x3d3d
    488a:	3d3d                	.insn	2, 0x3d3d
    488c:	3d3d                	.insn	2, 0x3d3d
    488e:	3d3d                	.insn	2, 0x3d3d
    4890:	3d3d                	.insn	2, 0x3d3d
    4892:	3d3d                	.insn	2, 0x3d3d
    4894:	3d3d                	.insn	2, 0x3d3d
    4896:	3d3d                	.insn	2, 0x3d3d
    4898:	3d3d                	.insn	2, 0x3d3d
    489a:	3d3d                	.insn	2, 0x3d3d
    489c:	3d0a                	.insn	2, 0x3d0a
    489e:	3d3d                	.insn	2, 0x3d3d
    48a0:	3d3d                	.insn	2, 0x3d3d
    48a2:	5220                	.insn	2, 0x5220
    48a4:	5349                	.insn	2, 0x5349
    48a6:	20562d43          	.insn	4, 0x20562d43
    48aa:	6f42                	.insn	2, 0x6f42
    48ac:	552d746f          	jal	s0,dbdfe <__global_pointer+0xd6cdd>
    48b0:	2070                	.insn	2, 0x2070
    48b2:	7250                	.insn	2, 0x7250
    48b4:	7365636f          	jal	t1,5afea <__global_pointer+0x55ec9>
    48b8:	6f4e2073          	csrs	0x6f4,t3
    48bc:	6f432077          	.insn	4, 0x6f432077
    48c0:	706d                	.insn	2, 0x706d
    48c2:	656c                	.insn	2, 0x656c
    48c4:	6574                	.insn	2, 0x6574
    48c6:	3d20                	.insn	2, 0x3d20
    48c8:	3d3d                	.insn	2, 0x3d3d
    48ca:	3d3d                	.insn	2, 0x3d3d
    48cc:	0a3d                	.insn	2, 0x0a3d
    48ce:	3d3d                	.insn	2, 0x3d3d
    48d0:	3d3d                	.insn	2, 0x3d3d
    48d2:	3d3d                	.insn	2, 0x3d3d
    48d4:	3d3d                	.insn	2, 0x3d3d
    48d6:	3d3d                	.insn	2, 0x3d3d
    48d8:	3d3d                	.insn	2, 0x3d3d
    48da:	3d3d                	.insn	2, 0x3d3d
    48dc:	3d3d                	.insn	2, 0x3d3d
    48de:	3d3d                	.insn	2, 0x3d3d
    48e0:	3d3d                	.insn	2, 0x3d3d
    48e2:	3d3d                	.insn	2, 0x3d3d
    48e4:	3d3d                	.insn	2, 0x3d3d
    48e6:	3d3d                	.insn	2, 0x3d3d
    48e8:	3d3d                	.insn	2, 0x3d3d
    48ea:	3d3d                	.insn	2, 0x3d3d
    48ec:	3d3d                	.insn	2, 0x3d3d
    48ee:	3d3d                	.insn	2, 0x3d3d
    48f0:	3d3d                	.insn	2, 0x3d3d
    48f2:	3d3d                	.insn	2, 0x3d3d
    48f4:	3d3d                	.insn	2, 0x3d3d
    48f6:	3d3d                	.insn	2, 0x3d3d
    48f8:	3d3d                	.insn	2, 0x3d3d
    48fa:	3d3d                	.insn	2, 0x3d3d
    48fc:	3d3d                	.insn	2, 0x3d3d
    48fe:	000a                	.insn	2, 0x000a

00004900 <mytime>:
    4900:	00005957          	.insn	4, 0x5957

00004904 <timstr>:
    4904:	6574                	.insn	2, 0x6574
    4906:	7478                	.insn	2, 0x7478
    4908:	6d20                	.insn	2, 0x6d20
    490a:	2065726f          	jal	tp,5bb10 <__global_pointer+0x569ef>
    490e:	6574                	.insn	2, 0x6574
    4910:	7478                	.insn	2, 0x7478
    4912:	6c20                	.insn	2, 0x6c20
    4914:	2073746f          	jal	s0,3c31a <__global_pointer+0x371f9>
    4918:	7420666f          	jal	a2,b05a <__global_pointer+0x5f39>
    491c:	7865                	.insn	2, 0x7865
    491e:	0074                	.insn	2, 0x0074
    4920:	0000                	.insn	2, 0x
	...

00004924 <VGA_CTRL>:
    4924:	0100                	.insn	2, 0x0100
    4926:	0400                	.insn	2, 0x0400

00004928 <VGA>:
    4928:	0000                	.insn	2, 0x
    492a:	0800                	.insn	2, 0x0800

0000492c <random_number_seed>:
    492c:	006eee3b          	.insn	4, 0x006eee3b

Disassembly of section .rodata:

00004c7c <segm7_display>:
    4c7c:	7940                	.insn	2, 0x7940
    4c7e:	3024                	.insn	2, 0x3024
    4c80:	1219                	.insn	2, 0x1219
    4c82:	7802                	.insn	2, 0x7802
    4c84:	1800                	.insn	2, 0x1800

Disassembly of section .rodata.str1.4:

00004c88 <.rodata.str1.4>:
    4c88:	5b0a                	.insn	2, 0x5b0a
    4c8a:	5845                	.insn	2, 0x5845
    4c8c:	54504543          	.insn	4, 0x54504543
    4c90:	4f49                	.insn	2, 0x4f49
    4c92:	5d4e                	.insn	2, 0x5d4e
    4c94:	4920                	.insn	2, 0x4920
    4c96:	736e                	.insn	2, 0x736e
    4c98:	7274                	.insn	2, 0x7274
    4c9a:	6375                	.insn	2, 0x6375
    4c9c:	6974                	.insn	2, 0x6974
    4c9e:	61206e6f          	jal	t3,b2b0 <__global_pointer+0x618f>
    4ca2:	6464                	.insn	2, 0x6464
    4ca4:	6572                	.insn	2, 0x6572
    4ca6:	6d207373          	csrrci	t1,0x6d2,0
    4caa:	7369                	.insn	2, 0x7369
    4cac:	6c61                	.insn	2, 0x6c61
    4cae:	6769                	.insn	2, 0x6769
    4cb0:	6d6e                	.insn	2, 0x6d6e
    4cb2:	6e65                	.insn	2, 0x6e65
    4cb4:	2e74                	.insn	2, 0x2e74
    4cb6:	0020                	.insn	2, 0x0020
    4cb8:	5b0a                	.insn	2, 0x5b0a
    4cba:	5845                	.insn	2, 0x5845
    4cbc:	54504543          	.insn	4, 0x54504543
    4cc0:	4f49                	.insn	2, 0x4f49
    4cc2:	5d4e                	.insn	2, 0x5d4e
    4cc4:	4920                	.insn	2, 0x4920
    4cc6:	6c6c                	.insn	2, 0x6c6c
    4cc8:	6765                	.insn	2, 0x6765
    4cca:	6c61                	.insn	2, 0x6c61
    4ccc:	6920                	.insn	2, 0x6920
    4cce:	736e                	.insn	2, 0x736e
    4cd0:	7274                	.insn	2, 0x7274
    4cd2:	6375                	.insn	2, 0x6375
    4cd4:	6974                	.insn	2, 0x6974
    4cd6:	202e6e6f          	jal	t3,eaed8 <__global_pointer+0xe5db7>
    4cda:	0000                	.insn	2, 0x
    4cdc:	5b0a                	.insn	2, 0x5b0a
    4cde:	5845                	.insn	2, 0x5845
    4ce0:	54504543          	.insn	4, 0x54504543
    4ce4:	4f49                	.insn	2, 0x4f49
    4ce6:	5d4e                	.insn	2, 0x5d4e
    4ce8:	5520                	.insn	2, 0x5520
    4cea:	6b6e                	.insn	2, 0x6b6e
    4cec:	6f6e                	.insn	2, 0x6f6e
    4cee:	65206e77          	.insn	4, 0x65206e77
    4cf2:	7272                	.insn	2, 0x7272
    4cf4:	202e726f          	jal	tp,ebef6 <__global_pointer+0xe6dd5>
    4cf8:	0000                	.insn	2, 0x
    4cfa:	0000                	.insn	2, 0x
    4cfc:	7845                	.insn	2, 0x7845
    4cfe:	74706563          	bltu	zero,t2,5448 <__global_pointer+0x327>
    4d02:	6f69                	.insn	2, 0x6f69
    4d04:	206e                	.insn	2, 0x206e
    4d06:	6441                	.insn	2, 0x6441
    4d08:	7264                	.insn	2, 0x7264
    4d0a:	7365                	.insn	2, 0x7365
    4d0c:	00203a73          	csrrc	s4,frm,zero

Disassembly of section .comment:

00000000 <.comment>:
   0:	3a434347          	.insn	4, 0x3a434347
   4:	2820                	.insn	2, 0x2820
   6:	2029                	.insn	2, 0x2029
   8:	3331                	.insn	2, 0x3331
   a:	322e                	.insn	2, 0x322e
   c:	302e                	.insn	2, 0x302e
	...

Disassembly of section .riscv.attributes:

00000000 <.riscv.attributes>:
   0:	3641                	.insn	2, 0x3641
   2:	0000                	.insn	2, 0x
   4:	7200                	.insn	2, 0x7200
   6:	7369                	.insn	2, 0x7369
   8:	01007663          	bgeu	zero,a6,14 <_isr_routine+0xc>
   c:	002c                	.insn	2, 0x002c
   e:	0000                	.insn	2, 0x
  10:	1004                	.insn	2, 0x1004
  12:	7205                	.insn	2, 0x7205
  14:	3376                	.insn	2, 0x3376
  16:	6932                	.insn	2, 0x6932
  18:	7032                	.insn	2, 0x7032
  1a:	5f31                	.insn	2, 0x5f31
  1c:	326d                	.insn	2, 0x326d
  1e:	3070                	.insn	2, 0x3070
  20:	7a5f 6369 7273      	.insn	6, 0x727363697a5f
  26:	7032                	.insn	2, 0x7032
  28:	5f30                	.insn	2, 0x5f30
  2a:	6d7a                	.insn	2, 0x6d7a
  2c:	756d                	.insn	2, 0x756d
  2e:	316c                	.insn	2, 0x316c
  30:	3070                	.insn	2, 0x3070
  32:	0800                	.insn	2, 0x0800
  34:	0a01                	.insn	2, 0x0a01
  36:	Address 0x36 is out of bounds.

