
main.elf:     file format elf32-littleriscv


Disassembly of section .text:

00000000 <_isr_handler>:
       0:	0080006f          	j	8 <_isr_routine>
       4:	1440006f          	j	148 <_start>

00000008 <_isr_routine>:
       8:	f8010113          	addi	sp,sp,-128
       c:	00112023          	sw	ra,0(sp)
      10:	00312423          	sw	gp,8(sp)
      14:	00412623          	sw	tp,12(sp)
      18:	00512823          	sw	t0,16(sp)
      1c:	00612a23          	sw	t1,20(sp)
      20:	00712c23          	sw	t2,24(sp)
      24:	00812e23          	sw	s0,28(sp)
      28:	02912023          	sw	s1,32(sp)
      2c:	02a12223          	sw	a0,36(sp)
      30:	02b12423          	sw	a1,40(sp)
      34:	02c12623          	sw	a2,44(sp)
      38:	02d12823          	sw	a3,48(sp)
      3c:	02e12a23          	sw	a4,52(sp)
      40:	02f12c23          	sw	a5,56(sp)
      44:	03012e23          	sw	a6,60(sp)
      48:	05112023          	sw	a7,64(sp)
      4c:	05212223          	sw	s2,68(sp)
      50:	05312423          	sw	s3,72(sp)
      54:	05412623          	sw	s4,76(sp)
      58:	05512823          	sw	s5,80(sp)
      5c:	05612a23          	sw	s6,84(sp)
      60:	05712c23          	sw	s7,88(sp)
      64:	05812e23          	sw	s8,92(sp)
      68:	07912023          	sw	s9,96(sp)
      6c:	07a12223          	sw	s10,100(sp)
      70:	07b12423          	sw	s11,104(sp)
      74:	07c12623          	sw	t3,108(sp)
      78:	07d12823          	sw	t4,112(sp)
      7c:	07e12a23          	sw	t5,116(sp)
      80:	07f12c23          	sw	t6,120(sp)
      84:	342022f3          	csrr	t0,mcause
      88:	80000337          	lui	t1,0x80000
      8c:	02536463          	bltu	t1,t0,b4 <external_irq>
      90:	00028833          	add	a6,t0,zero
      94:	00b00313          	li	t1,11
      98:	00628463          	beq	t0,t1,a0 <skip_init_args>
      9c:	34102573          	csrr	a0,mepc

000000a0 <skip_init_args>:
      a0:	394040ef          	jal	4434 <handle_exception>
      a4:	341022f3          	csrr	t0,mepc
      a8:	00428293          	addi	t0,t0,4
      ac:	34129073          	csrw	mepc,t0
      b0:	0180006f          	j	c8 <restore>

000000b4 <external_irq>:
      b4:	800002b7          	lui	t0,0x80000
      b8:	fff28293          	addi	t0,t0,-1 # 7fffffff <_stack_end+0x7fefb4d7>
      bc:	34202373          	csrr	t1,mcause
      c0:	0062f533          	and	a0,t0,t1
      c4:	0bc000ef          	jal	180 <handle_interrupt>

000000c8 <restore>:
      c8:	00012083          	lw	ra,0(sp)
      cc:	00812183          	lw	gp,8(sp)
      d0:	00c12203          	lw	tp,12(sp)
      d4:	01012283          	lw	t0,16(sp)
      d8:	01412303          	lw	t1,20(sp)
      dc:	01812383          	lw	t2,24(sp)
      e0:	01c12403          	lw	s0,28(sp)
      e4:	02012483          	lw	s1,32(sp)
      e8:	02412503          	lw	a0,36(sp)
      ec:	02812583          	lw	a1,40(sp)
      f0:	02c12603          	lw	a2,44(sp)
      f4:	03012683          	lw	a3,48(sp)
      f8:	03412703          	lw	a4,52(sp)
      fc:	03812783          	lw	a5,56(sp)
     100:	03c12803          	lw	a6,60(sp)
     104:	04012883          	lw	a7,64(sp)
     108:	04412903          	lw	s2,68(sp)
     10c:	04812983          	lw	s3,72(sp)
     110:	04c12a03          	lw	s4,76(sp)
     114:	05012a83          	lw	s5,80(sp)
     118:	05412b03          	lw	s6,84(sp)
     11c:	05812b83          	lw	s7,88(sp)
     120:	05c12c03          	lw	s8,92(sp)
     124:	06012c83          	lw	s9,96(sp)
     128:	06412d03          	lw	s10,100(sp)
     12c:	06812d83          	lw	s11,104(sp)
     130:	06c12e03          	lw	t3,108(sp)
     134:	07012e83          	lw	t4,112(sp)
     138:	07412f03          	lw	t5,116(sp)
     13c:	07812f83          	lw	t6,120(sp)
     140:	08010113          	addi	sp,sp,128
     144:	30200073          	mret

00000148 <_start>:
     148:	30401073          	csrw	mie,zero
     14c:	00105117          	auipc	sp,0x105
     150:	9dc10113          	addi	sp,sp,-1572 # 104b28 <_stack_end>
     154:	00005197          	auipc	gp,0x5
     158:	de818193          	addi	gp,gp,-536 # 4f3c <__global_pointer>
     15c:	00004517          	auipc	a0,0x4
     160:	54c50513          	addi	a0,a0,1356 # 46a8 <welcome_msg>
     164:	00400893          	li	a7,4
     168:	00000073          	ecall
     16c:	0f0000ef          	jal	25c <main>

00000170 <loop>:
     170:	0000006f          	j	170 <loop>

00000174 <enable_interrupt>:
     174:	3001e073          	csrsi	mstatus,3
     178:	30486073          	csrsi	mie,16
     17c:	3048e073          	csrsi	mie,17

00000180 <handle_interrupt>:
     180:	040007b7          	lui	a5,0x4000
     184:	0207a703          	lw	a4,32(a5) # 4000020 <_stack_end+0x3efb4f8>
     188:	00177713          	andi	a4,a4,1
     18c:	02070463          	beqz	a4,1b4 <handle_interrupt+0x34>
     190:	00005737          	lui	a4,0x5
     194:	00100693          	li	a3,1
     198:	a6d72823          	sw	a3,-1424(a4) # 4a70 <move_snake_mark>
     19c:	0207a703          	lw	a4,32(a5)
     1a0:	000106b7          	lui	a3,0x10
     1a4:	ffe68693          	addi	a3,a3,-2 # fffe <__global_pointer+0xb0c2>
     1a8:	00d77733          	and	a4,a4,a3
     1ac:	02078793          	addi	a5,a5,32
     1b0:	00e7a023          	sw	a4,0(a5)
     1b4:	04000737          	lui	a4,0x4000
     1b8:	0dc72783          	lw	a5,220(a4) # 40000dc <_stack_end+0x3efb5b4>
     1bc:	0017f793          	andi	a5,a5,1
     1c0:	02078c63          	beqz	a5,1f8 <handle_interrupt+0x78>
     1c4:	01072783          	lw	a5,16(a4)
     1c8:	ff010113          	addi	sp,sp,-16
     1cc:	00112623          	sw	ra,12(sp)
     1d0:	0017f793          	andi	a5,a5,1
     1d4:	02079463          	bnez	a5,1fc <handle_interrupt+0x7c>
     1d8:	05200513          	li	a0,82
     1dc:	171030ef          	jal	3b4c <change_direction>
     1e0:	00c12083          	lw	ra,12(sp)
     1e4:	040007b7          	lui	a5,0x4000
     1e8:	00100713          	li	a4,1
     1ec:	0ce7ae23          	sw	a4,220(a5) # 40000dc <_stack_end+0x3efb5b4>
     1f0:	01010113          	addi	sp,sp,16
     1f4:	00008067          	ret
     1f8:	00008067          	ret
     1fc:	04c00513          	li	a0,76
     200:	14d030ef          	jal	3b4c <change_direction>
     204:	00c12083          	lw	ra,12(sp)
     208:	040007b7          	lui	a5,0x4000
     20c:	00100713          	li	a4,1
     210:	0ce7ae23          	sw	a4,220(a5) # 40000dc <_stack_end+0x3efb5b4>
     214:	01010113          	addi	sp,sp,16
     218:	00008067          	ret

0000021c <init>:
     21c:	0000c6b7          	lui	a3,0xc
     220:	040007b7          	lui	a5,0x4000
     224:	38068693          	addi	a3,a3,896 # c380 <__global_pointer+0x7444>
     228:	02d7a423          	sw	a3,40(a5) # 4000028 <_stack_end+0x3efb500>
     22c:	04000737          	lui	a4,0x4000
     230:	1c900693          	li	a3,457
     234:	02d72623          	sw	a3,44(a4) # 400002c <_stack_end+0x3efb504>
     238:	040007b7          	lui	a5,0x4000
     23c:	00700693          	li	a3,7
     240:	02d7a223          	sw	a3,36(a5) # 4000024 <_stack_end+0x3efb4fc>
     244:	04000737          	lui	a4,0x4000
     248:	00100693          	li	a3,1
     24c:	040007b7          	lui	a5,0x4000
     250:	0cd72e23          	sw	a3,220(a4) # 40000dc <_stack_end+0x3efb5b4>
     254:	0cd7ac23          	sw	a3,216(a5) # 40000d8 <_stack_end+0x3efb5b0>
     258:	f1dff06f          	j	174 <enable_interrupt>

0000025c <main>:
     25c:	ff010113          	addi	sp,sp,-16
     260:	0000c6b7          	lui	a3,0xc
     264:	00812423          	sw	s0,8(sp)
     268:	00912223          	sw	s1,4(sp)
     26c:	01212023          	sw	s2,0(sp)
     270:	00112623          	sw	ra,12(sp)
     274:	04000737          	lui	a4,0x4000
     278:	38068693          	addi	a3,a3,896 # c380 <__global_pointer+0x7444>
     27c:	02d72423          	sw	a3,40(a4) # 4000028 <_stack_end+0x3efb500>
     280:	040007b7          	lui	a5,0x4000
     284:	1c900693          	li	a3,457
     288:	02d7a623          	sw	a3,44(a5) # 400002c <_stack_end+0x3efb504>
     28c:	04000737          	lui	a4,0x4000
     290:	00700693          	li	a3,7
     294:	02d72223          	sw	a3,36(a4) # 4000024 <_stack_end+0x3efb4fc>
     298:	040007b7          	lui	a5,0x4000
     29c:	00100693          	li	a3,1
     2a0:	04000737          	lui	a4,0x4000
     2a4:	0cd7ae23          	sw	a3,220(a5) # 40000dc <_stack_end+0x3efb5b4>
     2a8:	0cd72c23          	sw	a3,216(a4) # 40000d8 <_stack_end+0x3efb5b0>
     2ac:	ec9ff0ef          	jal	174 <enable_interrupt>
     2b0:	000054b7          	lui	s1,0x5
     2b4:	00005437          	lui	s0,0x5
     2b8:	00100913          	li	s2,1
     2bc:	53d030ef          	jal	3ff8 <game_init>
     2c0:	a804a783          	lw	a5,-1408(s1) # 4a80 <run>
     2c4:	00078e63          	beqz	a5,2e0 <main+0x84>
     2c8:	a7042783          	lw	a5,-1424(s0) # 4a70 <move_snake_mark>
     2cc:	fe078ee3          	beqz	a5,2c8 <main+0x6c>
     2d0:	a6042823          	sw	zero,-1424(s0)
     2d4:	66d030ef          	jal	4140 <game>
     2d8:	a804a783          	lw	a5,-1408(s1)
     2dc:	fe0796e3          	bnez	a5,2c8 <main+0x6c>
     2e0:	54c000ef          	jal	82c <get_btn>
     2e4:	fe050ee3          	beqz	a0,2e0 <main+0x84>
     2e8:	a924a023          	sw	s2,-1408(s1)
     2ec:	fd1ff06f          	j	2bc <main+0x60>

000002f0 <draw_pineapple.constprop.0>:
     2f0:	000047b7          	lui	a5,0x4
     2f4:	7407a683          	lw	a3,1856(a5) # 4740 <VGA>
     2f8:	0000a737          	lui	a4,0xa
     2fc:	ffc00793          	li	a5,-4
     300:	00e68733          	add	a4,a3,a4
     304:	32f703a3          	sb	a5,807(a4) # a327 <__global_pointer+0x53eb>
     308:	32f70423          	sb	a5,808(a4)
     30c:	32f704a3          	sb	a5,809(a4)
     310:	32f70523          	sb	a5,810(a4)
     314:	32f705a3          	sb	a5,811(a4)
     318:	32f70623          	sb	a5,812(a4)
     31c:	46f703a3          	sb	a5,1127(a4)
     320:	46f70423          	sb	a5,1128(a4)
     324:	46f704a3          	sb	a5,1129(a4)
     328:	46f70523          	sb	a5,1130(a4)
     32c:	46f705a3          	sb	a5,1131(a4)
     330:	46f70623          	sb	a5,1132(a4)
     334:	5af703a3          	sb	a5,1447(a4)
     338:	5af70423          	sb	a5,1448(a4)
     33c:	5af704a3          	sb	a5,1449(a4)
     340:	5af70523          	sb	a5,1450(a4)
     344:	5af705a3          	sb	a5,1451(a4)
     348:	5af70623          	sb	a5,1452(a4)
     34c:	6ef703a3          	sb	a5,1767(a4)
     350:	6ef70423          	sb	a5,1768(a4)
     354:	6ef704a3          	sb	a5,1769(a4)
     358:	6ef70523          	sb	a5,1770(a4)
     35c:	6ef705a3          	sb	a5,1771(a4)
     360:	0000b637          	lui	a2,0xb
     364:	00c686b3          	add	a3,a3,a2
     368:	6ef70623          	sb	a5,1772(a4)
     36c:	82f683a3          	sb	a5,-2009(a3)
     370:	82f68423          	sb	a5,-2008(a3)
     374:	82f684a3          	sb	a5,-2007(a3)
     378:	82f68523          	sb	a5,-2006(a3)
     37c:	82f685a3          	sb	a5,-2005(a3)
     380:	82f68623          	sb	a5,-2004(a3)
     384:	96f683a3          	sb	a5,-1689(a3)
     388:	96f68423          	sb	a5,-1688(a3)
     38c:	96f684a3          	sb	a5,-1687(a3)
     390:	96f68523          	sb	a5,-1686(a3)
     394:	96f685a3          	sb	a5,-1685(a3)
     398:	96f68623          	sb	a5,-1684(a3)
     39c:	aaf683a3          	sb	a5,-1369(a3)
     3a0:	aaf68423          	sb	a5,-1368(a3)
     3a4:	aaf684a3          	sb	a5,-1367(a3)
     3a8:	aaf68523          	sb	a5,-1366(a3)
     3ac:	aaf685a3          	sb	a5,-1365(a3)
     3b0:	aaf68623          	sb	a5,-1364(a3)
     3b4:	bef683a3          	sb	a5,-1049(a3)
     3b8:	bef68423          	sb	a5,-1048(a3)
     3bc:	bef684a3          	sb	a5,-1047(a3)
     3c0:	bef68523          	sb	a5,-1046(a3)
     3c4:	bef685a3          	sb	a5,-1045(a3)
     3c8:	bef68623          	sb	a5,-1044(a3)
     3cc:	d2f683a3          	sb	a5,-729(a3)
     3d0:	d2f68423          	sb	a5,-728(a3)
     3d4:	d2f684a3          	sb	a5,-727(a3)
     3d8:	d2f68523          	sb	a5,-726(a3)
     3dc:	d2f685a3          	sb	a5,-725(a3)
     3e0:	d2f68623          	sb	a5,-724(a3)
     3e4:	01c00793          	li	a5,28
     3e8:	f6f704a3          	sb	a5,-151(a4)
     3ec:	f6f70523          	sb	a5,-150(a4)
     3f0:	0af704a3          	sb	a5,169(a4)
     3f4:	0af70523          	sb	a5,170(a4)
     3f8:	1ef704a3          	sb	a5,489(a4)
     3fc:	1ef70523          	sb	a5,490(a4)
     400:	0af703a3          	sb	a5,167(a4)
     404:	1ef70423          	sb	a5,488(a4)
     408:	1ef705a3          	sb	a5,491(a4)
     40c:	0af70623          	sb	a5,172(a4)
     410:	00008067          	ret

00000414 <draw_E.constprop.0>:
     414:	ff010113          	addi	sp,sp,-16
     418:	000065b7          	lui	a1,0x6
     41c:	fffff337          	lui	t1,0xfffff
     420:	000018b7          	lui	a7,0x1
     424:	00009837          	lui	a6,0x9
     428:	00812623          	sw	s0,12(sp)
     42c:	00912423          	sw	s1,8(sp)
     430:	00050793          	mv	a5,a0
     434:	86158593          	addi	a1,a1,-1951 # 5861 <__global_pointer+0x925>
     438:	00004737          	lui	a4,0x4
     43c:	38030313          	addi	t1,t1,896 # fffff380 <_stack_end+0xffefa858>
     440:	c8088893          	addi	a7,a7,-896 # c80 <draw_G+0x184>
     444:	6e180813          	addi	a6,a6,1761 # 96e1 <__global_pointer+0x47a5>
     448:	006586b3          	add	a3,a1,t1
     44c:	74072603          	lw	a2,1856(a4) # 4740 <VGA>
     450:	00168e93          	addi	t4,a3,1
     454:	00268e13          	addi	t3,a3,2
     458:	00d60633          	add	a2,a2,a3
     45c:	00f60023          	sb	a5,0(a2) # b000 <__global_pointer+0x60c4>
     460:	74072603          	lw	a2,1856(a4)
     464:	00368513          	addi	a0,a3,3
     468:	00468293          	addi	t0,a3,4
     46c:	01d60633          	add	a2,a2,t4
     470:	00f60023          	sb	a5,0(a2)
     474:	74072603          	lw	a2,1856(a4)
     478:	00568f93          	addi	t6,a3,5
     47c:	00668f13          	addi	t5,a3,6
     480:	01c60633          	add	a2,a2,t3
     484:	00f60023          	sb	a5,0(a2)
     488:	74072603          	lw	a2,1856(a4)
     48c:	00768e93          	addi	t4,a3,7
     490:	00868e13          	addi	t3,a3,8
     494:	00a60633          	add	a2,a2,a0
     498:	00f60023          	sb	a5,0(a2)
     49c:	74072603          	lw	a2,1856(a4)
     4a0:	00968513          	addi	a0,a3,9
     4a4:	14068693          	addi	a3,a3,320
     4a8:	00560633          	add	a2,a2,t0
     4ac:	00f60023          	sb	a5,0(a2)
     4b0:	74072603          	lw	a2,1856(a4)
     4b4:	01f60633          	add	a2,a2,t6
     4b8:	00f60023          	sb	a5,0(a2)
     4bc:	74072603          	lw	a2,1856(a4)
     4c0:	01e60633          	add	a2,a2,t5
     4c4:	00f60023          	sb	a5,0(a2)
     4c8:	74072603          	lw	a2,1856(a4)
     4cc:	01d60633          	add	a2,a2,t4
     4d0:	00f60023          	sb	a5,0(a2)
     4d4:	74072603          	lw	a2,1856(a4)
     4d8:	01c60633          	add	a2,a2,t3
     4dc:	00f60023          	sb	a5,0(a2)
     4e0:	74072603          	lw	a2,1856(a4)
     4e4:	00a60633          	add	a2,a2,a0
     4e8:	00f60023          	sb	a5,0(a2)
     4ec:	f6d590e3          	bne	a1,a3,44c <draw_E.constprop.0+0x38>
     4f0:	011585b3          	add	a1,a1,a7
     4f4:	f5059ae3          	bne	a1,a6,448 <draw_E.constprop.0+0x34>
     4f8:	00006837          	lui	a6,0x6
     4fc:	00007537          	lui	a0,0x7
     500:	000095b7          	lui	a1,0x9
     504:	ffffc337          	lui	t1,0xffffc
     508:	ffffeeb7          	lui	t4,0xffffe
     50c:	fffffe37          	lui	t3,0xfffff
     510:	000098b7          	lui	a7,0x9
     514:	86b80813          	addi	a6,a6,-1941 # 586b <__global_pointer+0x92f>
     518:	16b50513          	addi	a0,a0,363 # 716b <__global_pointer+0x222f>
     51c:	a6b58593          	addi	a1,a1,-1429 # 8a6b <__global_pointer+0x3b2f>
     520:	18030313          	addi	t1,t1,384 # ffffc180 <_stack_end+0xffef7658>
     524:	a80e8e93          	addi	t4,t4,-1408 # ffffda80 <_stack_end+0xffef8f58>
     528:	380e0e13          	addi	t3,t3,896 # fffff380 <_stack_end+0xffefa858>
     52c:	a9388893          	addi	a7,a7,-1389 # 8a93 <__global_pointer+0x3b57>
     530:	006586b3          	add	a3,a1,t1
     534:	74072603          	lw	a2,1856(a4)
     538:	00168293          	addi	t0,a3,1
     53c:	00268f93          	addi	t6,a3,2
     540:	00d60633          	add	a2,a2,a3
     544:	00f60023          	sb	a5,0(a2)
     548:	74072603          	lw	a2,1856(a4)
     54c:	00368f13          	addi	t5,a3,3
     550:	00468493          	addi	s1,a3,4
     554:	00560633          	add	a2,a2,t0
     558:	00f60023          	sb	a5,0(a2)
     55c:	74072603          	lw	a2,1856(a4)
     560:	00568413          	addi	s0,a3,5
     564:	00668393          	addi	t2,a3,6
     568:	01f60633          	add	a2,a2,t6
     56c:	00f60023          	sb	a5,0(a2)
     570:	74072603          	lw	a2,1856(a4)
     574:	00768293          	addi	t0,a3,7
     578:	00868f93          	addi	t6,a3,8
     57c:	01e60633          	add	a2,a2,t5
     580:	00f60023          	sb	a5,0(a2)
     584:	74072603          	lw	a2,1856(a4)
     588:	00968f13          	addi	t5,a3,9
     58c:	14068693          	addi	a3,a3,320
     590:	00960633          	add	a2,a2,s1
     594:	00f60023          	sb	a5,0(a2)
     598:	74072603          	lw	a2,1856(a4)
     59c:	00860633          	add	a2,a2,s0
     5a0:	00f60023          	sb	a5,0(a2)
     5a4:	74072603          	lw	a2,1856(a4)
     5a8:	00760633          	add	a2,a2,t2
     5ac:	00f60023          	sb	a5,0(a2)
     5b0:	74072603          	lw	a2,1856(a4)
     5b4:	00560633          	add	a2,a2,t0
     5b8:	00f60023          	sb	a5,0(a2)
     5bc:	74072603          	lw	a2,1856(a4)
     5c0:	01f60633          	add	a2,a2,t6
     5c4:	00f60023          	sb	a5,0(a2)
     5c8:	74072603          	lw	a2,1856(a4)
     5cc:	01e60633          	add	a2,a2,t5
     5d0:	00f60023          	sb	a5,0(a2)
     5d4:	f6d810e3          	bne	a6,a3,534 <draw_E.constprop.0+0x120>
     5d8:	01d586b3          	add	a3,a1,t4
     5dc:	74072603          	lw	a2,1856(a4)
     5e0:	00168293          	addi	t0,a3,1
     5e4:	00268f93          	addi	t6,a3,2
     5e8:	00d60633          	add	a2,a2,a3
     5ec:	00f60023          	sb	a5,0(a2)
     5f0:	74072603          	lw	a2,1856(a4)
     5f4:	00368f13          	addi	t5,a3,3
     5f8:	00468493          	addi	s1,a3,4
     5fc:	00560633          	add	a2,a2,t0
     600:	00f60023          	sb	a5,0(a2)
     604:	74072603          	lw	a2,1856(a4)
     608:	00568413          	addi	s0,a3,5
     60c:	00668393          	addi	t2,a3,6
     610:	01f60633          	add	a2,a2,t6
     614:	00f60023          	sb	a5,0(a2)
     618:	74072603          	lw	a2,1856(a4)
     61c:	00768293          	addi	t0,a3,7
     620:	00868f93          	addi	t6,a3,8
     624:	01e60633          	add	a2,a2,t5
     628:	00f60023          	sb	a5,0(a2)
     62c:	74072603          	lw	a2,1856(a4)
     630:	00968f13          	addi	t5,a3,9
     634:	14068693          	addi	a3,a3,320
     638:	00960633          	add	a2,a2,s1
     63c:	00f60023          	sb	a5,0(a2)
     640:	74072603          	lw	a2,1856(a4)
     644:	00860633          	add	a2,a2,s0
     648:	00f60023          	sb	a5,0(a2)
     64c:	74072603          	lw	a2,1856(a4)
     650:	00760633          	add	a2,a2,t2
     654:	00f60023          	sb	a5,0(a2)
     658:	74072603          	lw	a2,1856(a4)
     65c:	00560633          	add	a2,a2,t0
     660:	00f60023          	sb	a5,0(a2)
     664:	74072603          	lw	a2,1856(a4)
     668:	01f60633          	add	a2,a2,t6
     66c:	00f60023          	sb	a5,0(a2)
     670:	74072603          	lw	a2,1856(a4)
     674:	01e60633          	add	a2,a2,t5
     678:	00f60023          	sb	a5,0(a2)
     67c:	f6d510e3          	bne	a0,a3,5dc <draw_E.constprop.0+0x1c8>
     680:	01c586b3          	add	a3,a1,t3
     684:	74072603          	lw	a2,1856(a4)
     688:	00168293          	addi	t0,a3,1
     68c:	00268f93          	addi	t6,a3,2
     690:	00d60633          	add	a2,a2,a3
     694:	00f60023          	sb	a5,0(a2)
     698:	74072603          	lw	a2,1856(a4)
     69c:	00368f13          	addi	t5,a3,3
     6a0:	00468493          	addi	s1,a3,4
     6a4:	00560633          	add	a2,a2,t0
     6a8:	00f60023          	sb	a5,0(a2)
     6ac:	74072603          	lw	a2,1856(a4)
     6b0:	00568413          	addi	s0,a3,5
     6b4:	00668393          	addi	t2,a3,6
     6b8:	01f60633          	add	a2,a2,t6
     6bc:	00f60023          	sb	a5,0(a2)
     6c0:	74072603          	lw	a2,1856(a4)
     6c4:	00768293          	addi	t0,a3,7
     6c8:	00868f93          	addi	t6,a3,8
     6cc:	01e60633          	add	a2,a2,t5
     6d0:	00f60023          	sb	a5,0(a2)
     6d4:	74072603          	lw	a2,1856(a4)
     6d8:	00968f13          	addi	t5,a3,9
     6dc:	14068693          	addi	a3,a3,320
     6e0:	00960633          	add	a2,a2,s1
     6e4:	00f60023          	sb	a5,0(a2)
     6e8:	74072603          	lw	a2,1856(a4)
     6ec:	00860633          	add	a2,a2,s0
     6f0:	00f60023          	sb	a5,0(a2)
     6f4:	74072603          	lw	a2,1856(a4)
     6f8:	00760633          	add	a2,a2,t2
     6fc:	00f60023          	sb	a5,0(a2)
     700:	74072603          	lw	a2,1856(a4)
     704:	00560633          	add	a2,a2,t0
     708:	00f60023          	sb	a5,0(a2)
     70c:	74072603          	lw	a2,1856(a4)
     710:	01f60633          	add	a2,a2,t6
     714:	00f60023          	sb	a5,0(a2)
     718:	74072603          	lw	a2,1856(a4)
     71c:	01e60633          	add	a2,a2,t5
     720:	00f60023          	sb	a5,0(a2)
     724:	f6d590e3          	bne	a1,a3,684 <draw_E.constprop.0+0x270>
     728:	00a58593          	addi	a1,a1,10
     72c:	00a50513          	addi	a0,a0,10
     730:	00a80813          	addi	a6,a6,10
     734:	df159ee3          	bne	a1,a7,530 <draw_E.constprop.0+0x11c>
     738:	00c12403          	lw	s0,12(sp)
     73c:	00812483          	lw	s1,8(sp)
     740:	01010113          	addi	sp,sp,16
     744:	00008067          	ret

00000748 <draw_grid_block.constprop.0>:
     748:	00002837          	lui	a6,0x2
     74c:	00158593          	addi	a1,a1,1
     750:	90080813          	addi	a6,a6,-1792 # 1900 <draw_M+0x628>
     754:	03058833          	mul	a6,a1,a6
     758:	00251793          	slli	a5,a0,0x2
     75c:	00a788b3          	add	a7,a5,a0
     760:	000027b7          	lui	a5,0x2
     764:	00289893          	slli	a7,a7,0x2
     768:	95078793          	addi	a5,a5,-1712 # 1950 <draw_E+0xc>
     76c:	03c88e13          	addi	t3,a7,60
     770:	000046b7          	lui	a3,0x4
     774:	01088633          	add	a2,a7,a6
     778:	00f807b3          	add	a5,a6,a5
     77c:	05060613          	addi	a2,a2,80
     780:	01178533          	add	a0,a5,a7
     784:	fec60793          	addi	a5,a2,-20
     788:	7406a703          	lw	a4,1856(a3) # 4740 <VGA>
     78c:	00f70733          	add	a4,a4,a5
     790:	00070023          	sb	zero,0(a4)
     794:	00178793          	addi	a5,a5,1
     798:	fec798e3          	bne	a5,a2,788 <draw_grid_block.constprop.0+0x40>
     79c:	14078613          	addi	a2,a5,320
     7a0:	fea612e3          	bne	a2,a0,784 <draw_grid_block.constprop.0+0x3c>
     7a4:	000027b7          	lui	a5,0x2
     7a8:	90078793          	addi	a5,a5,-1792 # 1900 <draw_M+0x628>
     7ac:	02f58733          	mul	a4,a1,a5
     7b0:	000027b7          	lui	a5,0x2
     7b4:	93c78793          	addi	a5,a5,-1732 # 193c <draw_M+0x664>
     7b8:	00f80833          	add	a6,a6,a5
     7bc:	00001337          	lui	t1,0x1
     7c0:	011808b3          	add	a7,a6,a7
     7c4:	00300613          	li	a2,3
     7c8:	7c030313          	addi	t1,t1,1984 # 17c0 <draw_M+0x4e8>
     7cc:	01c70733          	add	a4,a4,t3
     7d0:	00070793          	mv	a5,a4
     7d4:	7406a583          	lw	a1,1856(a3)
     7d8:	00670533          	add	a0,a4,t1
     7dc:	01378813          	addi	a6,a5,19
     7e0:	00e585b3          	add	a1,a1,a4
     7e4:	00c58023          	sb	a2,0(a1)
     7e8:	7406a583          	lw	a1,1856(a3)
     7ec:	00170713          	addi	a4,a4,1
     7f0:	00f585b3          	add	a1,a1,a5
     7f4:	00c58023          	sb	a2,0(a1)
     7f8:	7406a583          	lw	a1,1856(a3)
     7fc:	14078793          	addi	a5,a5,320
     800:	00a585b3          	add	a1,a1,a0
     804:	00c58023          	sb	a2,0(a1)
     808:	7406a583          	lw	a1,1856(a3)
     80c:	010585b3          	add	a1,a1,a6
     810:	00c58023          	sb	a2,0(a1)
     814:	fcf890e3          	bne	a7,a5,7d4 <draw_grid_block.constprop.0+0x8c>
     818:	00008067          	ret

0000081c <get_sw>:
     81c:	040007b7          	lui	a5,0x4000
     820:	0107a503          	lw	a0,16(a5) # 4000010 <_stack_end+0x3efb4e8>
     824:	00157513          	andi	a0,a0,1
     828:	00008067          	ret

0000082c <get_btn>:
     82c:	040007b7          	lui	a5,0x4000
     830:	0d07c503          	lbu	a0,208(a5) # 40000d0 <_stack_end+0x3efb5a8>
     834:	00157513          	andi	a0,a0,1
     838:	00008067          	ret

0000083c <pseudo_random_number_generator>:
     83c:	00004737          	lui	a4,0x4
     840:	74472503          	lw	a0,1860(a4) # 4744 <random_number_seed>
     844:	004dc7b7          	lui	a5,0x4dc
     848:	70178793          	addi	a5,a5,1793 # 4dc701 <_stack_end+0x3d7bd9>
     84c:	02f50533          	mul	a0,a0,a5
     850:	000147b7          	lui	a5,0x14
     854:	e2078793          	addi	a5,a5,-480 # 13e20 <__global_pointer+0xeee4>
     858:	00f50533          	add	a0,a0,a5
     85c:	00c51513          	slli	a0,a0,0xc
     860:	00c55513          	srli	a0,a0,0xc
     864:	74a72223          	sw	a0,1860(a4)
     868:	00008067          	ret

0000086c <show_framebuffer>:
     86c:	000047b7          	lui	a5,0x4
     870:	00004737          	lui	a4,0x4
     874:	73c7a783          	lw	a5,1852(a5) # 473c <VGA_CTRL>
     878:	74072703          	lw	a4,1856(a4) # 4740 <VGA>
     87c:	00e7a223          	sw	a4,4(a5)
     880:	0007a023          	sw	zero,0(a5)
     884:	00008067          	ret

00000888 <draw_block>:
     888:	00002737          	lui	a4,0x2
     88c:	00158793          	addi	a5,a1,1
     890:	90070713          	addi	a4,a4,-1792 # 1900 <draw_M+0x628>
     894:	02e787b3          	mul	a5,a5,a4
     898:	00251713          	slli	a4,a0,0x2
     89c:	00a70733          	add	a4,a4,a0
     8a0:	00002537          	lui	a0,0x2
     8a4:	00271713          	slli	a4,a4,0x2
     8a8:	95050513          	addi	a0,a0,-1712 # 1950 <draw_E+0xc>
     8ac:	000045b7          	lui	a1,0x4
     8b0:	00f706b3          	add	a3,a4,a5
     8b4:	00a787b3          	add	a5,a5,a0
     8b8:	05068693          	addi	a3,a3,80
     8bc:	00e78533          	add	a0,a5,a4
     8c0:	fec68793          	addi	a5,a3,-20
     8c4:	7405a703          	lw	a4,1856(a1) # 4740 <VGA>
     8c8:	00f70733          	add	a4,a4,a5
     8cc:	00c70023          	sb	a2,0(a4)
     8d0:	00178793          	addi	a5,a5,1
     8d4:	fed798e3          	bne	a5,a3,8c4 <draw_block+0x3c>
     8d8:	14078693          	addi	a3,a5,320
     8dc:	fea692e3          	bne	a3,a0,8c0 <draw_block+0x38>
     8e0:	00008067          	ret

000008e4 <draw_letter_block>:
     8e4:	000017b7          	lui	a5,0x1
     8e8:	c8078793          	addi	a5,a5,-896 # c80 <draw_G+0x184>
     8ec:	02f58733          	mul	a4,a1,a5
     8f0:	00259793          	slli	a5,a1,0x2
     8f4:	00b787b3          	add	a5,a5,a1
     8f8:	00179793          	slli	a5,a5,0x1
     8fc:	01e78793          	addi	a5,a5,30
     900:	00251693          	slli	a3,a0,0x2
     904:	00279593          	slli	a1,a5,0x2
     908:	00a686b3          	add	a3,a3,a0
     90c:	00003537          	lui	a0,0x3
     910:	00169693          	slli	a3,a3,0x1
     914:	00f587b3          	add	a5,a1,a5
     918:	21950513          	addi	a0,a0,537 # 3219 <create_playing_field+0x29>
     91c:	00a70733          	add	a4,a4,a0
     920:	00679793          	slli	a5,a5,0x6
     924:	01968593          	addi	a1,a3,25
     928:	00d708b3          	add	a7,a4,a3
     92c:	00b787b3          	add	a5,a5,a1
     930:	00004737          	lui	a4,0x4
     934:	74072683          	lw	a3,1856(a4) # 4740 <VGA>
     938:	00178813          	addi	a6,a5,1
     93c:	00278513          	addi	a0,a5,2
     940:	00f686b3          	add	a3,a3,a5
     944:	00c68023          	sb	a2,0(a3)
     948:	74072683          	lw	a3,1856(a4)
     94c:	00378593          	addi	a1,a5,3
     950:	00478e93          	addi	t4,a5,4
     954:	010686b3          	add	a3,a3,a6
     958:	00c68023          	sb	a2,0(a3)
     95c:	74072683          	lw	a3,1856(a4)
     960:	00578e13          	addi	t3,a5,5
     964:	00678313          	addi	t1,a5,6
     968:	00a686b3          	add	a3,a3,a0
     96c:	00c68023          	sb	a2,0(a3)
     970:	74072683          	lw	a3,1856(a4)
     974:	00778813          	addi	a6,a5,7
     978:	00878513          	addi	a0,a5,8
     97c:	00b686b3          	add	a3,a3,a1
     980:	00c68023          	sb	a2,0(a3)
     984:	74072683          	lw	a3,1856(a4)
     988:	00978593          	addi	a1,a5,9
     98c:	14078793          	addi	a5,a5,320
     990:	01d686b3          	add	a3,a3,t4
     994:	00c68023          	sb	a2,0(a3)
     998:	74072683          	lw	a3,1856(a4)
     99c:	01c686b3          	add	a3,a3,t3
     9a0:	00c68023          	sb	a2,0(a3)
     9a4:	74072683          	lw	a3,1856(a4)
     9a8:	006686b3          	add	a3,a3,t1
     9ac:	00c68023          	sb	a2,0(a3)
     9b0:	74072683          	lw	a3,1856(a4)
     9b4:	010686b3          	add	a3,a3,a6
     9b8:	00c68023          	sb	a2,0(a3)
     9bc:	74072683          	lw	a3,1856(a4)
     9c0:	00a686b3          	add	a3,a3,a0
     9c4:	00c68023          	sb	a2,0(a3)
     9c8:	74072683          	lw	a3,1856(a4)
     9cc:	00b686b3          	add	a3,a3,a1
     9d0:	00c68023          	sb	a2,0(a3)
     9d4:	f6f890e3          	bne	a7,a5,934 <draw_letter_block+0x50>
     9d8:	00008067          	ret

000009dc <draw_pixel_on_block>:
     9dc:	00158593          	addi	a1,a1,1
     9e0:	00259793          	slli	a5,a1,0x2
     9e4:	00b787b3          	add	a5,a5,a1
     9e8:	00279593          	slli	a1,a5,0x2
     9ec:	00251793          	slli	a5,a0,0x2
     9f0:	00d586b3          	add	a3,a1,a3
     9f4:	00a787b3          	add	a5,a5,a0
     9f8:	00269593          	slli	a1,a3,0x2
     9fc:	00279793          	slli	a5,a5,0x2
     a00:	00004537          	lui	a0,0x4
     a04:	74052503          	lw	a0,1856(a0) # 4740 <VGA>
     a08:	00d585b3          	add	a1,a1,a3
     a0c:	03c78793          	addi	a5,a5,60
     a10:	00659593          	slli	a1,a1,0x6
     a14:	00c787b3          	add	a5,a5,a2
     a18:	00f585b3          	add	a1,a1,a5
     a1c:	00b50533          	add	a0,a0,a1
     a20:	00e50023          	sb	a4,0(a0)
     a24:	00008067          	ret

00000a28 <draw_grid_block>:
     a28:	000028b7          	lui	a7,0x2
     a2c:	00158813          	addi	a6,a1,1
     a30:	90088893          	addi	a7,a7,-1792 # 1900 <draw_M+0x628>
     a34:	031808b3          	mul	a7,a6,a7
     a38:	00251793          	slli	a5,a0,0x2
     a3c:	00a78e33          	add	t3,a5,a0
     a40:	000027b7          	lui	a5,0x2
     a44:	002e1e13          	slli	t3,t3,0x2
     a48:	95078793          	addi	a5,a5,-1712 # 1950 <draw_E+0xc>
     a4c:	03ce0e93          	addi	t4,t3,60
     a50:	000046b7          	lui	a3,0x4
     a54:	011e05b3          	add	a1,t3,a7
     a58:	00f887b3          	add	a5,a7,a5
     a5c:	05058593          	addi	a1,a1,80
     a60:	01c78533          	add	a0,a5,t3
     a64:	fec58793          	addi	a5,a1,-20
     a68:	7406a703          	lw	a4,1856(a3) # 4740 <VGA>
     a6c:	00f70733          	add	a4,a4,a5
     a70:	00c70023          	sb	a2,0(a4)
     a74:	00178793          	addi	a5,a5,1
     a78:	feb798e3          	bne	a5,a1,a68 <draw_grid_block+0x40>
     a7c:	14078593          	addi	a1,a5,320
     a80:	fea592e3          	bne	a1,a0,a64 <draw_grid_block+0x3c>
     a84:	000027b7          	lui	a5,0x2
     a88:	90078793          	addi	a5,a5,-1792 # 1900 <draw_M+0x628>
     a8c:	02f80733          	mul	a4,a6,a5
     a90:	000027b7          	lui	a5,0x2
     a94:	93c78793          	addi	a5,a5,-1732 # 193c <draw_M+0x664>
     a98:	00f888b3          	add	a7,a7,a5
     a9c:	00001337          	lui	t1,0x1
     aa0:	01c888b3          	add	a7,a7,t3
     aa4:	00300613          	li	a2,3
     aa8:	7c030313          	addi	t1,t1,1984 # 17c0 <draw_M+0x4e8>
     aac:	01d70733          	add	a4,a4,t4
     ab0:	00070793          	mv	a5,a4
     ab4:	7406a583          	lw	a1,1856(a3)
     ab8:	00670533          	add	a0,a4,t1
     abc:	01378813          	addi	a6,a5,19
     ac0:	00e585b3          	add	a1,a1,a4
     ac4:	00c58023          	sb	a2,0(a1)
     ac8:	7406a583          	lw	a1,1856(a3)
     acc:	00170713          	addi	a4,a4,1
     ad0:	00f585b3          	add	a1,a1,a5
     ad4:	00c58023          	sb	a2,0(a1)
     ad8:	7406a583          	lw	a1,1856(a3)
     adc:	14078793          	addi	a5,a5,320
     ae0:	00a585b3          	add	a1,a1,a0
     ae4:	00c58023          	sb	a2,0(a1)
     ae8:	7406a583          	lw	a1,1856(a3)
     aec:	010585b3          	add	a1,a1,a6
     af0:	00c58023          	sb	a2,0(a1)
     af4:	fcf890e3          	bne	a7,a5,ab4 <draw_grid_block+0x8c>
     af8:	00008067          	ret

00000afc <draw_G>:
     afc:	000055b7          	lui	a1,0x5
     b00:	00009637          	lui	a2,0x9
     b04:	ffffc8b7          	lui	a7,0xffffc
     b08:	fffff337          	lui	t1,0xfffff
     b0c:	00009837          	lui	a6,0x9
     b10:	7b758593          	addi	a1,a1,1975 # 57b7 <__global_pointer+0x87b>
     b14:	9b760613          	addi	a2,a2,-1609 # 89b7 <__global_pointer+0x3a7b>
     b18:	000047b7          	lui	a5,0x4
     b1c:	18088893          	addi	a7,a7,384 # ffffc180 <_stack_end+0xffef7658>
     b20:	38030313          	addi	t1,t1,896 # fffff380 <_stack_end+0xffefa858>
     b24:	9df80813          	addi	a6,a6,-1569 # 89df <__global_pointer+0x3aa3>
     b28:	01160733          	add	a4,a2,a7
     b2c:	7407a683          	lw	a3,1856(a5) # 4740 <VGA>
     b30:	00170f13          	addi	t5,a4,1
     b34:	00270e93          	addi	t4,a4,2
     b38:	00e686b3          	add	a3,a3,a4
     b3c:	00a68023          	sb	a0,0(a3)
     b40:	7407a683          	lw	a3,1856(a5)
     b44:	00370e13          	addi	t3,a4,3
     b48:	00470393          	addi	t2,a4,4
     b4c:	01e686b3          	add	a3,a3,t5
     b50:	00a68023          	sb	a0,0(a3)
     b54:	7407a683          	lw	a3,1856(a5)
     b58:	00570293          	addi	t0,a4,5
     b5c:	00670f93          	addi	t6,a4,6
     b60:	01d686b3          	add	a3,a3,t4
     b64:	00a68023          	sb	a0,0(a3)
     b68:	7407a683          	lw	a3,1856(a5)
     b6c:	00770f13          	addi	t5,a4,7
     b70:	00870e93          	addi	t4,a4,8
     b74:	01c686b3          	add	a3,a3,t3
     b78:	00a68023          	sb	a0,0(a3)
     b7c:	7407a683          	lw	a3,1856(a5)
     b80:	00970e13          	addi	t3,a4,9
     b84:	14070713          	addi	a4,a4,320
     b88:	007686b3          	add	a3,a3,t2
     b8c:	00a68023          	sb	a0,0(a3)
     b90:	7407a683          	lw	a3,1856(a5)
     b94:	005686b3          	add	a3,a3,t0
     b98:	00a68023          	sb	a0,0(a3)
     b9c:	7407a683          	lw	a3,1856(a5)
     ba0:	01f686b3          	add	a3,a3,t6
     ba4:	00a68023          	sb	a0,0(a3)
     ba8:	7407a683          	lw	a3,1856(a5)
     bac:	01e686b3          	add	a3,a3,t5
     bb0:	00a68023          	sb	a0,0(a3)
     bb4:	7407a683          	lw	a3,1856(a5)
     bb8:	01d686b3          	add	a3,a3,t4
     bbc:	00a68023          	sb	a0,0(a3)
     bc0:	7407a683          	lw	a3,1856(a5)
     bc4:	01c686b3          	add	a3,a3,t3
     bc8:	00a68023          	sb	a0,0(a3)
     bcc:	f6e590e3          	bne	a1,a4,b2c <draw_G+0x30>
     bd0:	00660733          	add	a4,a2,t1
     bd4:	7407a683          	lw	a3,1856(a5)
     bd8:	00170f13          	addi	t5,a4,1
     bdc:	00270e93          	addi	t4,a4,2
     be0:	00e686b3          	add	a3,a3,a4
     be4:	00a68023          	sb	a0,0(a3)
     be8:	7407a683          	lw	a3,1856(a5)
     bec:	00370e13          	addi	t3,a4,3
     bf0:	00470393          	addi	t2,a4,4
     bf4:	01e686b3          	add	a3,a3,t5
     bf8:	00a68023          	sb	a0,0(a3)
     bfc:	7407a683          	lw	a3,1856(a5)
     c00:	00570293          	addi	t0,a4,5
     c04:	00670f93          	addi	t6,a4,6
     c08:	01d686b3          	add	a3,a3,t4
     c0c:	00a68023          	sb	a0,0(a3)
     c10:	7407a683          	lw	a3,1856(a5)
     c14:	00770f13          	addi	t5,a4,7
     c18:	00870e93          	addi	t4,a4,8
     c1c:	01c686b3          	add	a3,a3,t3
     c20:	00a68023          	sb	a0,0(a3)
     c24:	7407a683          	lw	a3,1856(a5)
     c28:	00970e13          	addi	t3,a4,9
     c2c:	14070713          	addi	a4,a4,320
     c30:	007686b3          	add	a3,a3,t2
     c34:	00a68023          	sb	a0,0(a3)
     c38:	7407a683          	lw	a3,1856(a5)
     c3c:	005686b3          	add	a3,a3,t0
     c40:	00a68023          	sb	a0,0(a3)
     c44:	7407a683          	lw	a3,1856(a5)
     c48:	01f686b3          	add	a3,a3,t6
     c4c:	00a68023          	sb	a0,0(a3)
     c50:	7407a683          	lw	a3,1856(a5)
     c54:	01e686b3          	add	a3,a3,t5
     c58:	00a68023          	sb	a0,0(a3)
     c5c:	7407a683          	lw	a3,1856(a5)
     c60:	01d686b3          	add	a3,a3,t4
     c64:	00a68023          	sb	a0,0(a3)
     c68:	7407a683          	lw	a3,1856(a5)
     c6c:	01c686b3          	add	a3,a3,t3
     c70:	00a68023          	sb	a0,0(a3)
     c74:	f6e610e3          	bne	a2,a4,bd4 <draw_G+0xd8>
     c78:	00a60613          	addi	a2,a2,10
     c7c:	00a58593          	addi	a1,a1,10
     c80:	eb0614e3          	bne	a2,a6,b28 <draw_G+0x2c>
     c84:	000065b7          	lui	a1,0x6
     c88:	00007637          	lui	a2,0x7
     c8c:	fffff837          	lui	a6,0xfffff
     c90:	00001337          	lui	t1,0x1
     c94:	000078b7          	lui	a7,0x7
     c98:	42d58593          	addi	a1,a1,1069 # 642d <__global_pointer+0x14f1>
     c9c:	0c160613          	addi	a2,a2,193 # 70c1 <__global_pointer+0x2185>
     ca0:	38080813          	addi	a6,a6,896 # fffff380 <_stack_end+0xffefa858>
     ca4:	c8030313          	addi	t1,t1,-896 # c80 <draw_G+0x184>
     ca8:	0df88893          	addi	a7,a7,223 # 70df <__global_pointer+0x21a3>
     cac:	01058733          	add	a4,a1,a6
     cb0:	7407a683          	lw	a3,1856(a5)
     cb4:	00170f13          	addi	t5,a4,1
     cb8:	00270e93          	addi	t4,a4,2
     cbc:	00e686b3          	add	a3,a3,a4
     cc0:	00a68023          	sb	a0,0(a3)
     cc4:	7407a683          	lw	a3,1856(a5)
     cc8:	00370e13          	addi	t3,a4,3
     ccc:	00470393          	addi	t2,a4,4
     cd0:	01e686b3          	add	a3,a3,t5
     cd4:	00a68023          	sb	a0,0(a3)
     cd8:	7407a683          	lw	a3,1856(a5)
     cdc:	00570293          	addi	t0,a4,5
     ce0:	00670f93          	addi	t6,a4,6
     ce4:	01d686b3          	add	a3,a3,t4
     ce8:	00a68023          	sb	a0,0(a3)
     cec:	7407a683          	lw	a3,1856(a5)
     cf0:	00770f13          	addi	t5,a4,7
     cf4:	00870e93          	addi	t4,a4,8
     cf8:	01c686b3          	add	a3,a3,t3
     cfc:	00a68023          	sb	a0,0(a3)
     d00:	7407a683          	lw	a3,1856(a5)
     d04:	00970e13          	addi	t3,a4,9
     d08:	14070713          	addi	a4,a4,320
     d0c:	007686b3          	add	a3,a3,t2
     d10:	00a68023          	sb	a0,0(a3)
     d14:	7407a683          	lw	a3,1856(a5)
     d18:	005686b3          	add	a3,a3,t0
     d1c:	00a68023          	sb	a0,0(a3)
     d20:	7407a683          	lw	a3,1856(a5)
     d24:	01f686b3          	add	a3,a3,t6
     d28:	00a68023          	sb	a0,0(a3)
     d2c:	7407a683          	lw	a3,1856(a5)
     d30:	01e686b3          	add	a3,a3,t5
     d34:	00a68023          	sb	a0,0(a3)
     d38:	7407a683          	lw	a3,1856(a5)
     d3c:	01d686b3          	add	a3,a3,t4
     d40:	00a68023          	sb	a0,0(a3)
     d44:	7407a683          	lw	a3,1856(a5)
     d48:	01c686b3          	add	a3,a3,t3
     d4c:	00a68023          	sb	a0,0(a3)
     d50:	f6e590e3          	bne	a1,a4,cb0 <draw_G+0x1b4>
     d54:	01060733          	add	a4,a2,a6
     d58:	7407a683          	lw	a3,1856(a5)
     d5c:	00170f13          	addi	t5,a4,1
     d60:	00270e93          	addi	t4,a4,2
     d64:	00e686b3          	add	a3,a3,a4
     d68:	00a68023          	sb	a0,0(a3)
     d6c:	7407a683          	lw	a3,1856(a5)
     d70:	00370e13          	addi	t3,a4,3
     d74:	00470393          	addi	t2,a4,4
     d78:	01e686b3          	add	a3,a3,t5
     d7c:	00a68023          	sb	a0,0(a3)
     d80:	7407a683          	lw	a3,1856(a5)
     d84:	00570293          	addi	t0,a4,5
     d88:	00670f93          	addi	t6,a4,6
     d8c:	01d686b3          	add	a3,a3,t4
     d90:	00a68023          	sb	a0,0(a3)
     d94:	7407a683          	lw	a3,1856(a5)
     d98:	00770f13          	addi	t5,a4,7
     d9c:	00870e93          	addi	t4,a4,8
     da0:	01c686b3          	add	a3,a3,t3
     da4:	00a68023          	sb	a0,0(a3)
     da8:	7407a683          	lw	a3,1856(a5)
     dac:	00970e13          	addi	t3,a4,9
     db0:	14070713          	addi	a4,a4,320
     db4:	007686b3          	add	a3,a3,t2
     db8:	00a68023          	sb	a0,0(a3)
     dbc:	7407a683          	lw	a3,1856(a5)
     dc0:	005686b3          	add	a3,a3,t0
     dc4:	00a68023          	sb	a0,0(a3)
     dc8:	7407a683          	lw	a3,1856(a5)
     dcc:	01f686b3          	add	a3,a3,t6
     dd0:	00a68023          	sb	a0,0(a3)
     dd4:	7407a683          	lw	a3,1856(a5)
     dd8:	01e686b3          	add	a3,a3,t5
     ddc:	00a68023          	sb	a0,0(a3)
     de0:	7407a683          	lw	a3,1856(a5)
     de4:	01d686b3          	add	a3,a3,t4
     de8:	00a68023          	sb	a0,0(a3)
     dec:	7407a683          	lw	a3,1856(a5)
     df0:	01c686b3          	add	a3,a3,t3
     df4:	00a68023          	sb	a0,0(a3)
     df8:	f6e610e3          	bne	a2,a4,d58 <draw_G+0x25c>
     dfc:	00a60613          	addi	a2,a2,10
     e00:	006585b3          	add	a1,a1,t1
     e04:	eb1614e3          	bne	a2,a7,cac <draw_G+0x1b0>
     e08:	7407a703          	lw	a4,1856(a5)
     e0c:	000077b7          	lui	a5,0x7
     e10:	000086b7          	lui	a3,0x8
     e14:	00f707b3          	add	a5,a4,a5
     e18:	0ca78aa3          	sb	a0,213(a5) # 70d5 <__global_pointer+0x2199>
     e1c:	0ca78b23          	sb	a0,214(a5)
     e20:	0ca78ba3          	sb	a0,215(a5)
     e24:	0ca78c23          	sb	a0,216(a5)
     e28:	0ca78ca3          	sb	a0,217(a5)
     e2c:	0ca78d23          	sb	a0,218(a5)
     e30:	0ca78da3          	sb	a0,219(a5)
     e34:	0ca78e23          	sb	a0,220(a5)
     e38:	0ca78ea3          	sb	a0,221(a5)
     e3c:	0ca78f23          	sb	a0,222(a5)
     e40:	20a78aa3          	sb	a0,533(a5)
     e44:	20a78b23          	sb	a0,534(a5)
     e48:	20a78ba3          	sb	a0,535(a5)
     e4c:	20a78c23          	sb	a0,536(a5)
     e50:	20a78ca3          	sb	a0,537(a5)
     e54:	20a78d23          	sb	a0,538(a5)
     e58:	20a78da3          	sb	a0,539(a5)
     e5c:	20a78e23          	sb	a0,540(a5)
     e60:	20a78ea3          	sb	a0,541(a5)
     e64:	20a78f23          	sb	a0,542(a5)
     e68:	34a78aa3          	sb	a0,853(a5)
     e6c:	34a78b23          	sb	a0,854(a5)
     e70:	34a78ba3          	sb	a0,855(a5)
     e74:	34a78c23          	sb	a0,856(a5)
     e78:	34a78ca3          	sb	a0,857(a5)
     e7c:	34a78d23          	sb	a0,858(a5)
     e80:	34a78da3          	sb	a0,859(a5)
     e84:	34a78e23          	sb	a0,860(a5)
     e88:	34a78ea3          	sb	a0,861(a5)
     e8c:	34a78f23          	sb	a0,862(a5)
     e90:	48a78aa3          	sb	a0,1173(a5)
     e94:	48a78b23          	sb	a0,1174(a5)
     e98:	48a78ba3          	sb	a0,1175(a5)
     e9c:	48a78c23          	sb	a0,1176(a5)
     ea0:	48a78ca3          	sb	a0,1177(a5)
     ea4:	48a78d23          	sb	a0,1178(a5)
     ea8:	48a78da3          	sb	a0,1179(a5)
     eac:	48a78e23          	sb	a0,1180(a5)
     eb0:	48a78ea3          	sb	a0,1181(a5)
     eb4:	48a78f23          	sb	a0,1182(a5)
     eb8:	5ca78aa3          	sb	a0,1493(a5)
     ebc:	5ca78b23          	sb	a0,1494(a5)
     ec0:	5ca78ba3          	sb	a0,1495(a5)
     ec4:	5ca78c23          	sb	a0,1496(a5)
     ec8:	5ca78ca3          	sb	a0,1497(a5)
     ecc:	5ca78d23          	sb	a0,1498(a5)
     ed0:	5ca78da3          	sb	a0,1499(a5)
     ed4:	5ca78e23          	sb	a0,1500(a5)
     ed8:	5ca78ea3          	sb	a0,1501(a5)
     edc:	5ca78f23          	sb	a0,1502(a5)
     ee0:	70a78aa3          	sb	a0,1813(a5)
     ee4:	70a78b23          	sb	a0,1814(a5)
     ee8:	70a78ba3          	sb	a0,1815(a5)
     eec:	70a78c23          	sb	a0,1816(a5)
     ef0:	70a78ca3          	sb	a0,1817(a5)
     ef4:	70a78d23          	sb	a0,1818(a5)
     ef8:	70a78da3          	sb	a0,1819(a5)
     efc:	70a78e23          	sb	a0,1820(a5)
     f00:	70a78ea3          	sb	a0,1821(a5)
     f04:	00d70733          	add	a4,a4,a3
     f08:	70a78f23          	sb	a0,1822(a5)
     f0c:	84a70aa3          	sb	a0,-1963(a4)
     f10:	84a70b23          	sb	a0,-1962(a4)
     f14:	84a70ba3          	sb	a0,-1961(a4)
     f18:	84a70c23          	sb	a0,-1960(a4)
     f1c:	84a70ca3          	sb	a0,-1959(a4)
     f20:	84a70d23          	sb	a0,-1958(a4)
     f24:	84a70da3          	sb	a0,-1957(a4)
     f28:	84a70e23          	sb	a0,-1956(a4)
     f2c:	84a70ea3          	sb	a0,-1955(a4)
     f30:	84a70f23          	sb	a0,-1954(a4)
     f34:	98a70aa3          	sb	a0,-1643(a4)
     f38:	98a70b23          	sb	a0,-1642(a4)
     f3c:	98a70ba3          	sb	a0,-1641(a4)
     f40:	98a70c23          	sb	a0,-1640(a4)
     f44:	98a70ca3          	sb	a0,-1639(a4)
     f48:	98a70d23          	sb	a0,-1638(a4)
     f4c:	98a70da3          	sb	a0,-1637(a4)
     f50:	98a70e23          	sb	a0,-1636(a4)
     f54:	98a70ea3          	sb	a0,-1635(a4)
     f58:	98a70f23          	sb	a0,-1634(a4)
     f5c:	aca70aa3          	sb	a0,-1323(a4)
     f60:	aca70b23          	sb	a0,-1322(a4)
     f64:	aca70ba3          	sb	a0,-1321(a4)
     f68:	aca70c23          	sb	a0,-1320(a4)
     f6c:	aca70ca3          	sb	a0,-1319(a4)
     f70:	aca70d23          	sb	a0,-1318(a4)
     f74:	aca70da3          	sb	a0,-1317(a4)
     f78:	aca70e23          	sb	a0,-1316(a4)
     f7c:	aca70ea3          	sb	a0,-1315(a4)
     f80:	aca70f23          	sb	a0,-1314(a4)
     f84:	c0a70aa3          	sb	a0,-1003(a4)
     f88:	c0a70b23          	sb	a0,-1002(a4)
     f8c:	c0a70ba3          	sb	a0,-1001(a4)
     f90:	c0a70c23          	sb	a0,-1000(a4)
     f94:	c0a70ca3          	sb	a0,-999(a4)
     f98:	c0a70d23          	sb	a0,-998(a4)
     f9c:	c0a70da3          	sb	a0,-997(a4)
     fa0:	c0a70e23          	sb	a0,-996(a4)
     fa4:	c0a70ea3          	sb	a0,-995(a4)
     fa8:	c0a70f23          	sb	a0,-994(a4)
     fac:	00008067          	ret

00000fb0 <draw_A>:
     fb0:	ff010113          	addi	sp,sp,-16
     fb4:	000055b7          	lui	a1,0x5
     fb8:	fffff8b7          	lui	a7,0xfffff
     fbc:	00006837          	lui	a6,0x6
     fc0:	00812623          	sw	s0,12(sp)
     fc4:	00912423          	sw	s1,8(sp)
     fc8:	7f358593          	addi	a1,a1,2035 # 57f3 <__global_pointer+0x8b7>
     fcc:	000047b7          	lui	a5,0x4
     fd0:	38088893          	addi	a7,a7,896 # fffff380 <_stack_end+0xffefa858>
     fd4:	81180813          	addi	a6,a6,-2031 # 5811 <__global_pointer+0x8d5>
     fd8:	01158733          	add	a4,a1,a7
     fdc:	7407a683          	lw	a3,1856(a5) # 4740 <VGA>
     fe0:	00170e13          	addi	t3,a4,1
     fe4:	00270313          	addi	t1,a4,2
     fe8:	00e686b3          	add	a3,a3,a4
     fec:	00a68023          	sb	a0,0(a3) # 8000 <__global_pointer+0x30c4>
     ff0:	7407a683          	lw	a3,1856(a5)
     ff4:	00370613          	addi	a2,a4,3
     ff8:	00470f93          	addi	t6,a4,4
     ffc:	01c686b3          	add	a3,a3,t3
    1000:	00a68023          	sb	a0,0(a3)
    1004:	7407a683          	lw	a3,1856(a5)
    1008:	00570f13          	addi	t5,a4,5
    100c:	00670e93          	addi	t4,a4,6
    1010:	006686b3          	add	a3,a3,t1
    1014:	00a68023          	sb	a0,0(a3)
    1018:	7407a683          	lw	a3,1856(a5)
    101c:	00770e13          	addi	t3,a4,7
    1020:	00870313          	addi	t1,a4,8
    1024:	00c686b3          	add	a3,a3,a2
    1028:	00a68023          	sb	a0,0(a3)
    102c:	7407a683          	lw	a3,1856(a5)
    1030:	00970613          	addi	a2,a4,9
    1034:	14070713          	addi	a4,a4,320
    1038:	01f686b3          	add	a3,a3,t6
    103c:	00a68023          	sb	a0,0(a3)
    1040:	7407a683          	lw	a3,1856(a5)
    1044:	01e686b3          	add	a3,a3,t5
    1048:	00a68023          	sb	a0,0(a3)
    104c:	7407a683          	lw	a3,1856(a5)
    1050:	01d686b3          	add	a3,a3,t4
    1054:	00a68023          	sb	a0,0(a3)
    1058:	7407a683          	lw	a3,1856(a5)
    105c:	01c686b3          	add	a3,a3,t3
    1060:	00a68023          	sb	a0,0(a3)
    1064:	7407a683          	lw	a3,1856(a5)
    1068:	006686b3          	add	a3,a3,t1
    106c:	00a68023          	sb	a0,0(a3)
    1070:	7407a683          	lw	a3,1856(a5)
    1074:	00c686b3          	add	a3,a3,a2
    1078:	00a68023          	sb	a0,0(a3)
    107c:	f6e590e3          	bne	a1,a4,fdc <draw_A+0x2c>
    1080:	00a58593          	addi	a1,a1,10
    1084:	f5059ae3          	bne	a1,a6,fd8 <draw_A+0x28>
    1088:	00007637          	lui	a2,0x7
    108c:	00006837          	lui	a6,0x6
    1090:	000065b7          	lui	a1,0x6
    1094:	fffff337          	lui	t1,0xfffff
    1098:	fffffeb7          	lui	t4,0xfffff
    109c:	000018b7          	lui	a7,0x1
    10a0:	00007e37          	lui	t3,0x7
    10a4:	0e960613          	addi	a2,a2,233 # 70e9 <__global_pointer+0x21ad>
    10a8:	46980813          	addi	a6,a6,1129 # 6469 <__global_pointer+0x152d>
    10ac:	49158593          	addi	a1,a1,1169 # 6491 <__global_pointer+0x1555>
    10b0:	38030313          	addi	t1,t1,896 # fffff380 <_stack_end+0xffefa858>
    10b4:	358e8e93          	addi	t4,t4,856 # fffff358 <_stack_end+0xffefa830>
    10b8:	c8088893          	addi	a7,a7,-896 # c80 <draw_G+0x184>
    10bc:	111e0e13          	addi	t3,t3,273 # 7111 <__global_pointer+0x21d5>
    10c0:	00660733          	add	a4,a2,t1
    10c4:	7407a683          	lw	a3,1856(a5)
    10c8:	00170293          	addi	t0,a4,1
    10cc:	00270f93          	addi	t6,a4,2
    10d0:	00e686b3          	add	a3,a3,a4
    10d4:	00a68023          	sb	a0,0(a3)
    10d8:	7407a683          	lw	a3,1856(a5)
    10dc:	00370f13          	addi	t5,a4,3
    10e0:	00470493          	addi	s1,a4,4
    10e4:	005686b3          	add	a3,a3,t0
    10e8:	00a68023          	sb	a0,0(a3)
    10ec:	7407a683          	lw	a3,1856(a5)
    10f0:	00570413          	addi	s0,a4,5
    10f4:	00670393          	addi	t2,a4,6
    10f8:	01f686b3          	add	a3,a3,t6
    10fc:	00a68023          	sb	a0,0(a3)
    1100:	7407a683          	lw	a3,1856(a5)
    1104:	00770293          	addi	t0,a4,7
    1108:	00870f93          	addi	t6,a4,8
    110c:	01e686b3          	add	a3,a3,t5
    1110:	00a68023          	sb	a0,0(a3)
    1114:	7407a683          	lw	a3,1856(a5)
    1118:	00970f13          	addi	t5,a4,9
    111c:	14070713          	addi	a4,a4,320
    1120:	009686b3          	add	a3,a3,s1
    1124:	00a68023          	sb	a0,0(a3)
    1128:	7407a683          	lw	a3,1856(a5)
    112c:	008686b3          	add	a3,a3,s0
    1130:	00a68023          	sb	a0,0(a3)
    1134:	7407a683          	lw	a3,1856(a5)
    1138:	007686b3          	add	a3,a3,t2
    113c:	00a68023          	sb	a0,0(a3)
    1140:	7407a683          	lw	a3,1856(a5)
    1144:	005686b3          	add	a3,a3,t0
    1148:	00a68023          	sb	a0,0(a3)
    114c:	7407a683          	lw	a3,1856(a5)
    1150:	01f686b3          	add	a3,a3,t6
    1154:	00a68023          	sb	a0,0(a3)
    1158:	7407a683          	lw	a3,1856(a5)
    115c:	01e686b3          	add	a3,a3,t5
    1160:	00a68023          	sb	a0,0(a3)
    1164:	f6e610e3          	bne	a2,a4,10c4 <draw_A+0x114>
    1168:	01d58733          	add	a4,a1,t4
    116c:	7407a683          	lw	a3,1856(a5)
    1170:	00170293          	addi	t0,a4,1
    1174:	00270f93          	addi	t6,a4,2
    1178:	00e686b3          	add	a3,a3,a4
    117c:	00a68023          	sb	a0,0(a3)
    1180:	7407a683          	lw	a3,1856(a5)
    1184:	00370f13          	addi	t5,a4,3
    1188:	00470493          	addi	s1,a4,4
    118c:	005686b3          	add	a3,a3,t0
    1190:	00a68023          	sb	a0,0(a3)
    1194:	7407a683          	lw	a3,1856(a5)
    1198:	00570413          	addi	s0,a4,5
    119c:	00670393          	addi	t2,a4,6
    11a0:	01f686b3          	add	a3,a3,t6
    11a4:	00a68023          	sb	a0,0(a3)
    11a8:	7407a683          	lw	a3,1856(a5)
    11ac:	00770293          	addi	t0,a4,7
    11b0:	00870f93          	addi	t6,a4,8
    11b4:	01e686b3          	add	a3,a3,t5
    11b8:	00a68023          	sb	a0,0(a3)
    11bc:	7407a683          	lw	a3,1856(a5)
    11c0:	00970f13          	addi	t5,a4,9
    11c4:	14070713          	addi	a4,a4,320
    11c8:	009686b3          	add	a3,a3,s1
    11cc:	00a68023          	sb	a0,0(a3)
    11d0:	7407a683          	lw	a3,1856(a5)
    11d4:	008686b3          	add	a3,a3,s0
    11d8:	00a68023          	sb	a0,0(a3)
    11dc:	7407a683          	lw	a3,1856(a5)
    11e0:	007686b3          	add	a3,a3,t2
    11e4:	00a68023          	sb	a0,0(a3)
    11e8:	7407a683          	lw	a3,1856(a5)
    11ec:	005686b3          	add	a3,a3,t0
    11f0:	00a68023          	sb	a0,0(a3)
    11f4:	7407a683          	lw	a3,1856(a5)
    11f8:	01f686b3          	add	a3,a3,t6
    11fc:	00a68023          	sb	a0,0(a3)
    1200:	7407a683          	lw	a3,1856(a5)
    1204:	01e686b3          	add	a3,a3,t5
    1208:	00a68023          	sb	a0,0(a3)
    120c:	f6e810e3          	bne	a6,a4,116c <draw_A+0x1bc>
    1210:	00658733          	add	a4,a1,t1
    1214:	7407a683          	lw	a3,1856(a5)
    1218:	00170293          	addi	t0,a4,1
    121c:	00270f93          	addi	t6,a4,2
    1220:	00e686b3          	add	a3,a3,a4
    1224:	00a68023          	sb	a0,0(a3)
    1228:	7407a683          	lw	a3,1856(a5)
    122c:	00370f13          	addi	t5,a4,3
    1230:	00470493          	addi	s1,a4,4
    1234:	005686b3          	add	a3,a3,t0
    1238:	00a68023          	sb	a0,0(a3)
    123c:	7407a683          	lw	a3,1856(a5)
    1240:	00570413          	addi	s0,a4,5
    1244:	00670393          	addi	t2,a4,6
    1248:	01f686b3          	add	a3,a3,t6
    124c:	00a68023          	sb	a0,0(a3)
    1250:	7407a683          	lw	a3,1856(a5)
    1254:	00770293          	addi	t0,a4,7
    1258:	00870f93          	addi	t6,a4,8
    125c:	01e686b3          	add	a3,a3,t5
    1260:	00a68023          	sb	a0,0(a3)
    1264:	7407a683          	lw	a3,1856(a5)
    1268:	00970f13          	addi	t5,a4,9
    126c:	14070713          	addi	a4,a4,320
    1270:	009686b3          	add	a3,a3,s1
    1274:	00a68023          	sb	a0,0(a3)
    1278:	7407a683          	lw	a3,1856(a5)
    127c:	008686b3          	add	a3,a3,s0
    1280:	00a68023          	sb	a0,0(a3)
    1284:	7407a683          	lw	a3,1856(a5)
    1288:	007686b3          	add	a3,a3,t2
    128c:	00a68023          	sb	a0,0(a3)
    1290:	7407a683          	lw	a3,1856(a5)
    1294:	005686b3          	add	a3,a3,t0
    1298:	00a68023          	sb	a0,0(a3)
    129c:	7407a683          	lw	a3,1856(a5)
    12a0:	01f686b3          	add	a3,a3,t6
    12a4:	00a68023          	sb	a0,0(a3)
    12a8:	7407a683          	lw	a3,1856(a5)
    12ac:	01e686b3          	add	a3,a3,t5
    12b0:	00a68023          	sb	a0,0(a3)
    12b4:	f6e590e3          	bne	a1,a4,1214 <draw_A+0x264>
    12b8:	00a60613          	addi	a2,a2,10
    12bc:	011585b3          	add	a1,a1,a7
    12c0:	01180833          	add	a6,a6,a7
    12c4:	dfc61ee3          	bne	a2,t3,10c0 <draw_A+0x110>
    12c8:	00c12403          	lw	s0,12(sp)
    12cc:	00812483          	lw	s1,8(sp)
    12d0:	01010113          	addi	sp,sp,16
    12d4:	00008067          	ret

000012d8 <draw_M>:
    12d8:	ff010113          	addi	sp,sp,-16
    12dc:	00006837          	lui	a6,0x6
    12e0:	000065b7          	lui	a1,0x6
    12e4:	fffffe37          	lui	t3,0xfffff
    12e8:	fffffeb7          	lui	t4,0xfffff
    12ec:	000018b7          	lui	a7,0x1
    12f0:	00009337          	lui	t1,0x9
    12f4:	00812623          	sw	s0,12(sp)
    12f8:	00050793          	mv	a5,a0
    12fc:	82580813          	addi	a6,a6,-2011 # 5825 <__global_pointer+0x8e9>
    1300:	84d58593          	addi	a1,a1,-1971 # 584d <__global_pointer+0x911>
    1304:	00004737          	lui	a4,0x4
    1308:	358e0e13          	addi	t3,t3,856 # fffff358 <_stack_end+0xffefa830>
    130c:	380e8e93          	addi	t4,t4,896 # fffff380 <_stack_end+0xffefa858>
    1310:	c8088893          	addi	a7,a7,-896 # c80 <draw_G+0x184>
    1314:	6cd30313          	addi	t1,t1,1741 # 96cd <__global_pointer+0x4791>
    1318:	01c586b3          	add	a3,a1,t3
    131c:	74072603          	lw	a2,1856(a4) # 4740 <VGA>
    1320:	00168f93          	addi	t6,a3,1
    1324:	00268f13          	addi	t5,a3,2
    1328:	00d60633          	add	a2,a2,a3
    132c:	00f60023          	sb	a5,0(a2)
    1330:	74072603          	lw	a2,1856(a4)
    1334:	00368513          	addi	a0,a3,3
    1338:	00468413          	addi	s0,a3,4
    133c:	01f60633          	add	a2,a2,t6
    1340:	00f60023          	sb	a5,0(a2)
    1344:	74072603          	lw	a2,1856(a4)
    1348:	00568393          	addi	t2,a3,5
    134c:	00668293          	addi	t0,a3,6
    1350:	01e60633          	add	a2,a2,t5
    1354:	00f60023          	sb	a5,0(a2)
    1358:	74072603          	lw	a2,1856(a4)
    135c:	00768f93          	addi	t6,a3,7
    1360:	00868f13          	addi	t5,a3,8
    1364:	00a60633          	add	a2,a2,a0
    1368:	00f60023          	sb	a5,0(a2)
    136c:	74072603          	lw	a2,1856(a4)
    1370:	00968513          	addi	a0,a3,9
    1374:	14068693          	addi	a3,a3,320
    1378:	00860633          	add	a2,a2,s0
    137c:	00f60023          	sb	a5,0(a2)
    1380:	74072603          	lw	a2,1856(a4)
    1384:	00760633          	add	a2,a2,t2
    1388:	00f60023          	sb	a5,0(a2)
    138c:	74072603          	lw	a2,1856(a4)
    1390:	00560633          	add	a2,a2,t0
    1394:	00f60023          	sb	a5,0(a2)
    1398:	74072603          	lw	a2,1856(a4)
    139c:	01f60633          	add	a2,a2,t6
    13a0:	00f60023          	sb	a5,0(a2)
    13a4:	74072603          	lw	a2,1856(a4)
    13a8:	01e60633          	add	a2,a2,t5
    13ac:	00f60023          	sb	a5,0(a2)
    13b0:	74072603          	lw	a2,1856(a4)
    13b4:	00a60633          	add	a2,a2,a0
    13b8:	00f60023          	sb	a5,0(a2)
    13bc:	f70690e3          	bne	a3,a6,131c <draw_M+0x44>
    13c0:	01d586b3          	add	a3,a1,t4
    13c4:	74072603          	lw	a2,1856(a4)
    13c8:	00168f93          	addi	t6,a3,1
    13cc:	00268f13          	addi	t5,a3,2
    13d0:	00d60633          	add	a2,a2,a3
    13d4:	00f60023          	sb	a5,0(a2)
    13d8:	74072603          	lw	a2,1856(a4)
    13dc:	00368513          	addi	a0,a3,3
    13e0:	00468413          	addi	s0,a3,4
    13e4:	01f60633          	add	a2,a2,t6
    13e8:	00f60023          	sb	a5,0(a2)
    13ec:	74072603          	lw	a2,1856(a4)
    13f0:	00568393          	addi	t2,a3,5
    13f4:	00668293          	addi	t0,a3,6
    13f8:	01e60633          	add	a2,a2,t5
    13fc:	00f60023          	sb	a5,0(a2)
    1400:	74072603          	lw	a2,1856(a4)
    1404:	00768f93          	addi	t6,a3,7
    1408:	00868f13          	addi	t5,a3,8
    140c:	00a60633          	add	a2,a2,a0
    1410:	00f60023          	sb	a5,0(a2)
    1414:	74072603          	lw	a2,1856(a4)
    1418:	00968513          	addi	a0,a3,9
    141c:	14068693          	addi	a3,a3,320
    1420:	00860633          	add	a2,a2,s0
    1424:	00f60023          	sb	a5,0(a2)
    1428:	74072603          	lw	a2,1856(a4)
    142c:	00760633          	add	a2,a2,t2
    1430:	00f60023          	sb	a5,0(a2)
    1434:	74072603          	lw	a2,1856(a4)
    1438:	00560633          	add	a2,a2,t0
    143c:	00f60023          	sb	a5,0(a2)
    1440:	74072603          	lw	a2,1856(a4)
    1444:	01f60633          	add	a2,a2,t6
    1448:	00f60023          	sb	a5,0(a2)
    144c:	74072603          	lw	a2,1856(a4)
    1450:	01e60633          	add	a2,a2,t5
    1454:	00f60023          	sb	a5,0(a2)
    1458:	74072603          	lw	a2,1856(a4)
    145c:	00a60633          	add	a2,a2,a0
    1460:	00f60023          	sb	a5,0(a2)
    1464:	f6b690e3          	bne	a3,a1,13c4 <draw_M+0xec>
    1468:	011685b3          	add	a1,a3,a7
    146c:	01180833          	add	a6,a6,a7
    1470:	ea6594e3          	bne	a1,t1,1318 <draw_M+0x40>
    1474:	74072683          	lw	a3,1856(a4)
    1478:	00006737          	lui	a4,0x6
    147c:	00007637          	lui	a2,0x7
    1480:	00e68733          	add	a4,a3,a4
    1484:	82f707a3          	sb	a5,-2001(a4) # 582f <__global_pointer+0x8f3>
    1488:	82f70823          	sb	a5,-2000(a4)
    148c:	82f708a3          	sb	a5,-1999(a4)
    1490:	82f70923          	sb	a5,-1998(a4)
    1494:	82f709a3          	sb	a5,-1997(a4)
    1498:	82f70a23          	sb	a5,-1996(a4)
    149c:	82f70aa3          	sb	a5,-1995(a4)
    14a0:	82f70b23          	sb	a5,-1994(a4)
    14a4:	82f70ba3          	sb	a5,-1993(a4)
    14a8:	82f70c23          	sb	a5,-1992(a4)
    14ac:	96f707a3          	sb	a5,-1681(a4)
    14b0:	96f70823          	sb	a5,-1680(a4)
    14b4:	96f708a3          	sb	a5,-1679(a4)
    14b8:	96f70923          	sb	a5,-1678(a4)
    14bc:	96f709a3          	sb	a5,-1677(a4)
    14c0:	96f70a23          	sb	a5,-1676(a4)
    14c4:	96f70aa3          	sb	a5,-1675(a4)
    14c8:	96f70b23          	sb	a5,-1674(a4)
    14cc:	96f70ba3          	sb	a5,-1673(a4)
    14d0:	96f70c23          	sb	a5,-1672(a4)
    14d4:	aaf707a3          	sb	a5,-1361(a4)
    14d8:	aaf70823          	sb	a5,-1360(a4)
    14dc:	aaf708a3          	sb	a5,-1359(a4)
    14e0:	aaf70923          	sb	a5,-1358(a4)
    14e4:	aaf709a3          	sb	a5,-1357(a4)
    14e8:	aaf70a23          	sb	a5,-1356(a4)
    14ec:	aaf70aa3          	sb	a5,-1355(a4)
    14f0:	aaf70b23          	sb	a5,-1354(a4)
    14f4:	aaf70ba3          	sb	a5,-1353(a4)
    14f8:	aaf70c23          	sb	a5,-1352(a4)
    14fc:	bef707a3          	sb	a5,-1041(a4)
    1500:	bef70823          	sb	a5,-1040(a4)
    1504:	bef708a3          	sb	a5,-1039(a4)
    1508:	bef70923          	sb	a5,-1038(a4)
    150c:	bef709a3          	sb	a5,-1037(a4)
    1510:	bef70a23          	sb	a5,-1036(a4)
    1514:	bef70aa3          	sb	a5,-1035(a4)
    1518:	bef70b23          	sb	a5,-1034(a4)
    151c:	bef70ba3          	sb	a5,-1033(a4)
    1520:	bef70c23          	sb	a5,-1032(a4)
    1524:	d2f707a3          	sb	a5,-721(a4)
    1528:	d2f70823          	sb	a5,-720(a4)
    152c:	d2f708a3          	sb	a5,-719(a4)
    1530:	d2f70923          	sb	a5,-718(a4)
    1534:	d2f709a3          	sb	a5,-717(a4)
    1538:	d2f70a23          	sb	a5,-716(a4)
    153c:	d2f70aa3          	sb	a5,-715(a4)
    1540:	d2f70b23          	sb	a5,-714(a4)
    1544:	d2f70ba3          	sb	a5,-713(a4)
    1548:	d2f70c23          	sb	a5,-712(a4)
    154c:	e6f707a3          	sb	a5,-401(a4)
    1550:	e6f70823          	sb	a5,-400(a4)
    1554:	e6f708a3          	sb	a5,-399(a4)
    1558:	e6f70923          	sb	a5,-398(a4)
    155c:	e6f709a3          	sb	a5,-397(a4)
    1560:	e6f70a23          	sb	a5,-396(a4)
    1564:	e6f70aa3          	sb	a5,-395(a4)
    1568:	e6f70b23          	sb	a5,-394(a4)
    156c:	e6f70ba3          	sb	a5,-393(a4)
    1570:	e6f70c23          	sb	a5,-392(a4)
    1574:	faf707a3          	sb	a5,-81(a4)
    1578:	faf70823          	sb	a5,-80(a4)
    157c:	faf708a3          	sb	a5,-79(a4)
    1580:	faf70923          	sb	a5,-78(a4)
    1584:	faf709a3          	sb	a5,-77(a4)
    1588:	faf70a23          	sb	a5,-76(a4)
    158c:	faf70aa3          	sb	a5,-75(a4)
    1590:	faf70b23          	sb	a5,-74(a4)
    1594:	faf70ba3          	sb	a5,-73(a4)
    1598:	faf70c23          	sb	a5,-72(a4)
    159c:	0ef707a3          	sb	a5,239(a4)
    15a0:	0ef70823          	sb	a5,240(a4)
    15a4:	0ef708a3          	sb	a5,241(a4)
    15a8:	0ef70923          	sb	a5,242(a4)
    15ac:	0ef709a3          	sb	a5,243(a4)
    15b0:	0ef70a23          	sb	a5,244(a4)
    15b4:	0ef70aa3          	sb	a5,245(a4)
    15b8:	0ef70b23          	sb	a5,246(a4)
    15bc:	0ef70ba3          	sb	a5,247(a4)
    15c0:	0ef70c23          	sb	a5,248(a4)
    15c4:	22f707a3          	sb	a5,559(a4)
    15c8:	22f70823          	sb	a5,560(a4)
    15cc:	22f708a3          	sb	a5,561(a4)
    15d0:	22f70923          	sb	a5,562(a4)
    15d4:	22f709a3          	sb	a5,563(a4)
    15d8:	22f70a23          	sb	a5,564(a4)
    15dc:	22f70aa3          	sb	a5,565(a4)
    15e0:	22f70b23          	sb	a5,566(a4)
    15e4:	22f70ba3          	sb	a5,567(a4)
    15e8:	22f70c23          	sb	a5,568(a4)
    15ec:	36f707a3          	sb	a5,879(a4)
    15f0:	36f70823          	sb	a5,880(a4)
    15f4:	36f708a3          	sb	a5,881(a4)
    15f8:	36f70923          	sb	a5,882(a4)
    15fc:	36f709a3          	sb	a5,883(a4)
    1600:	36f70a23          	sb	a5,884(a4)
    1604:	36f70aa3          	sb	a5,885(a4)
    1608:	36f70b23          	sb	a5,886(a4)
    160c:	36f70ba3          	sb	a5,887(a4)
    1610:	36f70c23          	sb	a5,888(a4)
    1614:	4af70ca3          	sb	a5,1209(a4)
    1618:	4af70d23          	sb	a5,1210(a4)
    161c:	4af70da3          	sb	a5,1211(a4)
    1620:	4af70e23          	sb	a5,1212(a4)
    1624:	4af70ea3          	sb	a5,1213(a4)
    1628:	4af70f23          	sb	a5,1214(a4)
    162c:	4af70fa3          	sb	a5,1215(a4)
    1630:	4cf70023          	sb	a5,1216(a4)
    1634:	4cf700a3          	sb	a5,1217(a4)
    1638:	4cf70123          	sb	a5,1218(a4)
    163c:	5ef70ca3          	sb	a5,1529(a4)
    1640:	5ef70d23          	sb	a5,1530(a4)
    1644:	5ef70da3          	sb	a5,1531(a4)
    1648:	5ef70e23          	sb	a5,1532(a4)
    164c:	5ef70ea3          	sb	a5,1533(a4)
    1650:	5ef70f23          	sb	a5,1534(a4)
    1654:	5ef70fa3          	sb	a5,1535(a4)
    1658:	60f70023          	sb	a5,1536(a4)
    165c:	60f700a3          	sb	a5,1537(a4)
    1660:	60f70123          	sb	a5,1538(a4)
    1664:	72f70ca3          	sb	a5,1849(a4)
    1668:	72f70d23          	sb	a5,1850(a4)
    166c:	72f70da3          	sb	a5,1851(a4)
    1670:	72f70e23          	sb	a5,1852(a4)
    1674:	72f70ea3          	sb	a5,1853(a4)
    1678:	72f70f23          	sb	a5,1854(a4)
    167c:	72f70fa3          	sb	a5,1855(a4)
    1680:	74f70023          	sb	a5,1856(a4)
    1684:	74f700a3          	sb	a5,1857(a4)
    1688:	00c686b3          	add	a3,a3,a2
    168c:	74f70123          	sb	a5,1858(a4)
    1690:	86f68ca3          	sb	a5,-1927(a3)
    1694:	86f68d23          	sb	a5,-1926(a3)
    1698:	86f68da3          	sb	a5,-1925(a3)
    169c:	86f68e23          	sb	a5,-1924(a3)
    16a0:	86f68ea3          	sb	a5,-1923(a3)
    16a4:	86f68f23          	sb	a5,-1922(a3)
    16a8:	86f68fa3          	sb	a5,-1921(a3)
    16ac:	88f68023          	sb	a5,-1920(a3)
    16b0:	88f680a3          	sb	a5,-1919(a3)
    16b4:	88f68123          	sb	a5,-1918(a3)
    16b8:	9af68ca3          	sb	a5,-1607(a3)
    16bc:	9af68d23          	sb	a5,-1606(a3)
    16c0:	9af68da3          	sb	a5,-1605(a3)
    16c4:	9af68e23          	sb	a5,-1604(a3)
    16c8:	9af68ea3          	sb	a5,-1603(a3)
    16cc:	9af68f23          	sb	a5,-1602(a3)
    16d0:	9af68fa3          	sb	a5,-1601(a3)
    16d4:	9cf68023          	sb	a5,-1600(a3)
    16d8:	9cf680a3          	sb	a5,-1599(a3)
    16dc:	9cf68123          	sb	a5,-1598(a3)
    16e0:	aef68ca3          	sb	a5,-1287(a3)
    16e4:	aef68d23          	sb	a5,-1286(a3)
    16e8:	aef68da3          	sb	a5,-1285(a3)
    16ec:	aef68e23          	sb	a5,-1284(a3)
    16f0:	aef68ea3          	sb	a5,-1283(a3)
    16f4:	aef68f23          	sb	a5,-1282(a3)
    16f8:	aef68fa3          	sb	a5,-1281(a3)
    16fc:	b0f68023          	sb	a5,-1280(a3)
    1700:	b0f680a3          	sb	a5,-1279(a3)
    1704:	b0f68123          	sb	a5,-1278(a3)
    1708:	c2f68ca3          	sb	a5,-967(a3)
    170c:	c2f68d23          	sb	a5,-966(a3)
    1710:	c2f68da3          	sb	a5,-965(a3)
    1714:	c2f68e23          	sb	a5,-964(a3)
    1718:	c2f68ea3          	sb	a5,-963(a3)
    171c:	c2f68f23          	sb	a5,-962(a3)
    1720:	c2f68fa3          	sb	a5,-961(a3)
    1724:	c4f68023          	sb	a5,-960(a3)
    1728:	c4f680a3          	sb	a5,-959(a3)
    172c:	c4f68123          	sb	a5,-958(a3)
    1730:	d6f68ca3          	sb	a5,-647(a3)
    1734:	d6f68d23          	sb	a5,-646(a3)
    1738:	d6f68da3          	sb	a5,-645(a3)
    173c:	d6f68e23          	sb	a5,-644(a3)
    1740:	d6f68ea3          	sb	a5,-643(a3)
    1744:	d6f68f23          	sb	a5,-642(a3)
    1748:	d6f68fa3          	sb	a5,-641(a3)
    174c:	d8f68023          	sb	a5,-640(a3)
    1750:	d8f680a3          	sb	a5,-639(a3)
    1754:	d8f68123          	sb	a5,-638(a3)
    1758:	eaf68ca3          	sb	a5,-327(a3)
    175c:	eaf68d23          	sb	a5,-326(a3)
    1760:	eaf68da3          	sb	a5,-325(a3)
    1764:	eaf68e23          	sb	a5,-324(a3)
    1768:	eaf68ea3          	sb	a5,-323(a3)
    176c:	eaf68f23          	sb	a5,-322(a3)
    1770:	eaf68fa3          	sb	a5,-321(a3)
    1774:	ecf68023          	sb	a5,-320(a3)
    1778:	ecf680a3          	sb	a5,-319(a3)
    177c:	ecf68123          	sb	a5,-318(a3)
    1780:	fef68ca3          	sb	a5,-7(a3)
    1784:	fef68d23          	sb	a5,-6(a3)
    1788:	fef68da3          	sb	a5,-5(a3)
    178c:	fef68e23          	sb	a5,-4(a3)
    1790:	fef68ea3          	sb	a5,-3(a3)
    1794:	fef68f23          	sb	a5,-2(a3)
    1798:	fef68fa3          	sb	a5,-1(a3)
    179c:	00f68023          	sb	a5,0(a3)
    17a0:	00f680a3          	sb	a5,1(a3)
    17a4:	00f68123          	sb	a5,2(a3)
    17a8:	84f701a3          	sb	a5,-1981(a4)
    17ac:	84f70223          	sb	a5,-1980(a4)
    17b0:	84f702a3          	sb	a5,-1979(a4)
    17b4:	84f70323          	sb	a5,-1978(a4)
    17b8:	84f703a3          	sb	a5,-1977(a4)
    17bc:	84f70423          	sb	a5,-1976(a4)
    17c0:	84f704a3          	sb	a5,-1975(a4)
    17c4:	84f70523          	sb	a5,-1974(a4)
    17c8:	84f705a3          	sb	a5,-1973(a4)
    17cc:	84f70623          	sb	a5,-1972(a4)
    17d0:	98f701a3          	sb	a5,-1661(a4)
    17d4:	98f70223          	sb	a5,-1660(a4)
    17d8:	98f702a3          	sb	a5,-1659(a4)
    17dc:	98f70323          	sb	a5,-1658(a4)
    17e0:	98f703a3          	sb	a5,-1657(a4)
    17e4:	98f70423          	sb	a5,-1656(a4)
    17e8:	98f704a3          	sb	a5,-1655(a4)
    17ec:	98f70523          	sb	a5,-1654(a4)
    17f0:	98f705a3          	sb	a5,-1653(a4)
    17f4:	98f70623          	sb	a5,-1652(a4)
    17f8:	acf701a3          	sb	a5,-1341(a4)
    17fc:	acf70223          	sb	a5,-1340(a4)
    1800:	acf702a3          	sb	a5,-1339(a4)
    1804:	acf70323          	sb	a5,-1338(a4)
    1808:	acf703a3          	sb	a5,-1337(a4)
    180c:	acf70423          	sb	a5,-1336(a4)
    1810:	acf704a3          	sb	a5,-1335(a4)
    1814:	acf70523          	sb	a5,-1334(a4)
    1818:	acf705a3          	sb	a5,-1333(a4)
    181c:	acf70623          	sb	a5,-1332(a4)
    1820:	c0f701a3          	sb	a5,-1021(a4)
    1824:	c0f70223          	sb	a5,-1020(a4)
    1828:	c0f702a3          	sb	a5,-1019(a4)
    182c:	c0f70323          	sb	a5,-1018(a4)
    1830:	c0f703a3          	sb	a5,-1017(a4)
    1834:	c0f70423          	sb	a5,-1016(a4)
    1838:	c0f704a3          	sb	a5,-1015(a4)
    183c:	c0f70523          	sb	a5,-1014(a4)
    1840:	c0f705a3          	sb	a5,-1013(a4)
    1844:	c0f70623          	sb	a5,-1012(a4)
    1848:	d4f701a3          	sb	a5,-701(a4)
    184c:	d4f70223          	sb	a5,-700(a4)
    1850:	d4f702a3          	sb	a5,-699(a4)
    1854:	d4f70323          	sb	a5,-698(a4)
    1858:	d4f703a3          	sb	a5,-697(a4)
    185c:	d4f70423          	sb	a5,-696(a4)
    1860:	d4f704a3          	sb	a5,-695(a4)
    1864:	d4f70523          	sb	a5,-694(a4)
    1868:	d4f705a3          	sb	a5,-693(a4)
    186c:	d4f70623          	sb	a5,-692(a4)
    1870:	e8f701a3          	sb	a5,-381(a4)
    1874:	e8f70223          	sb	a5,-380(a4)
    1878:	e8f702a3          	sb	a5,-379(a4)
    187c:	e8f70323          	sb	a5,-378(a4)
    1880:	e8f703a3          	sb	a5,-377(a4)
    1884:	e8f70423          	sb	a5,-376(a4)
    1888:	e8f704a3          	sb	a5,-375(a4)
    188c:	e8f70523          	sb	a5,-374(a4)
    1890:	e8f705a3          	sb	a5,-373(a4)
    1894:	e8f70623          	sb	a5,-372(a4)
    1898:	fcf701a3          	sb	a5,-61(a4)
    189c:	fcf70223          	sb	a5,-60(a4)
    18a0:	fcf702a3          	sb	a5,-59(a4)
    18a4:	fcf70323          	sb	a5,-58(a4)
    18a8:	fcf703a3          	sb	a5,-57(a4)
    18ac:	fcf70423          	sb	a5,-56(a4)
    18b0:	fcf704a3          	sb	a5,-55(a4)
    18b4:	fcf70523          	sb	a5,-54(a4)
    18b8:	fcf705a3          	sb	a5,-53(a4)
    18bc:	fcf70623          	sb	a5,-52(a4)
    18c0:	10f701a3          	sb	a5,259(a4)
    18c4:	10f70223          	sb	a5,260(a4)
    18c8:	10f702a3          	sb	a5,261(a4)
    18cc:	10f70323          	sb	a5,262(a4)
    18d0:	10f703a3          	sb	a5,263(a4)
    18d4:	10f70423          	sb	a5,264(a4)
    18d8:	10f704a3          	sb	a5,265(a4)
    18dc:	10f70523          	sb	a5,266(a4)
    18e0:	10f705a3          	sb	a5,267(a4)
    18e4:	10f70623          	sb	a5,268(a4)
    18e8:	24f701a3          	sb	a5,579(a4)
    18ec:	24f70223          	sb	a5,580(a4)
    18f0:	24f702a3          	sb	a5,581(a4)
    18f4:	24f70323          	sb	a5,582(a4)
    18f8:	24f703a3          	sb	a5,583(a4)
    18fc:	24f70423          	sb	a5,584(a4)
    1900:	24f704a3          	sb	a5,585(a4)
    1904:	24f70523          	sb	a5,586(a4)
    1908:	24f705a3          	sb	a5,587(a4)
    190c:	24f70623          	sb	a5,588(a4)
    1910:	38f701a3          	sb	a5,899(a4)
    1914:	38f70223          	sb	a5,900(a4)
    1918:	38f702a3          	sb	a5,901(a4)
    191c:	38f70323          	sb	a5,902(a4)
    1920:	38f703a3          	sb	a5,903(a4)
    1924:	38f70423          	sb	a5,904(a4)
    1928:	38f704a3          	sb	a5,905(a4)
    192c:	38f70523          	sb	a5,906(a4)
    1930:	38f705a3          	sb	a5,907(a4)
    1934:	38f70623          	sb	a5,908(a4)
    1938:	00c12403          	lw	s0,12(sp)
    193c:	01010113          	addi	sp,sp,16
    1940:	00008067          	ret

00001944 <draw_E>:
    1944:	00001337          	lui	t1,0x1
    1948:	00358793          	addi	a5,a1,3
    194c:	c8030313          	addi	t1,t1,-896 # c80 <draw_G+0x184>
    1950:	02678e33          	mul	t3,a5,t1
    1954:	00251893          	slli	a7,a0,0x2
    1958:	01450593          	addi	a1,a0,20
    195c:	00279e93          	slli	t4,a5,0x2
    1960:	00a888b3          	add	a7,a7,a0
    1964:	00003737          	lui	a4,0x3
    1968:	00259693          	slli	a3,a1,0x2
    196c:	00fe8eb3          	add	t4,t4,a5
    1970:	00189893          	slli	a7,a7,0x1
    1974:	2e170713          	addi	a4,a4,737 # 32e1 <draw_pineapple+0x5>
    1978:	ff010113          	addi	sp,sp,-16
    197c:	001e9e93          	slli	t4,t4,0x1
    1980:	00b686b3          	add	a3,a3,a1
    1984:	00e88733          	add	a4,a7,a4
    1988:	ffffff37          	lui	t5,0xfffff
    198c:	01ee8813          	addi	a6,t4,30
    1990:	01c705b3          	add	a1,a4,t3
    1994:	00812623          	sw	s0,12(sp)
    1998:	00912423          	sw	s1,8(sp)
    199c:	01212223          	sw	s2,4(sp)
    19a0:	00060793          	mv	a5,a2
    19a4:	00169513          	slli	a0,a3,0x1
    19a8:	050e8e93          	addi	t4,t4,80
    19ac:	00004737          	lui	a4,0x4
    19b0:	380f0f13          	addi	t5,t5,896 # fffff380 <_stack_end+0xffefa858>
    19b4:	01e586b3          	add	a3,a1,t5
    19b8:	74072603          	lw	a2,1856(a4) # 4740 <VGA>
    19bc:	00168393          	addi	t2,a3,1
    19c0:	00268293          	addi	t0,a3,2
    19c4:	00d60633          	add	a2,a2,a3
    19c8:	00f60023          	sb	a5,0(a2) # 7000 <__global_pointer+0x20c4>
    19cc:	74072603          	lw	a2,1856(a4)
    19d0:	00368f93          	addi	t6,a3,3
    19d4:	00468913          	addi	s2,a3,4
    19d8:	00760633          	add	a2,a2,t2
    19dc:	00f60023          	sb	a5,0(a2)
    19e0:	74072603          	lw	a2,1856(a4)
    19e4:	00568493          	addi	s1,a3,5
    19e8:	00668413          	addi	s0,a3,6
    19ec:	00560633          	add	a2,a2,t0
    19f0:	00f60023          	sb	a5,0(a2)
    19f4:	74072603          	lw	a2,1856(a4)
    19f8:	00768393          	addi	t2,a3,7
    19fc:	00868293          	addi	t0,a3,8
    1a00:	01f60633          	add	a2,a2,t6
    1a04:	00f60023          	sb	a5,0(a2)
    1a08:	74072603          	lw	a2,1856(a4)
    1a0c:	00968f93          	addi	t6,a3,9
    1a10:	14068693          	addi	a3,a3,320
    1a14:	01260633          	add	a2,a2,s2
    1a18:	00f60023          	sb	a5,0(a2)
    1a1c:	74072603          	lw	a2,1856(a4)
    1a20:	00960633          	add	a2,a2,s1
    1a24:	00f60023          	sb	a5,0(a2)
    1a28:	74072603          	lw	a2,1856(a4)
    1a2c:	00860633          	add	a2,a2,s0
    1a30:	00f60023          	sb	a5,0(a2)
    1a34:	74072603          	lw	a2,1856(a4)
    1a38:	00760633          	add	a2,a2,t2
    1a3c:	00f60023          	sb	a5,0(a2)
    1a40:	74072603          	lw	a2,1856(a4)
    1a44:	00560633          	add	a2,a2,t0
    1a48:	00f60023          	sb	a5,0(a2)
    1a4c:	74072603          	lw	a2,1856(a4)
    1a50:	01f60633          	add	a2,a2,t6
    1a54:	00f60023          	sb	a5,0(a2)
    1a58:	f6d590e3          	bne	a1,a3,19b8 <draw_E+0x74>
    1a5c:	00a80813          	addi	a6,a6,10
    1a60:	006585b3          	add	a1,a1,t1
    1a64:	f50e98e3          	bne	t4,a6,19b4 <draw_E+0x70>
    1a68:	ffffef37          	lui	t5,0xffffe
    1a6c:	000095b7          	lui	a1,0x9
    1a70:	00007637          	lui	a2,0x7
    1a74:	000066b7          	lui	a3,0x6
    1a78:	a80f0f13          	addi	t5,t5,-1408 # ffffda80 <_stack_end+0xffef8f58>
    1a7c:	a6b58593          	addi	a1,a1,-1429 # 8a6b <__global_pointer+0x3b2f>
    1a80:	16b60613          	addi	a2,a2,363 # 716b <__global_pointer+0x222f>
    1a84:	86b68693          	addi	a3,a3,-1941 # 586b <__global_pointer+0x92f>
    1a88:	01ee0e33          	add	t3,t3,t5
    1a8c:	00b885b3          	add	a1,a7,a1
    1a90:	00c88633          	add	a2,a7,a2
    1a94:	00d886b3          	add	a3,a7,a3
    1a98:	ffffceb7          	lui	t4,0xffffc
    1a9c:	ffffffb7          	lui	t6,0xfffff
    1aa0:	02350513          	addi	a0,a0,35
    1aa4:	01c585b3          	add	a1,a1,t3
    1aa8:	01c60333          	add	t1,a2,t3
    1aac:	01c68833          	add	a6,a3,t3
    1ab0:	11388893          	addi	a7,a7,275
    1ab4:	180e8e93          	addi	t4,t4,384 # ffffc180 <_stack_end+0xffef7658>
    1ab8:	380f8f93          	addi	t6,t6,896 # fffff380 <_stack_end+0xffefa858>
    1abc:	01d586b3          	add	a3,a1,t4
    1ac0:	74072603          	lw	a2,1856(a4)
    1ac4:	00168393          	addi	t2,a3,1
    1ac8:	00268293          	addi	t0,a3,2
    1acc:	00d60633          	add	a2,a2,a3
    1ad0:	00f60023          	sb	a5,0(a2)
    1ad4:	74072603          	lw	a2,1856(a4)
    1ad8:	00368e13          	addi	t3,a3,3
    1adc:	00468913          	addi	s2,a3,4
    1ae0:	00760633          	add	a2,a2,t2
    1ae4:	00f60023          	sb	a5,0(a2)
    1ae8:	74072603          	lw	a2,1856(a4)
    1aec:	00568493          	addi	s1,a3,5
    1af0:	00668413          	addi	s0,a3,6
    1af4:	00560633          	add	a2,a2,t0
    1af8:	00f60023          	sb	a5,0(a2)
    1afc:	74072603          	lw	a2,1856(a4)
    1b00:	00768393          	addi	t2,a3,7
    1b04:	00868293          	addi	t0,a3,8
    1b08:	01c60633          	add	a2,a2,t3
    1b0c:	00f60023          	sb	a5,0(a2)
    1b10:	74072603          	lw	a2,1856(a4)
    1b14:	00968e13          	addi	t3,a3,9
    1b18:	14068693          	addi	a3,a3,320
    1b1c:	01260633          	add	a2,a2,s2
    1b20:	00f60023          	sb	a5,0(a2)
    1b24:	74072603          	lw	a2,1856(a4)
    1b28:	00960633          	add	a2,a2,s1
    1b2c:	00f60023          	sb	a5,0(a2)
    1b30:	74072603          	lw	a2,1856(a4)
    1b34:	00860633          	add	a2,a2,s0
    1b38:	00f60023          	sb	a5,0(a2)
    1b3c:	74072603          	lw	a2,1856(a4)
    1b40:	00760633          	add	a2,a2,t2
    1b44:	00f60023          	sb	a5,0(a2)
    1b48:	74072603          	lw	a2,1856(a4)
    1b4c:	00560633          	add	a2,a2,t0
    1b50:	00f60023          	sb	a5,0(a2)
    1b54:	74072603          	lw	a2,1856(a4)
    1b58:	01c60633          	add	a2,a2,t3
    1b5c:	00f60023          	sb	a5,0(a2)
    1b60:	f6d810e3          	bne	a6,a3,1ac0 <draw_E+0x17c>
    1b64:	01e586b3          	add	a3,a1,t5
    1b68:	74072603          	lw	a2,1856(a4)
    1b6c:	00168393          	addi	t2,a3,1
    1b70:	00268293          	addi	t0,a3,2
    1b74:	00d60633          	add	a2,a2,a3
    1b78:	00f60023          	sb	a5,0(a2)
    1b7c:	74072603          	lw	a2,1856(a4)
    1b80:	00368e13          	addi	t3,a3,3
    1b84:	00468913          	addi	s2,a3,4
    1b88:	00760633          	add	a2,a2,t2
    1b8c:	00f60023          	sb	a5,0(a2)
    1b90:	74072603          	lw	a2,1856(a4)
    1b94:	00568493          	addi	s1,a3,5
    1b98:	00668413          	addi	s0,a3,6
    1b9c:	00560633          	add	a2,a2,t0
    1ba0:	00f60023          	sb	a5,0(a2)
    1ba4:	74072603          	lw	a2,1856(a4)
    1ba8:	00768393          	addi	t2,a3,7
    1bac:	00868293          	addi	t0,a3,8
    1bb0:	01c60633          	add	a2,a2,t3
    1bb4:	00f60023          	sb	a5,0(a2)
    1bb8:	74072603          	lw	a2,1856(a4)
    1bbc:	00968e13          	addi	t3,a3,9
    1bc0:	14068693          	addi	a3,a3,320
    1bc4:	01260633          	add	a2,a2,s2
    1bc8:	00f60023          	sb	a5,0(a2)
    1bcc:	74072603          	lw	a2,1856(a4)
    1bd0:	00960633          	add	a2,a2,s1
    1bd4:	00f60023          	sb	a5,0(a2)
    1bd8:	74072603          	lw	a2,1856(a4)
    1bdc:	00860633          	add	a2,a2,s0
    1be0:	00f60023          	sb	a5,0(a2)
    1be4:	74072603          	lw	a2,1856(a4)
    1be8:	00760633          	add	a2,a2,t2
    1bec:	00f60023          	sb	a5,0(a2)
    1bf0:	74072603          	lw	a2,1856(a4)
    1bf4:	00560633          	add	a2,a2,t0
    1bf8:	00f60023          	sb	a5,0(a2)
    1bfc:	74072603          	lw	a2,1856(a4)
    1c00:	01c60633          	add	a2,a2,t3
    1c04:	00f60023          	sb	a5,0(a2)
    1c08:	f6d310e3          	bne	t1,a3,1b68 <draw_E+0x224>
    1c0c:	01f586b3          	add	a3,a1,t6
    1c10:	74072603          	lw	a2,1856(a4)
    1c14:	00168393          	addi	t2,a3,1
    1c18:	00268293          	addi	t0,a3,2
    1c1c:	00d60633          	add	a2,a2,a3
    1c20:	00f60023          	sb	a5,0(a2)
    1c24:	74072603          	lw	a2,1856(a4)
    1c28:	00368e13          	addi	t3,a3,3
    1c2c:	00468913          	addi	s2,a3,4
    1c30:	00760633          	add	a2,a2,t2
    1c34:	00f60023          	sb	a5,0(a2)
    1c38:	74072603          	lw	a2,1856(a4)
    1c3c:	00568493          	addi	s1,a3,5
    1c40:	00668413          	addi	s0,a3,6
    1c44:	00560633          	add	a2,a2,t0
    1c48:	00f60023          	sb	a5,0(a2)
    1c4c:	74072603          	lw	a2,1856(a4)
    1c50:	00768393          	addi	t2,a3,7
    1c54:	00868293          	addi	t0,a3,8
    1c58:	01c60633          	add	a2,a2,t3
    1c5c:	00f60023          	sb	a5,0(a2)
    1c60:	74072603          	lw	a2,1856(a4)
    1c64:	00968e13          	addi	t3,a3,9
    1c68:	14068693          	addi	a3,a3,320
    1c6c:	01260633          	add	a2,a2,s2
    1c70:	00f60023          	sb	a5,0(a2)
    1c74:	74072603          	lw	a2,1856(a4)
    1c78:	00960633          	add	a2,a2,s1
    1c7c:	00f60023          	sb	a5,0(a2)
    1c80:	74072603          	lw	a2,1856(a4)
    1c84:	00860633          	add	a2,a2,s0
    1c88:	00f60023          	sb	a5,0(a2)
    1c8c:	74072603          	lw	a2,1856(a4)
    1c90:	00760633          	add	a2,a2,t2
    1c94:	00f60023          	sb	a5,0(a2)
    1c98:	74072603          	lw	a2,1856(a4)
    1c9c:	00560633          	add	a2,a2,t0
    1ca0:	00f60023          	sb	a5,0(a2)
    1ca4:	74072603          	lw	a2,1856(a4)
    1ca8:	01c60633          	add	a2,a2,t3
    1cac:	00f60023          	sb	a5,0(a2)
    1cb0:	f6d590e3          	bne	a1,a3,1c10 <draw_E+0x2cc>
    1cb4:	00a50513          	addi	a0,a0,10
    1cb8:	00a58593          	addi	a1,a1,10
    1cbc:	00a30313          	addi	t1,t1,10
    1cc0:	00a80813          	addi	a6,a6,10
    1cc4:	dea89ce3          	bne	a7,a0,1abc <draw_E+0x178>
    1cc8:	00c12403          	lw	s0,12(sp)
    1ccc:	00812483          	lw	s1,8(sp)
    1cd0:	00412903          	lw	s2,4(sp)
    1cd4:	01010113          	addi	sp,sp,16
    1cd8:	00008067          	ret

00001cdc <draw_O>:
    1cdc:	ff010113          	addi	sp,sp,-16
    1ce0:	0000a537          	lui	a0,0xa
    1ce4:	0000d5b7          	lui	a1,0xd
    1ce8:	ffffc8b7          	lui	a7,0xffffc
    1cec:	fffff337          	lui	t1,0xfffff
    1cf0:	0000d837          	lui	a6,0xd
    1cf4:	00812623          	sw	s0,12(sp)
    1cf8:	2b750513          	addi	a0,a0,695 # a2b7 <__global_pointer+0x537b>
    1cfc:	4b758593          	addi	a1,a1,1207 # d4b7 <__global_pointer+0x857b>
    1d00:	000047b7          	lui	a5,0x4
    1d04:	18088893          	addi	a7,a7,384 # ffffc180 <_stack_end+0xffef7658>
    1d08:	fe000713          	li	a4,-32
    1d0c:	38030313          	addi	t1,t1,896 # fffff380 <_stack_end+0xffefa858>
    1d10:	4d580813          	addi	a6,a6,1237 # d4d5 <__global_pointer+0x8599>
    1d14:	011586b3          	add	a3,a1,a7
    1d18:	7407a603          	lw	a2,1856(a5) # 4740 <VGA>
    1d1c:	00168f13          	addi	t5,a3,1
    1d20:	00268e93          	addi	t4,a3,2
    1d24:	00d60633          	add	a2,a2,a3
    1d28:	00e60023          	sb	a4,0(a2)
    1d2c:	7407a603          	lw	a2,1856(a5)
    1d30:	00368e13          	addi	t3,a3,3
    1d34:	00468393          	addi	t2,a3,4
    1d38:	01e60633          	add	a2,a2,t5
    1d3c:	00e60023          	sb	a4,0(a2)
    1d40:	7407a603          	lw	a2,1856(a5)
    1d44:	00568293          	addi	t0,a3,5
    1d48:	00668f93          	addi	t6,a3,6
    1d4c:	01d60633          	add	a2,a2,t4
    1d50:	00e60023          	sb	a4,0(a2)
    1d54:	7407a603          	lw	a2,1856(a5)
    1d58:	00768f13          	addi	t5,a3,7
    1d5c:	00868e93          	addi	t4,a3,8
    1d60:	01c60633          	add	a2,a2,t3
    1d64:	00e60023          	sb	a4,0(a2)
    1d68:	7407a603          	lw	a2,1856(a5)
    1d6c:	00968e13          	addi	t3,a3,9
    1d70:	14068693          	addi	a3,a3,320
    1d74:	00760633          	add	a2,a2,t2
    1d78:	00e60023          	sb	a4,0(a2)
    1d7c:	7407a603          	lw	a2,1856(a5)
    1d80:	00560633          	add	a2,a2,t0
    1d84:	00e60023          	sb	a4,0(a2)
    1d88:	7407a603          	lw	a2,1856(a5)
    1d8c:	01f60633          	add	a2,a2,t6
    1d90:	00e60023          	sb	a4,0(a2)
    1d94:	7407a603          	lw	a2,1856(a5)
    1d98:	01e60633          	add	a2,a2,t5
    1d9c:	00e60023          	sb	a4,0(a2)
    1da0:	7407a603          	lw	a2,1856(a5)
    1da4:	01d60633          	add	a2,a2,t4
    1da8:	00e60023          	sb	a4,0(a2)
    1dac:	7407a603          	lw	a2,1856(a5)
    1db0:	01c60633          	add	a2,a2,t3
    1db4:	00e60023          	sb	a4,0(a2)
    1db8:	f6d510e3          	bne	a0,a3,1d18 <draw_O+0x3c>
    1dbc:	006586b3          	add	a3,a1,t1
    1dc0:	7407a603          	lw	a2,1856(a5)
    1dc4:	00168f13          	addi	t5,a3,1
    1dc8:	00268e93          	addi	t4,a3,2
    1dcc:	00d60633          	add	a2,a2,a3
    1dd0:	00e60023          	sb	a4,0(a2)
    1dd4:	7407a603          	lw	a2,1856(a5)
    1dd8:	00368e13          	addi	t3,a3,3
    1ddc:	00468393          	addi	t2,a3,4
    1de0:	01e60633          	add	a2,a2,t5
    1de4:	00e60023          	sb	a4,0(a2)
    1de8:	7407a603          	lw	a2,1856(a5)
    1dec:	00568293          	addi	t0,a3,5
    1df0:	00668f93          	addi	t6,a3,6
    1df4:	01d60633          	add	a2,a2,t4
    1df8:	00e60023          	sb	a4,0(a2)
    1dfc:	7407a603          	lw	a2,1856(a5)
    1e00:	00768f13          	addi	t5,a3,7
    1e04:	00868e93          	addi	t4,a3,8
    1e08:	01c60633          	add	a2,a2,t3
    1e0c:	00e60023          	sb	a4,0(a2)
    1e10:	7407a603          	lw	a2,1856(a5)
    1e14:	00968e13          	addi	t3,a3,9
    1e18:	14068693          	addi	a3,a3,320
    1e1c:	00760633          	add	a2,a2,t2
    1e20:	00e60023          	sb	a4,0(a2)
    1e24:	7407a603          	lw	a2,1856(a5)
    1e28:	00560633          	add	a2,a2,t0
    1e2c:	00e60023          	sb	a4,0(a2)
    1e30:	7407a603          	lw	a2,1856(a5)
    1e34:	01f60633          	add	a2,a2,t6
    1e38:	00e60023          	sb	a4,0(a2)
    1e3c:	7407a603          	lw	a2,1856(a5)
    1e40:	01e60633          	add	a2,a2,t5
    1e44:	00e60023          	sb	a4,0(a2)
    1e48:	7407a603          	lw	a2,1856(a5)
    1e4c:	01d60633          	add	a2,a2,t4
    1e50:	00e60023          	sb	a4,0(a2)
    1e54:	7407a603          	lw	a2,1856(a5)
    1e58:	01c60633          	add	a2,a2,t3
    1e5c:	00e60023          	sb	a4,0(a2)
    1e60:	f6d590e3          	bne	a1,a3,1dc0 <draw_O+0xe4>
    1e64:	00a58593          	addi	a1,a1,10
    1e68:	00a50513          	addi	a0,a0,10
    1e6c:	eb0594e3          	bne	a1,a6,1d14 <draw_O+0x38>
    1e70:	0000b537          	lui	a0,0xb
    1e74:	0000b5b7          	lui	a1,0xb
    1e78:	fffff337          	lui	t1,0xfffff
    1e7c:	fffffe37          	lui	t3,0xfffff
    1e80:	00001837          	lui	a6,0x1
    1e84:	0000d8b7          	lui	a7,0xd
    1e88:	f2d50513          	addi	a0,a0,-211 # af2d <__global_pointer+0x5ff1>
    1e8c:	f5558593          	addi	a1,a1,-171 # af55 <__global_pointer+0x6019>
    1e90:	35830313          	addi	t1,t1,856 # fffff358 <_stack_end+0xffefa830>
    1e94:	fe000713          	li	a4,-32
    1e98:	380e0e13          	addi	t3,t3,896 # fffff380 <_stack_end+0xffefa858>
    1e9c:	c8080813          	addi	a6,a6,-896 # c80 <draw_G+0x184>
    1ea0:	4d588893          	addi	a7,a7,1237 # d4d5 <__global_pointer+0x8599>
    1ea4:	006586b3          	add	a3,a1,t1
    1ea8:	7407a603          	lw	a2,1856(a5)
    1eac:	00168f93          	addi	t6,a3,1
    1eb0:	00268f13          	addi	t5,a3,2
    1eb4:	00d60633          	add	a2,a2,a3
    1eb8:	00e60023          	sb	a4,0(a2)
    1ebc:	7407a603          	lw	a2,1856(a5)
    1ec0:	00368e93          	addi	t4,a3,3
    1ec4:	00468413          	addi	s0,a3,4
    1ec8:	01f60633          	add	a2,a2,t6
    1ecc:	00e60023          	sb	a4,0(a2)
    1ed0:	7407a603          	lw	a2,1856(a5)
    1ed4:	00568393          	addi	t2,a3,5
    1ed8:	00668293          	addi	t0,a3,6
    1edc:	01e60633          	add	a2,a2,t5
    1ee0:	00e60023          	sb	a4,0(a2)
    1ee4:	7407a603          	lw	a2,1856(a5)
    1ee8:	00768f93          	addi	t6,a3,7
    1eec:	00868f13          	addi	t5,a3,8
    1ef0:	01d60633          	add	a2,a2,t4
    1ef4:	00e60023          	sb	a4,0(a2)
    1ef8:	7407a603          	lw	a2,1856(a5)
    1efc:	00968e93          	addi	t4,a3,9
    1f00:	14068693          	addi	a3,a3,320
    1f04:	00860633          	add	a2,a2,s0
    1f08:	00e60023          	sb	a4,0(a2)
    1f0c:	7407a603          	lw	a2,1856(a5)
    1f10:	00760633          	add	a2,a2,t2
    1f14:	00e60023          	sb	a4,0(a2)
    1f18:	7407a603          	lw	a2,1856(a5)
    1f1c:	00560633          	add	a2,a2,t0
    1f20:	00e60023          	sb	a4,0(a2)
    1f24:	7407a603          	lw	a2,1856(a5)
    1f28:	01f60633          	add	a2,a2,t6
    1f2c:	00e60023          	sb	a4,0(a2)
    1f30:	7407a603          	lw	a2,1856(a5)
    1f34:	01e60633          	add	a2,a2,t5
    1f38:	00e60023          	sb	a4,0(a2)
    1f3c:	7407a603          	lw	a2,1856(a5)
    1f40:	01d60633          	add	a2,a2,t4
    1f44:	00e60023          	sb	a4,0(a2)
    1f48:	f6d510e3          	bne	a0,a3,1ea8 <draw_O+0x1cc>
    1f4c:	01c586b3          	add	a3,a1,t3
    1f50:	7407a603          	lw	a2,1856(a5)
    1f54:	00168f93          	addi	t6,a3,1
    1f58:	00268f13          	addi	t5,a3,2
    1f5c:	00d60633          	add	a2,a2,a3
    1f60:	00e60023          	sb	a4,0(a2)
    1f64:	7407a603          	lw	a2,1856(a5)
    1f68:	00368e93          	addi	t4,a3,3
    1f6c:	00468413          	addi	s0,a3,4
    1f70:	01f60633          	add	a2,a2,t6
    1f74:	00e60023          	sb	a4,0(a2)
    1f78:	7407a603          	lw	a2,1856(a5)
    1f7c:	00568393          	addi	t2,a3,5
    1f80:	00668293          	addi	t0,a3,6
    1f84:	01e60633          	add	a2,a2,t5
    1f88:	00e60023          	sb	a4,0(a2)
    1f8c:	7407a603          	lw	a2,1856(a5)
    1f90:	00768f93          	addi	t6,a3,7
    1f94:	00868f13          	addi	t5,a3,8
    1f98:	01d60633          	add	a2,a2,t4
    1f9c:	00e60023          	sb	a4,0(a2)
    1fa0:	7407a603          	lw	a2,1856(a5)
    1fa4:	00968e93          	addi	t4,a3,9
    1fa8:	14068693          	addi	a3,a3,320
    1fac:	00860633          	add	a2,a2,s0
    1fb0:	00e60023          	sb	a4,0(a2)
    1fb4:	7407a603          	lw	a2,1856(a5)
    1fb8:	00760633          	add	a2,a2,t2
    1fbc:	00e60023          	sb	a4,0(a2)
    1fc0:	7407a603          	lw	a2,1856(a5)
    1fc4:	00560633          	add	a2,a2,t0
    1fc8:	00e60023          	sb	a4,0(a2)
    1fcc:	7407a603          	lw	a2,1856(a5)
    1fd0:	01f60633          	add	a2,a2,t6
    1fd4:	00e60023          	sb	a4,0(a2)
    1fd8:	7407a603          	lw	a2,1856(a5)
    1fdc:	01e60633          	add	a2,a2,t5
    1fe0:	00e60023          	sb	a4,0(a2)
    1fe4:	7407a603          	lw	a2,1856(a5)
    1fe8:	01d60633          	add	a2,a2,t4
    1fec:	00e60023          	sb	a4,0(a2)
    1ff0:	f6d590e3          	bne	a1,a3,1f50 <draw_O+0x274>
    1ff4:	010585b3          	add	a1,a1,a6
    1ff8:	01050533          	add	a0,a0,a6
    1ffc:	eb1594e3          	bne	a1,a7,1ea4 <draw_O+0x1c8>
    2000:	00c12403          	lw	s0,12(sp)
    2004:	01010113          	addi	sp,sp,16
    2008:	00008067          	ret

0000200c <draw_V>:
    200c:	ff010113          	addi	sp,sp,-16
    2010:	0000a537          	lui	a0,0xa
    2014:	0000a5b7          	lui	a1,0xa
    2018:	fffff337          	lui	t1,0xfffff
    201c:	fffffe37          	lui	t3,0xfffff
    2020:	00001837          	lui	a6,0x1
    2024:	0000d8b7          	lui	a7,0xd
    2028:	00812623          	sw	s0,12(sp)
    202c:	2e950513          	addi	a0,a0,745 # a2e9 <__global_pointer+0x53ad>
    2030:	31158593          	addi	a1,a1,785 # a311 <__global_pointer+0x53d5>
    2034:	00004737          	lui	a4,0x4
    2038:	35830313          	addi	t1,t1,856 # fffff358 <_stack_end+0xffefa830>
    203c:	fe000793          	li	a5,-32
    2040:	380e0e13          	addi	t3,t3,896 # fffff380 <_stack_end+0xffefa858>
    2044:	c8080813          	addi	a6,a6,-896 # c80 <draw_G+0x184>
    2048:	89188893          	addi	a7,a7,-1903 # c891 <__global_pointer+0x7955>
    204c:	006586b3          	add	a3,a1,t1
    2050:	74072603          	lw	a2,1856(a4) # 4740 <VGA>
    2054:	00168f93          	addi	t6,a3,1
    2058:	00268f13          	addi	t5,a3,2
    205c:	00d60633          	add	a2,a2,a3
    2060:	00f60023          	sb	a5,0(a2)
    2064:	74072603          	lw	a2,1856(a4)
    2068:	00368e93          	addi	t4,a3,3
    206c:	00468413          	addi	s0,a3,4
    2070:	01f60633          	add	a2,a2,t6
    2074:	00f60023          	sb	a5,0(a2)
    2078:	74072603          	lw	a2,1856(a4)
    207c:	00568393          	addi	t2,a3,5
    2080:	00668293          	addi	t0,a3,6
    2084:	01e60633          	add	a2,a2,t5
    2088:	00f60023          	sb	a5,0(a2)
    208c:	74072603          	lw	a2,1856(a4)
    2090:	00768f93          	addi	t6,a3,7
    2094:	00868f13          	addi	t5,a3,8
    2098:	01d60633          	add	a2,a2,t4
    209c:	00f60023          	sb	a5,0(a2)
    20a0:	74072603          	lw	a2,1856(a4)
    20a4:	00968e93          	addi	t4,a3,9
    20a8:	14068693          	addi	a3,a3,320
    20ac:	00860633          	add	a2,a2,s0
    20b0:	00f60023          	sb	a5,0(a2)
    20b4:	74072603          	lw	a2,1856(a4)
    20b8:	00760633          	add	a2,a2,t2
    20bc:	00f60023          	sb	a5,0(a2)
    20c0:	74072603          	lw	a2,1856(a4)
    20c4:	00560633          	add	a2,a2,t0
    20c8:	00f60023          	sb	a5,0(a2)
    20cc:	74072603          	lw	a2,1856(a4)
    20d0:	01f60633          	add	a2,a2,t6
    20d4:	00f60023          	sb	a5,0(a2)
    20d8:	74072603          	lw	a2,1856(a4)
    20dc:	01e60633          	add	a2,a2,t5
    20e0:	00f60023          	sb	a5,0(a2)
    20e4:	74072603          	lw	a2,1856(a4)
    20e8:	01d60633          	add	a2,a2,t4
    20ec:	00f60023          	sb	a5,0(a2)
    20f0:	f6a690e3          	bne	a3,a0,2050 <draw_V+0x44>
    20f4:	01c586b3          	add	a3,a1,t3
    20f8:	74072603          	lw	a2,1856(a4)
    20fc:	00168f93          	addi	t6,a3,1
    2100:	00268f13          	addi	t5,a3,2
    2104:	00d60633          	add	a2,a2,a3
    2108:	00f60023          	sb	a5,0(a2)
    210c:	74072603          	lw	a2,1856(a4)
    2110:	00368e93          	addi	t4,a3,3
    2114:	00468413          	addi	s0,a3,4
    2118:	01f60633          	add	a2,a2,t6
    211c:	00f60023          	sb	a5,0(a2)
    2120:	74072603          	lw	a2,1856(a4)
    2124:	00568393          	addi	t2,a3,5
    2128:	00668293          	addi	t0,a3,6
    212c:	01e60633          	add	a2,a2,t5
    2130:	00f60023          	sb	a5,0(a2)
    2134:	74072603          	lw	a2,1856(a4)
    2138:	00768f93          	addi	t6,a3,7
    213c:	00868f13          	addi	t5,a3,8
    2140:	01d60633          	add	a2,a2,t4
    2144:	00f60023          	sb	a5,0(a2)
    2148:	74072603          	lw	a2,1856(a4)
    214c:	00968e93          	addi	t4,a3,9
    2150:	14068693          	addi	a3,a3,320
    2154:	00860633          	add	a2,a2,s0
    2158:	00f60023          	sb	a5,0(a2)
    215c:	74072603          	lw	a2,1856(a4)
    2160:	00760633          	add	a2,a2,t2
    2164:	00f60023          	sb	a5,0(a2)
    2168:	74072603          	lw	a2,1856(a4)
    216c:	00560633          	add	a2,a2,t0
    2170:	00f60023          	sb	a5,0(a2)
    2174:	74072603          	lw	a2,1856(a4)
    2178:	01f60633          	add	a2,a2,t6
    217c:	00f60023          	sb	a5,0(a2)
    2180:	74072603          	lw	a2,1856(a4)
    2184:	01e60633          	add	a2,a2,t5
    2188:	00f60023          	sb	a5,0(a2)
    218c:	74072603          	lw	a2,1856(a4)
    2190:	01d60633          	add	a2,a2,t4
    2194:	00f60023          	sb	a5,0(a2)
    2198:	f6b690e3          	bne	a3,a1,20f8 <draw_V+0xec>
    219c:	010685b3          	add	a1,a3,a6
    21a0:	01050533          	add	a0,a0,a6
    21a4:	eb1594e3          	bne	a1,a7,204c <draw_V+0x40>
    21a8:	74072683          	lw	a3,1856(a4)
    21ac:	0000c737          	lui	a4,0xc
    21b0:	0000d5b7          	lui	a1,0xd
    21b4:	00e68733          	add	a4,a3,a4
    21b8:	bef709a3          	sb	a5,-1037(a4) # bbf3 <__global_pointer+0x6cb7>
    21bc:	bef70a23          	sb	a5,-1036(a4)
    21c0:	bef70aa3          	sb	a5,-1035(a4)
    21c4:	bef70b23          	sb	a5,-1034(a4)
    21c8:	bef70ba3          	sb	a5,-1033(a4)
    21cc:	bef70c23          	sb	a5,-1032(a4)
    21d0:	bef70ca3          	sb	a5,-1031(a4)
    21d4:	bef70d23          	sb	a5,-1030(a4)
    21d8:	bef70da3          	sb	a5,-1029(a4)
    21dc:	bef70e23          	sb	a5,-1028(a4)
    21e0:	d2f709a3          	sb	a5,-717(a4)
    21e4:	d2f70a23          	sb	a5,-716(a4)
    21e8:	d2f70aa3          	sb	a5,-715(a4)
    21ec:	d2f70b23          	sb	a5,-714(a4)
    21f0:	d2f70ba3          	sb	a5,-713(a4)
    21f4:	d2f70c23          	sb	a5,-712(a4)
    21f8:	d2f70ca3          	sb	a5,-711(a4)
    21fc:	d2f70d23          	sb	a5,-710(a4)
    2200:	d2f70da3          	sb	a5,-709(a4)
    2204:	d2f70e23          	sb	a5,-708(a4)
    2208:	e6f709a3          	sb	a5,-397(a4)
    220c:	e6f70a23          	sb	a5,-396(a4)
    2210:	e6f70aa3          	sb	a5,-395(a4)
    2214:	e6f70b23          	sb	a5,-394(a4)
    2218:	e6f70ba3          	sb	a5,-393(a4)
    221c:	e6f70c23          	sb	a5,-392(a4)
    2220:	e6f70ca3          	sb	a5,-391(a4)
    2224:	e6f70d23          	sb	a5,-390(a4)
    2228:	e6f70da3          	sb	a5,-389(a4)
    222c:	e6f70e23          	sb	a5,-388(a4)
    2230:	faf709a3          	sb	a5,-77(a4)
    2234:	faf70a23          	sb	a5,-76(a4)
    2238:	faf70aa3          	sb	a5,-75(a4)
    223c:	faf70b23          	sb	a5,-74(a4)
    2240:	faf70ba3          	sb	a5,-73(a4)
    2244:	faf70c23          	sb	a5,-72(a4)
    2248:	faf70ca3          	sb	a5,-71(a4)
    224c:	faf70d23          	sb	a5,-70(a4)
    2250:	faf70da3          	sb	a5,-69(a4)
    2254:	faf70e23          	sb	a5,-68(a4)
    2258:	0ef709a3          	sb	a5,243(a4)
    225c:	0ef70a23          	sb	a5,244(a4)
    2260:	0ef70aa3          	sb	a5,245(a4)
    2264:	0ef70b23          	sb	a5,246(a4)
    2268:	0ef70ba3          	sb	a5,247(a4)
    226c:	0ef70c23          	sb	a5,248(a4)
    2270:	0ef70ca3          	sb	a5,249(a4)
    2274:	0ef70d23          	sb	a5,250(a4)
    2278:	0ef70da3          	sb	a5,251(a4)
    227c:	0ef70e23          	sb	a5,252(a4)
    2280:	22f709a3          	sb	a5,563(a4)
    2284:	22f70a23          	sb	a5,564(a4)
    2288:	22f70aa3          	sb	a5,565(a4)
    228c:	22f70b23          	sb	a5,566(a4)
    2290:	22f70ba3          	sb	a5,567(a4)
    2294:	22f70c23          	sb	a5,568(a4)
    2298:	22f70ca3          	sb	a5,569(a4)
    229c:	22f70d23          	sb	a5,570(a4)
    22a0:	22f70da3          	sb	a5,571(a4)
    22a4:	22f70e23          	sb	a5,572(a4)
    22a8:	36f709a3          	sb	a5,883(a4)
    22ac:	36f70a23          	sb	a5,884(a4)
    22b0:	36f70aa3          	sb	a5,885(a4)
    22b4:	36f70b23          	sb	a5,886(a4)
    22b8:	36f70ba3          	sb	a5,887(a4)
    22bc:	36f70c23          	sb	a5,888(a4)
    22c0:	36f70ca3          	sb	a5,889(a4)
    22c4:	36f70d23          	sb	a5,890(a4)
    22c8:	36f70da3          	sb	a5,891(a4)
    22cc:	36f70e23          	sb	a5,892(a4)
    22d0:	4af709a3          	sb	a5,1203(a4)
    22d4:	4af70a23          	sb	a5,1204(a4)
    22d8:	4af70aa3          	sb	a5,1205(a4)
    22dc:	4af70b23          	sb	a5,1206(a4)
    22e0:	4af70ba3          	sb	a5,1207(a4)
    22e4:	4af70c23          	sb	a5,1208(a4)
    22e8:	4af70ca3          	sb	a5,1209(a4)
    22ec:	4af70d23          	sb	a5,1210(a4)
    22f0:	4af70da3          	sb	a5,1211(a4)
    22f4:	4af70e23          	sb	a5,1212(a4)
    22f8:	5ef709a3          	sb	a5,1523(a4)
    22fc:	5ef70a23          	sb	a5,1524(a4)
    2300:	5ef70aa3          	sb	a5,1525(a4)
    2304:	5ef70b23          	sb	a5,1526(a4)
    2308:	5ef70ba3          	sb	a5,1527(a4)
    230c:	5ef70c23          	sb	a5,1528(a4)
    2310:	5ef70ca3          	sb	a5,1529(a4)
    2314:	5ef70d23          	sb	a5,1530(a4)
    2318:	5ef70da3          	sb	a5,1531(a4)
    231c:	5ef70e23          	sb	a5,1532(a4)
    2320:	72f709a3          	sb	a5,1843(a4)
    2324:	72f70a23          	sb	a5,1844(a4)
    2328:	72f70aa3          	sb	a5,1845(a4)
    232c:	72f70b23          	sb	a5,1846(a4)
    2330:	72f70ba3          	sb	a5,1847(a4)
    2334:	72f70c23          	sb	a5,1848(a4)
    2338:	72f70ca3          	sb	a5,1849(a4)
    233c:	72f70d23          	sb	a5,1850(a4)
    2340:	72f70da3          	sb	a5,1851(a4)
    2344:	72f70e23          	sb	a5,1852(a4)
    2348:	c0f703a3          	sb	a5,-1017(a4)
    234c:	c0f70423          	sb	a5,-1016(a4)
    2350:	c0f704a3          	sb	a5,-1015(a4)
    2354:	c0f70523          	sb	a5,-1014(a4)
    2358:	c0f705a3          	sb	a5,-1013(a4)
    235c:	c0f70623          	sb	a5,-1012(a4)
    2360:	c0f706a3          	sb	a5,-1011(a4)
    2364:	c0f70723          	sb	a5,-1010(a4)
    2368:	c0f707a3          	sb	a5,-1009(a4)
    236c:	c0f70823          	sb	a5,-1008(a4)
    2370:	d4f703a3          	sb	a5,-697(a4)
    2374:	d4f70423          	sb	a5,-696(a4)
    2378:	d4f704a3          	sb	a5,-695(a4)
    237c:	d4f70523          	sb	a5,-694(a4)
    2380:	d4f705a3          	sb	a5,-693(a4)
    2384:	d4f70623          	sb	a5,-692(a4)
    2388:	d4f706a3          	sb	a5,-691(a4)
    238c:	d4f70723          	sb	a5,-690(a4)
    2390:	d4f707a3          	sb	a5,-689(a4)
    2394:	d4f70823          	sb	a5,-688(a4)
    2398:	e8f703a3          	sb	a5,-377(a4)
    239c:	e8f70423          	sb	a5,-376(a4)
    23a0:	e8f704a3          	sb	a5,-375(a4)
    23a4:	e8f70523          	sb	a5,-374(a4)
    23a8:	e8f705a3          	sb	a5,-373(a4)
    23ac:	e8f70623          	sb	a5,-372(a4)
    23b0:	e8f706a3          	sb	a5,-371(a4)
    23b4:	e8f70723          	sb	a5,-370(a4)
    23b8:	e8f707a3          	sb	a5,-369(a4)
    23bc:	e8f70823          	sb	a5,-368(a4)
    23c0:	fcf703a3          	sb	a5,-57(a4)
    23c4:	fcf70423          	sb	a5,-56(a4)
    23c8:	fcf704a3          	sb	a5,-55(a4)
    23cc:	fcf70523          	sb	a5,-54(a4)
    23d0:	fcf705a3          	sb	a5,-53(a4)
    23d4:	fcf70623          	sb	a5,-52(a4)
    23d8:	fcf706a3          	sb	a5,-51(a4)
    23dc:	fcf70723          	sb	a5,-50(a4)
    23e0:	fcf707a3          	sb	a5,-49(a4)
    23e4:	fcf70823          	sb	a5,-48(a4)
    23e8:	10f703a3          	sb	a5,263(a4)
    23ec:	10f70423          	sb	a5,264(a4)
    23f0:	10f704a3          	sb	a5,265(a4)
    23f4:	10f70523          	sb	a5,266(a4)
    23f8:	10f705a3          	sb	a5,267(a4)
    23fc:	10f70623          	sb	a5,268(a4)
    2400:	10f706a3          	sb	a5,269(a4)
    2404:	10f70723          	sb	a5,270(a4)
    2408:	10f707a3          	sb	a5,271(a4)
    240c:	10f70823          	sb	a5,272(a4)
    2410:	24f703a3          	sb	a5,583(a4)
    2414:	24f70423          	sb	a5,584(a4)
    2418:	24f704a3          	sb	a5,585(a4)
    241c:	24f70523          	sb	a5,586(a4)
    2420:	24f705a3          	sb	a5,587(a4)
    2424:	24f70623          	sb	a5,588(a4)
    2428:	24f706a3          	sb	a5,589(a4)
    242c:	24f70723          	sb	a5,590(a4)
    2430:	24f707a3          	sb	a5,591(a4)
    2434:	24f70823          	sb	a5,592(a4)
    2438:	38f703a3          	sb	a5,903(a4)
    243c:	38f70423          	sb	a5,904(a4)
    2440:	38f704a3          	sb	a5,905(a4)
    2444:	38f70523          	sb	a5,906(a4)
    2448:	38f705a3          	sb	a5,907(a4)
    244c:	38f70623          	sb	a5,908(a4)
    2450:	38f706a3          	sb	a5,909(a4)
    2454:	38f70723          	sb	a5,910(a4)
    2458:	38f707a3          	sb	a5,911(a4)
    245c:	38f70823          	sb	a5,912(a4)
    2460:	4cf703a3          	sb	a5,1223(a4)
    2464:	4cf70423          	sb	a5,1224(a4)
    2468:	4cf704a3          	sb	a5,1225(a4)
    246c:	4cf70523          	sb	a5,1226(a4)
    2470:	4cf705a3          	sb	a5,1227(a4)
    2474:	4cf70623          	sb	a5,1228(a4)
    2478:	4cf706a3          	sb	a5,1229(a4)
    247c:	4cf70723          	sb	a5,1230(a4)
    2480:	4cf707a3          	sb	a5,1231(a4)
    2484:	4cf70823          	sb	a5,1232(a4)
    2488:	60f703a3          	sb	a5,1543(a4)
    248c:	60f70423          	sb	a5,1544(a4)
    2490:	60f704a3          	sb	a5,1545(a4)
    2494:	60f70523          	sb	a5,1546(a4)
    2498:	60f705a3          	sb	a5,1547(a4)
    249c:	60f70623          	sb	a5,1548(a4)
    24a0:	60f706a3          	sb	a5,1549(a4)
    24a4:	60f70723          	sb	a5,1550(a4)
    24a8:	60f707a3          	sb	a5,1551(a4)
    24ac:	60f70823          	sb	a5,1552(a4)
    24b0:	74f703a3          	sb	a5,1863(a4)
    24b4:	74f70423          	sb	a5,1864(a4)
    24b8:	74f704a3          	sb	a5,1865(a4)
    24bc:	74f70523          	sb	a5,1866(a4)
    24c0:	74f705a3          	sb	a5,1867(a4)
    24c4:	74f70623          	sb	a5,1868(a4)
    24c8:	74f706a3          	sb	a5,1869(a4)
    24cc:	74f70723          	sb	a5,1870(a4)
    24d0:	74f707a3          	sb	a5,1871(a4)
    24d4:	00b686b3          	add	a3,a3,a1
    24d8:	74f70823          	sb	a5,1872(a4)
    24dc:	86f68ea3          	sb	a5,-1923(a3)
    24e0:	86f68f23          	sb	a5,-1922(a3)
    24e4:	86f68fa3          	sb	a5,-1921(a3)
    24e8:	88f68023          	sb	a5,-1920(a3)
    24ec:	88f680a3          	sb	a5,-1919(a3)
    24f0:	88f68123          	sb	a5,-1918(a3)
    24f4:	88f681a3          	sb	a5,-1917(a3)
    24f8:	88f68223          	sb	a5,-1916(a3)
    24fc:	88f682a3          	sb	a5,-1915(a3)
    2500:	88f68323          	sb	a5,-1914(a3)
    2504:	9af68ea3          	sb	a5,-1603(a3)
    2508:	9af68f23          	sb	a5,-1602(a3)
    250c:	9af68fa3          	sb	a5,-1601(a3)
    2510:	9cf68023          	sb	a5,-1600(a3)
    2514:	9cf680a3          	sb	a5,-1599(a3)
    2518:	9cf68123          	sb	a5,-1598(a3)
    251c:	9cf681a3          	sb	a5,-1597(a3)
    2520:	9cf68223          	sb	a5,-1596(a3)
    2524:	9cf682a3          	sb	a5,-1595(a3)
    2528:	9cf68323          	sb	a5,-1594(a3)
    252c:	aef68ea3          	sb	a5,-1283(a3)
    2530:	aef68f23          	sb	a5,-1282(a3)
    2534:	aef68fa3          	sb	a5,-1281(a3)
    2538:	b0f68023          	sb	a5,-1280(a3)
    253c:	b0f680a3          	sb	a5,-1279(a3)
    2540:	b0f68123          	sb	a5,-1278(a3)
    2544:	b0f681a3          	sb	a5,-1277(a3)
    2548:	b0f68223          	sb	a5,-1276(a3)
    254c:	b0f682a3          	sb	a5,-1275(a3)
    2550:	b0f68323          	sb	a5,-1274(a3)
    2554:	c2f68ea3          	sb	a5,-963(a3)
    2558:	fe000613          	li	a2,-32
    255c:	c2f68f23          	sb	a5,-962(a3)
    2560:	c2c68fa3          	sb	a2,-961(a3)
    2564:	c4c68023          	sb	a2,-960(a3)
    2568:	c4c680a3          	sb	a2,-959(a3)
    256c:	c4c68123          	sb	a2,-958(a3)
    2570:	c4c681a3          	sb	a2,-957(a3)
    2574:	c4c68223          	sb	a2,-956(a3)
    2578:	c4c682a3          	sb	a2,-955(a3)
    257c:	c4c68323          	sb	a2,-954(a3)
    2580:	d6c68ea3          	sb	a2,-643(a3)
    2584:	d6c68f23          	sb	a2,-642(a3)
    2588:	d6c68fa3          	sb	a2,-641(a3)
    258c:	d8c68023          	sb	a2,-640(a3)
    2590:	d8c680a3          	sb	a2,-639(a3)
    2594:	d8c68123          	sb	a2,-638(a3)
    2598:	d8c681a3          	sb	a2,-637(a3)
    259c:	d8c68223          	sb	a2,-636(a3)
    25a0:	d8c682a3          	sb	a2,-635(a3)
    25a4:	d8c68323          	sb	a2,-634(a3)
    25a8:	eac68ea3          	sb	a2,-323(a3)
    25ac:	eac68f23          	sb	a2,-322(a3)
    25b0:	eac68fa3          	sb	a2,-321(a3)
    25b4:	ecc68023          	sb	a2,-320(a3)
    25b8:	ecc680a3          	sb	a2,-319(a3)
    25bc:	ecc68123          	sb	a2,-318(a3)
    25c0:	ecc681a3          	sb	a2,-317(a3)
    25c4:	ecc68223          	sb	a2,-316(a3)
    25c8:	ecc682a3          	sb	a2,-315(a3)
    25cc:	ecc68323          	sb	a2,-314(a3)
    25d0:	fec68ea3          	sb	a2,-3(a3)
    25d4:	fec68f23          	sb	a2,-2(a3)
    25d8:	fec68fa3          	sb	a2,-1(a3)
    25dc:	00c68023          	sb	a2,0(a3)
    25e0:	00c680a3          	sb	a2,1(a3)
    25e4:	00c68123          	sb	a2,2(a3)
    25e8:	00c681a3          	sb	a2,3(a3)
    25ec:	00c68223          	sb	a2,4(a3)
    25f0:	00c682a3          	sb	a2,5(a3)
    25f4:	00c68323          	sb	a2,6(a3)
    25f8:	12c68ea3          	sb	a2,317(a3)
    25fc:	12c68f23          	sb	a2,318(a3)
    2600:	12c68fa3          	sb	a2,319(a3)
    2604:	14c68023          	sb	a2,320(a3)
    2608:	14c680a3          	sb	a2,321(a3)
    260c:	14c68123          	sb	a2,322(a3)
    2610:	14c681a3          	sb	a2,323(a3)
    2614:	14c68223          	sb	a2,324(a3)
    2618:	14c682a3          	sb	a2,325(a3)
    261c:	14c68323          	sb	a2,326(a3)
    2620:	26c68ea3          	sb	a2,637(a3)
    2624:	26c68f23          	sb	a2,638(a3)
    2628:	26c68fa3          	sb	a2,639(a3)
    262c:	28c68023          	sb	a2,640(a3)
    2630:	28c680a3          	sb	a2,641(a3)
    2634:	28c68123          	sb	a2,642(a3)
    2638:	28c681a3          	sb	a2,643(a3)
    263c:	28c68223          	sb	a2,644(a3)
    2640:	28c682a3          	sb	a2,645(a3)
    2644:	28c68323          	sb	a2,646(a3)
    2648:	3ac68ea3          	sb	a2,957(a3)
    264c:	3ac68f23          	sb	a2,958(a3)
    2650:	3ac68fa3          	sb	a2,959(a3)
    2654:	3cc68023          	sb	a2,960(a3)
    2658:	3cc680a3          	sb	a2,961(a3)
    265c:	3cc68123          	sb	a2,962(a3)
    2660:	3cc681a3          	sb	a2,963(a3)
    2664:	3cc68223          	sb	a2,964(a3)
    2668:	3cc682a3          	sb	a2,965(a3)
    266c:	3cc68323          	sb	a2,966(a3)
    2670:	00c12403          	lw	s0,12(sp)
    2674:	01010113          	addi	sp,sp,16
    2678:	00008067          	ret

0000267c <draw_R>:
    267c:	0000a5b7          	lui	a1,0xa
    2680:	fffff8b7          	lui	a7,0xfffff
    2684:	00001837          	lui	a6,0x1
    2688:	0000e537          	lui	a0,0xe
    268c:	36158593          	addi	a1,a1,865 # a361 <__global_pointer+0x5425>
    2690:	000047b7          	lui	a5,0x4
    2694:	38088893          	addi	a7,a7,896 # fffff380 <_stack_end+0xffefa858>
    2698:	fe000693          	li	a3,-32
    269c:	c8080813          	addi	a6,a6,-896 # c80 <draw_G+0x184>
    26a0:	1e150513          	addi	a0,a0,481 # e1e1 <__global_pointer+0x92a5>
    26a4:	01158733          	add	a4,a1,a7
    26a8:	7407a603          	lw	a2,1856(a5) # 4740 <VGA>
    26ac:	00170e93          	addi	t4,a4,1
    26b0:	00270e13          	addi	t3,a4,2
    26b4:	00e60633          	add	a2,a2,a4
    26b8:	00d60023          	sb	a3,0(a2)
    26bc:	7407a603          	lw	a2,1856(a5)
    26c0:	00370313          	addi	t1,a4,3
    26c4:	00470293          	addi	t0,a4,4
    26c8:	01d60633          	add	a2,a2,t4
    26cc:	00d60023          	sb	a3,0(a2)
    26d0:	7407a603          	lw	a2,1856(a5)
    26d4:	00570f93          	addi	t6,a4,5
    26d8:	00670f13          	addi	t5,a4,6
    26dc:	01c60633          	add	a2,a2,t3
    26e0:	00d60023          	sb	a3,0(a2)
    26e4:	7407a603          	lw	a2,1856(a5)
    26e8:	00770e93          	addi	t4,a4,7
    26ec:	00870e13          	addi	t3,a4,8
    26f0:	00660633          	add	a2,a2,t1
    26f4:	00d60023          	sb	a3,0(a2)
    26f8:	7407a603          	lw	a2,1856(a5)
    26fc:	00970313          	addi	t1,a4,9
    2700:	14070713          	addi	a4,a4,320
    2704:	00560633          	add	a2,a2,t0
    2708:	00d60023          	sb	a3,0(a2)
    270c:	7407a603          	lw	a2,1856(a5)
    2710:	01f60633          	add	a2,a2,t6
    2714:	00d60023          	sb	a3,0(a2)
    2718:	7407a603          	lw	a2,1856(a5)
    271c:	01e60633          	add	a2,a2,t5
    2720:	00d60023          	sb	a3,0(a2)
    2724:	7407a603          	lw	a2,1856(a5)
    2728:	01d60633          	add	a2,a2,t4
    272c:	00d60023          	sb	a3,0(a2)
    2730:	7407a603          	lw	a2,1856(a5)
    2734:	01c60633          	add	a2,a2,t3
    2738:	00d60023          	sb	a3,0(a2)
    273c:	7407a603          	lw	a2,1856(a5)
    2740:	00660633          	add	a2,a2,t1
    2744:	00d60023          	sb	a3,0(a2)
    2748:	f6b710e3          	bne	a4,a1,26a8 <draw_R+0x2c>
    274c:	010705b3          	add	a1,a4,a6
    2750:	f4a59ae3          	bne	a1,a0,26a4 <draw_R+0x28>
    2754:	0000a537          	lui	a0,0xa
    2758:	0000c5b7          	lui	a1,0xc
    275c:	ffffe8b7          	lui	a7,0xffffe
    2760:	fffff337          	lui	t1,0xfffff
    2764:	0000c837          	lui	a6,0xc
    2768:	36b50513          	addi	a0,a0,875 # a36b <__global_pointer+0x542f>
    276c:	c6b58593          	addi	a1,a1,-917 # bc6b <__global_pointer+0x6d2f>
    2770:	a8088893          	addi	a7,a7,-1408 # ffffda80 <_stack_end+0xffef8f58>
    2774:	fe000713          	li	a4,-32
    2778:	38030313          	addi	t1,t1,896 # fffff380 <_stack_end+0xffefa858>
    277c:	c9380813          	addi	a6,a6,-877 # bc93 <__global_pointer+0x6d57>
    2780:	011586b3          	add	a3,a1,a7
    2784:	7407a603          	lw	a2,1856(a5)
    2788:	00168f13          	addi	t5,a3,1
    278c:	00268e93          	addi	t4,a3,2
    2790:	00d60633          	add	a2,a2,a3
    2794:	00e60023          	sb	a4,0(a2)
    2798:	7407a603          	lw	a2,1856(a5)
    279c:	00368e13          	addi	t3,a3,3
    27a0:	00468393          	addi	t2,a3,4
    27a4:	01e60633          	add	a2,a2,t5
    27a8:	00e60023          	sb	a4,0(a2)
    27ac:	7407a603          	lw	a2,1856(a5)
    27b0:	00568293          	addi	t0,a3,5
    27b4:	00668f93          	addi	t6,a3,6
    27b8:	01d60633          	add	a2,a2,t4
    27bc:	00e60023          	sb	a4,0(a2)
    27c0:	7407a603          	lw	a2,1856(a5)
    27c4:	00768f13          	addi	t5,a3,7
    27c8:	00868e93          	addi	t4,a3,8
    27cc:	01c60633          	add	a2,a2,t3
    27d0:	00e60023          	sb	a4,0(a2)
    27d4:	7407a603          	lw	a2,1856(a5)
    27d8:	00968e13          	addi	t3,a3,9
    27dc:	14068693          	addi	a3,a3,320
    27e0:	00760633          	add	a2,a2,t2
    27e4:	00e60023          	sb	a4,0(a2)
    27e8:	7407a603          	lw	a2,1856(a5)
    27ec:	00560633          	add	a2,a2,t0
    27f0:	00e60023          	sb	a4,0(a2)
    27f4:	7407a603          	lw	a2,1856(a5)
    27f8:	01f60633          	add	a2,a2,t6
    27fc:	00e60023          	sb	a4,0(a2)
    2800:	7407a603          	lw	a2,1856(a5)
    2804:	01e60633          	add	a2,a2,t5
    2808:	00e60023          	sb	a4,0(a2)
    280c:	7407a603          	lw	a2,1856(a5)
    2810:	01d60633          	add	a2,a2,t4
    2814:	00e60023          	sb	a4,0(a2)
    2818:	7407a603          	lw	a2,1856(a5)
    281c:	01c60633          	add	a2,a2,t3
    2820:	00e60023          	sb	a4,0(a2)
    2824:	f6a690e3          	bne	a3,a0,2784 <draw_R+0x108>
    2828:	006586b3          	add	a3,a1,t1
    282c:	7407a603          	lw	a2,1856(a5)
    2830:	00168f13          	addi	t5,a3,1
    2834:	00268e93          	addi	t4,a3,2
    2838:	00d60633          	add	a2,a2,a3
    283c:	00e60023          	sb	a4,0(a2)
    2840:	7407a603          	lw	a2,1856(a5)
    2844:	00368e13          	addi	t3,a3,3
    2848:	00468393          	addi	t2,a3,4
    284c:	01e60633          	add	a2,a2,t5
    2850:	00e60023          	sb	a4,0(a2)
    2854:	7407a603          	lw	a2,1856(a5)
    2858:	00568293          	addi	t0,a3,5
    285c:	00668f93          	addi	t6,a3,6
    2860:	01d60633          	add	a2,a2,t4
    2864:	00e60023          	sb	a4,0(a2)
    2868:	7407a603          	lw	a2,1856(a5)
    286c:	00768f13          	addi	t5,a3,7
    2870:	00868e93          	addi	t4,a3,8
    2874:	01c60633          	add	a2,a2,t3
    2878:	00e60023          	sb	a4,0(a2)
    287c:	7407a603          	lw	a2,1856(a5)
    2880:	00968e13          	addi	t3,a3,9
    2884:	14068693          	addi	a3,a3,320
    2888:	00760633          	add	a2,a2,t2
    288c:	00e60023          	sb	a4,0(a2)
    2890:	7407a603          	lw	a2,1856(a5)
    2894:	00560633          	add	a2,a2,t0
    2898:	00e60023          	sb	a4,0(a2)
    289c:	7407a603          	lw	a2,1856(a5)
    28a0:	01f60633          	add	a2,a2,t6
    28a4:	00e60023          	sb	a4,0(a2)
    28a8:	7407a603          	lw	a2,1856(a5)
    28ac:	01e60633          	add	a2,a2,t5
    28b0:	00e60023          	sb	a4,0(a2)
    28b4:	7407a603          	lw	a2,1856(a5)
    28b8:	01d60633          	add	a2,a2,t4
    28bc:	00e60023          	sb	a4,0(a2)
    28c0:	7407a603          	lw	a2,1856(a5)
    28c4:	01c60633          	add	a2,a2,t3
    28c8:	00e60023          	sb	a4,0(a2)
    28cc:	f6b690e3          	bne	a3,a1,282c <draw_R+0x1b0>
    28d0:	00a68593          	addi	a1,a3,10
    28d4:	00a50513          	addi	a0,a0,10
    28d8:	eb0594e3          	bne	a1,a6,2780 <draw_R+0x104>
    28dc:	7407a783          	lw	a5,1856(a5)
    28e0:	0000a6b7          	lui	a3,0xa
    28e4:	0000b637          	lui	a2,0xb
    28e8:	00d786b3          	add	a3,a5,a3
    28ec:	38e684a3          	sb	a4,905(a3) # a389 <__global_pointer+0x544d>
    28f0:	38e68523          	sb	a4,906(a3)
    28f4:	38e685a3          	sb	a4,907(a3)
    28f8:	38e68623          	sb	a4,908(a3)
    28fc:	38e686a3          	sb	a4,909(a3)
    2900:	38e68723          	sb	a4,910(a3)
    2904:	38e687a3          	sb	a4,911(a3)
    2908:	38e68823          	sb	a4,912(a3)
    290c:	38e688a3          	sb	a4,913(a3)
    2910:	38e68923          	sb	a4,914(a3)
    2914:	4ce684a3          	sb	a4,1225(a3)
    2918:	4ce68523          	sb	a4,1226(a3)
    291c:	4ce685a3          	sb	a4,1227(a3)
    2920:	4ce68623          	sb	a4,1228(a3)
    2924:	4ce686a3          	sb	a4,1229(a3)
    2928:	4ce68723          	sb	a4,1230(a3)
    292c:	4ce687a3          	sb	a4,1231(a3)
    2930:	4ce68823          	sb	a4,1232(a3)
    2934:	4ce688a3          	sb	a4,1233(a3)
    2938:	4ce68923          	sb	a4,1234(a3)
    293c:	60e684a3          	sb	a4,1545(a3)
    2940:	60e68523          	sb	a4,1546(a3)
    2944:	60e685a3          	sb	a4,1547(a3)
    2948:	60e68623          	sb	a4,1548(a3)
    294c:	60e686a3          	sb	a4,1549(a3)
    2950:	60e68723          	sb	a4,1550(a3)
    2954:	60e687a3          	sb	a4,1551(a3)
    2958:	60e68823          	sb	a4,1552(a3)
    295c:	60e688a3          	sb	a4,1553(a3)
    2960:	60e68923          	sb	a4,1554(a3)
    2964:	74e684a3          	sb	a4,1865(a3)
    2968:	74e68523          	sb	a4,1866(a3)
    296c:	74e685a3          	sb	a4,1867(a3)
    2970:	74e68623          	sb	a4,1868(a3)
    2974:	74e686a3          	sb	a4,1869(a3)
    2978:	74e68723          	sb	a4,1870(a3)
    297c:	74e687a3          	sb	a4,1871(a3)
    2980:	74e68823          	sb	a4,1872(a3)
    2984:	74e688a3          	sb	a4,1873(a3)
    2988:	00c78633          	add	a2,a5,a2
    298c:	74e68923          	sb	a4,1874(a3)
    2990:	88e604a3          	sb	a4,-1911(a2) # a889 <__global_pointer+0x594d>
    2994:	88e60523          	sb	a4,-1910(a2)
    2998:	88e605a3          	sb	a4,-1909(a2)
    299c:	88e60623          	sb	a4,-1908(a2)
    29a0:	88e606a3          	sb	a4,-1907(a2)
    29a4:	88e60723          	sb	a4,-1906(a2)
    29a8:	88e607a3          	sb	a4,-1905(a2)
    29ac:	88e60823          	sb	a4,-1904(a2)
    29b0:	88e608a3          	sb	a4,-1903(a2)
    29b4:	88e60923          	sb	a4,-1902(a2)
    29b8:	9ce604a3          	sb	a4,-1591(a2)
    29bc:	9ce60523          	sb	a4,-1590(a2)
    29c0:	9ce605a3          	sb	a4,-1589(a2)
    29c4:	9ce60623          	sb	a4,-1588(a2)
    29c8:	9ce606a3          	sb	a4,-1587(a2)
    29cc:	9ce60723          	sb	a4,-1586(a2)
    29d0:	9ce607a3          	sb	a4,-1585(a2)
    29d4:	9ce60823          	sb	a4,-1584(a2)
    29d8:	9ce608a3          	sb	a4,-1583(a2)
    29dc:	9ce60923          	sb	a4,-1582(a2)
    29e0:	b0e604a3          	sb	a4,-1271(a2)
    29e4:	b0e60523          	sb	a4,-1270(a2)
    29e8:	b0e605a3          	sb	a4,-1269(a2)
    29ec:	b0e60623          	sb	a4,-1268(a2)
    29f0:	b0e606a3          	sb	a4,-1267(a2)
    29f4:	b0e60723          	sb	a4,-1266(a2)
    29f8:	b0e607a3          	sb	a4,-1265(a2)
    29fc:	b0e60823          	sb	a4,-1264(a2)
    2a00:	b0e608a3          	sb	a4,-1263(a2)
    2a04:	b0e60923          	sb	a4,-1262(a2)
    2a08:	c4e604a3          	sb	a4,-951(a2)
    2a0c:	c4e60523          	sb	a4,-950(a2)
    2a10:	c4e605a3          	sb	a4,-949(a2)
    2a14:	c4e60623          	sb	a4,-948(a2)
    2a18:	c4e606a3          	sb	a4,-947(a2)
    2a1c:	c4e60723          	sb	a4,-946(a2)
    2a20:	c4e607a3          	sb	a4,-945(a2)
    2a24:	c4e60823          	sb	a4,-944(a2)
    2a28:	c4e608a3          	sb	a4,-943(a2)
    2a2c:	c4e60923          	sb	a4,-942(a2)
    2a30:	d8e604a3          	sb	a4,-631(a2)
    2a34:	d8e60523          	sb	a4,-630(a2)
    2a38:	d8e605a3          	sb	a4,-629(a2)
    2a3c:	d8e60623          	sb	a4,-628(a2)
    2a40:	d8e606a3          	sb	a4,-627(a2)
    2a44:	d8e60723          	sb	a4,-626(a2)
    2a48:	d8e607a3          	sb	a4,-625(a2)
    2a4c:	d8e60823          	sb	a4,-624(a2)
    2a50:	d8e608a3          	sb	a4,-623(a2)
    2a54:	d8e60923          	sb	a4,-622(a2)
    2a58:	ece604a3          	sb	a4,-311(a2)
    2a5c:	ece60523          	sb	a4,-310(a2)
    2a60:	ece605a3          	sb	a4,-309(a2)
    2a64:	ece60623          	sb	a4,-308(a2)
    2a68:	ece606a3          	sb	a4,-307(a2)
    2a6c:	ece60723          	sb	a4,-306(a2)
    2a70:	ece607a3          	sb	a4,-305(a2)
    2a74:	ece60823          	sb	a4,-304(a2)
    2a78:	0000c6b7          	lui	a3,0xc
    2a7c:	ece608a3          	sb	a4,-303(a2)
    2a80:	00d786b3          	add	a3,a5,a3
    2a84:	ece60923          	sb	a4,-302(a2)
    2a88:	c6e68fa3          	sb	a4,-897(a3) # bc7f <__global_pointer+0x6d43>
    2a8c:	c8e68023          	sb	a4,-896(a3)
    2a90:	c8e680a3          	sb	a4,-895(a3)
    2a94:	c8e68123          	sb	a4,-894(a3)
    2a98:	c8e681a3          	sb	a4,-893(a3)
    2a9c:	c8e68223          	sb	a4,-892(a3)
    2aa0:	c8e682a3          	sb	a4,-891(a3)
    2aa4:	c8e68323          	sb	a4,-890(a3)
    2aa8:	c8e683a3          	sb	a4,-889(a3)
    2aac:	c8e68423          	sb	a4,-888(a3)
    2ab0:	dae68fa3          	sb	a4,-577(a3)
    2ab4:	dce68023          	sb	a4,-576(a3)
    2ab8:	dce680a3          	sb	a4,-575(a3)
    2abc:	dce68123          	sb	a4,-574(a3)
    2ac0:	dce681a3          	sb	a4,-573(a3)
    2ac4:	dce68223          	sb	a4,-572(a3)
    2ac8:	dce682a3          	sb	a4,-571(a3)
    2acc:	dce68323          	sb	a4,-570(a3)
    2ad0:	dce683a3          	sb	a4,-569(a3)
    2ad4:	dce68423          	sb	a4,-568(a3)
    2ad8:	eee68fa3          	sb	a4,-257(a3)
    2adc:	f0e68023          	sb	a4,-256(a3)
    2ae0:	f0e680a3          	sb	a4,-255(a3)
    2ae4:	f0e68123          	sb	a4,-254(a3)
    2ae8:	f0e681a3          	sb	a4,-253(a3)
    2aec:	f0e68223          	sb	a4,-252(a3)
    2af0:	f0e682a3          	sb	a4,-251(a3)
    2af4:	f0e68323          	sb	a4,-250(a3)
    2af8:	f0e683a3          	sb	a4,-249(a3)
    2afc:	f0e68423          	sb	a4,-248(a3)
    2b00:	02e68fa3          	sb	a4,63(a3)
    2b04:	04e68023          	sb	a4,64(a3)
    2b08:	04e680a3          	sb	a4,65(a3)
    2b0c:	04e68123          	sb	a4,66(a3)
    2b10:	04e681a3          	sb	a4,67(a3)
    2b14:	04e68223          	sb	a4,68(a3)
    2b18:	04e682a3          	sb	a4,69(a3)
    2b1c:	04e68323          	sb	a4,70(a3)
    2b20:	04e683a3          	sb	a4,71(a3)
    2b24:	04e68423          	sb	a4,72(a3)
    2b28:	16e68fa3          	sb	a4,383(a3)
    2b2c:	18e68023          	sb	a4,384(a3)
    2b30:	18e680a3          	sb	a4,385(a3)
    2b34:	18e68123          	sb	a4,386(a3)
    2b38:	18e681a3          	sb	a4,387(a3)
    2b3c:	18e68223          	sb	a4,388(a3)
    2b40:	18e682a3          	sb	a4,389(a3)
    2b44:	18e68323          	sb	a4,390(a3)
    2b48:	18e683a3          	sb	a4,391(a3)
    2b4c:	18e68423          	sb	a4,392(a3)
    2b50:	2ae68fa3          	sb	a4,703(a3)
    2b54:	2ce68023          	sb	a4,704(a3)
    2b58:	2ce680a3          	sb	a4,705(a3)
    2b5c:	2ce68123          	sb	a4,706(a3)
    2b60:	2ce681a3          	sb	a4,707(a3)
    2b64:	2ce68223          	sb	a4,708(a3)
    2b68:	2ce682a3          	sb	a4,709(a3)
    2b6c:	2ce68323          	sb	a4,710(a3)
    2b70:	2ce683a3          	sb	a4,711(a3)
    2b74:	2ce68423          	sb	a4,712(a3)
    2b78:	3ee68fa3          	sb	a4,1023(a3)
    2b7c:	40e68023          	sb	a4,1024(a3)
    2b80:	40e680a3          	sb	a4,1025(a3)
    2b84:	40e68123          	sb	a4,1026(a3)
    2b88:	40e681a3          	sb	a4,1027(a3)
    2b8c:	40e68223          	sb	a4,1028(a3)
    2b90:	40e682a3          	sb	a4,1029(a3)
    2b94:	40e68323          	sb	a4,1030(a3)
    2b98:	40e683a3          	sb	a4,1031(a3)
    2b9c:	40e68423          	sb	a4,1032(a3)
    2ba0:	52e68fa3          	sb	a4,1343(a3)
    2ba4:	54e68023          	sb	a4,1344(a3)
    2ba8:	54e680a3          	sb	a4,1345(a3)
    2bac:	54e68123          	sb	a4,1346(a3)
    2bb0:	54e681a3          	sb	a4,1347(a3)
    2bb4:	54e68223          	sb	a4,1348(a3)
    2bb8:	54e682a3          	sb	a4,1349(a3)
    2bbc:	54e68323          	sb	a4,1350(a3)
    2bc0:	54e683a3          	sb	a4,1351(a3)
    2bc4:	54e68423          	sb	a4,1352(a3)
    2bc8:	66e68fa3          	sb	a4,1663(a3)
    2bcc:	68e68023          	sb	a4,1664(a3)
    2bd0:	68e680a3          	sb	a4,1665(a3)
    2bd4:	68e68123          	sb	a4,1666(a3)
    2bd8:	68e681a3          	sb	a4,1667(a3)
    2bdc:	68e68223          	sb	a4,1668(a3)
    2be0:	68e682a3          	sb	a4,1669(a3)
    2be4:	68e68323          	sb	a4,1670(a3)
    2be8:	68e683a3          	sb	a4,1671(a3)
    2bec:	68e68423          	sb	a4,1672(a3)
    2bf0:	7ae68fa3          	sb	a4,1983(a3)
    2bf4:	7ce68023          	sb	a4,1984(a3)
    2bf8:	7ce680a3          	sb	a4,1985(a3)
    2bfc:	7ce68123          	sb	a4,1986(a3)
    2c00:	7ce681a3          	sb	a4,1987(a3)
    2c04:	7ce68223          	sb	a4,1988(a3)
    2c08:	7ce682a3          	sb	a4,1989(a3)
    2c0c:	7ce68323          	sb	a4,1990(a3)
    2c10:	7ce683a3          	sb	a4,1991(a3)
    2c14:	0000d637          	lui	a2,0xd
    2c18:	00c787b3          	add	a5,a5,a2
    2c1c:	7ce68423          	sb	a4,1992(a3)
    2c20:	90e784a3          	sb	a4,-1783(a5)
    2c24:	90e78523          	sb	a4,-1782(a5)
    2c28:	90e785a3          	sb	a4,-1781(a5)
    2c2c:	90e78623          	sb	a4,-1780(a5)
    2c30:	90e786a3          	sb	a4,-1779(a5)
    2c34:	90e78723          	sb	a4,-1778(a5)
    2c38:	90e787a3          	sb	a4,-1777(a5)
    2c3c:	90e78823          	sb	a4,-1776(a5)
    2c40:	90e788a3          	sb	a4,-1775(a5)
    2c44:	90e78923          	sb	a4,-1774(a5)
    2c48:	a4e784a3          	sb	a4,-1463(a5)
    2c4c:	a4e78523          	sb	a4,-1462(a5)
    2c50:	a4e785a3          	sb	a4,-1461(a5)
    2c54:	a4e78623          	sb	a4,-1460(a5)
    2c58:	a4e786a3          	sb	a4,-1459(a5)
    2c5c:	a4e78723          	sb	a4,-1458(a5)
    2c60:	a4e787a3          	sb	a4,-1457(a5)
    2c64:	a4e78823          	sb	a4,-1456(a5)
    2c68:	a4e788a3          	sb	a4,-1455(a5)
    2c6c:	a4e78923          	sb	a4,-1454(a5)
    2c70:	b8e784a3          	sb	a4,-1143(a5)
    2c74:	b8e78523          	sb	a4,-1142(a5)
    2c78:	b8e785a3          	sb	a4,-1141(a5)
    2c7c:	b8e78623          	sb	a4,-1140(a5)
    2c80:	b8e786a3          	sb	a4,-1139(a5)
    2c84:	b8e78723          	sb	a4,-1138(a5)
    2c88:	b8e787a3          	sb	a4,-1137(a5)
    2c8c:	b8e78823          	sb	a4,-1136(a5)
    2c90:	b8e788a3          	sb	a4,-1135(a5)
    2c94:	b8e78923          	sb	a4,-1134(a5)
    2c98:	cce784a3          	sb	a4,-823(a5)
    2c9c:	cce78523          	sb	a4,-822(a5)
    2ca0:	fe000693          	li	a3,-32
    2ca4:	cce785a3          	sb	a4,-821(a5)
    2ca8:	ccd78623          	sb	a3,-820(a5)
    2cac:	ccd786a3          	sb	a3,-819(a5)
    2cb0:	ccd78723          	sb	a3,-818(a5)
    2cb4:	ccd787a3          	sb	a3,-817(a5)
    2cb8:	ccd78823          	sb	a3,-816(a5)
    2cbc:	ccd788a3          	sb	a3,-815(a5)
    2cc0:	ccd78923          	sb	a3,-814(a5)
    2cc4:	e0d784a3          	sb	a3,-503(a5)
    2cc8:	e0d78523          	sb	a3,-502(a5)
    2ccc:	e0d785a3          	sb	a3,-501(a5)
    2cd0:	e0d78623          	sb	a3,-500(a5)
    2cd4:	e0d786a3          	sb	a3,-499(a5)
    2cd8:	e0d78723          	sb	a3,-498(a5)
    2cdc:	e0d787a3          	sb	a3,-497(a5)
    2ce0:	e0d78823          	sb	a3,-496(a5)
    2ce4:	e0d788a3          	sb	a3,-495(a5)
    2ce8:	e0d78923          	sb	a3,-494(a5)
    2cec:	f4d784a3          	sb	a3,-183(a5)
    2cf0:	f4d78523          	sb	a3,-182(a5)
    2cf4:	f4d785a3          	sb	a3,-181(a5)
    2cf8:	f4d78623          	sb	a3,-180(a5)
    2cfc:	f4d786a3          	sb	a3,-179(a5)
    2d00:	f4d78723          	sb	a3,-178(a5)
    2d04:	f4d787a3          	sb	a3,-177(a5)
    2d08:	f4d78823          	sb	a3,-176(a5)
    2d0c:	f4d788a3          	sb	a3,-175(a5)
    2d10:	f4d78923          	sb	a3,-174(a5)
    2d14:	08d784a3          	sb	a3,137(a5)
    2d18:	08d78523          	sb	a3,138(a5)
    2d1c:	08d785a3          	sb	a3,139(a5)
    2d20:	08d78623          	sb	a3,140(a5)
    2d24:	08d786a3          	sb	a3,141(a5)
    2d28:	08d78723          	sb	a3,142(a5)
    2d2c:	08d787a3          	sb	a3,143(a5)
    2d30:	08d78823          	sb	a3,144(a5)
    2d34:	08d788a3          	sb	a3,145(a5)
    2d38:	08d78923          	sb	a3,146(a5)
    2d3c:	1cd784a3          	sb	a3,457(a5)
    2d40:	1cd78523          	sb	a3,458(a5)
    2d44:	1cd785a3          	sb	a3,459(a5)
    2d48:	1cd78623          	sb	a3,460(a5)
    2d4c:	1cd786a3          	sb	a3,461(a5)
    2d50:	1cd78723          	sb	a3,462(a5)
    2d54:	1cd787a3          	sb	a3,463(a5)
    2d58:	1cd78823          	sb	a3,464(a5)
    2d5c:	1cd788a3          	sb	a3,465(a5)
    2d60:	1cd78923          	sb	a3,466(a5)
    2d64:	30d784a3          	sb	a3,777(a5)
    2d68:	30d78523          	sb	a3,778(a5)
    2d6c:	30d785a3          	sb	a3,779(a5)
    2d70:	30d78623          	sb	a3,780(a5)
    2d74:	30d786a3          	sb	a3,781(a5)
    2d78:	30d78723          	sb	a3,782(a5)
    2d7c:	30d787a3          	sb	a3,783(a5)
    2d80:	30d78823          	sb	a3,784(a5)
    2d84:	30d788a3          	sb	a3,785(a5)
    2d88:	30d78923          	sb	a3,786(a5)
    2d8c:	44d784a3          	sb	a3,1097(a5)
    2d90:	44d78523          	sb	a3,1098(a5)
    2d94:	44d785a3          	sb	a3,1099(a5)
    2d98:	44d78623          	sb	a3,1100(a5)
    2d9c:	44d786a3          	sb	a3,1101(a5)
    2da0:	44d78723          	sb	a3,1102(a5)
    2da4:	44d787a3          	sb	a3,1103(a5)
    2da8:	44d78823          	sb	a3,1104(a5)
    2dac:	44d788a3          	sb	a3,1105(a5)
    2db0:	44d78923          	sb	a3,1106(a5)
    2db4:	00008067          	ret

00002db8 <draw_GAMEOVER>:
    2db8:	ff010113          	addi	sp,sp,-16
    2dbc:	0e000513          	li	a0,224
    2dc0:	00112623          	sw	ra,12(sp)
    2dc4:	00812423          	sw	s0,8(sp)
    2dc8:	00912223          	sw	s1,4(sp)
    2dcc:	d31fd0ef          	jal	afc <draw_G>
    2dd0:	0e000513          	li	a0,224
    2dd4:	9dcfe0ef          	jal	fb0 <draw_A>
    2dd8:	0e000513          	li	a0,224
    2ddc:	cfcfe0ef          	jal	12d8 <draw_M>
    2de0:	0e000513          	li	a0,224
    2de4:	e30fd0ef          	jal	414 <draw_E.constprop.0>
    2de8:	ef5fe0ef          	jal	1cdc <draw_O>
    2dec:	a20ff0ef          	jal	200c <draw_V>
    2df0:	0000a5b7          	lui	a1,0xa
    2df4:	fffff8b7          	lui	a7,0xfffff
    2df8:	00001837          	lui	a6,0x1
    2dfc:	0000e537          	lui	a0,0xe
    2e00:	32558593          	addi	a1,a1,805 # a325 <__global_pointer+0x53e9>
    2e04:	000047b7          	lui	a5,0x4
    2e08:	38088893          	addi	a7,a7,896 # fffff380 <_stack_end+0xffefa858>
    2e0c:	fe000693          	li	a3,-32
    2e10:	c8080813          	addi	a6,a6,-896 # c80 <draw_G+0x184>
    2e14:	1a550513          	addi	a0,a0,421 # e1a5 <__global_pointer+0x9269>
    2e18:	01158733          	add	a4,a1,a7
    2e1c:	7407a603          	lw	a2,1856(a5) # 4740 <VGA>
    2e20:	00170e93          	addi	t4,a4,1
    2e24:	00270e13          	addi	t3,a4,2
    2e28:	00e60633          	add	a2,a2,a4
    2e2c:	00d60023          	sb	a3,0(a2) # d000 <__global_pointer+0x80c4>
    2e30:	7407a603          	lw	a2,1856(a5)
    2e34:	00370313          	addi	t1,a4,3
    2e38:	00470293          	addi	t0,a4,4
    2e3c:	01d60633          	add	a2,a2,t4
    2e40:	00d60023          	sb	a3,0(a2)
    2e44:	7407a603          	lw	a2,1856(a5)
    2e48:	00570f93          	addi	t6,a4,5
    2e4c:	00670f13          	addi	t5,a4,6
    2e50:	01c60633          	add	a2,a2,t3
    2e54:	00d60023          	sb	a3,0(a2)
    2e58:	7407a603          	lw	a2,1856(a5)
    2e5c:	00770e93          	addi	t4,a4,7
    2e60:	00870e13          	addi	t3,a4,8
    2e64:	00660633          	add	a2,a2,t1
    2e68:	00d60023          	sb	a3,0(a2)
    2e6c:	7407a603          	lw	a2,1856(a5)
    2e70:	00970313          	addi	t1,a4,9
    2e74:	14070713          	addi	a4,a4,320
    2e78:	00560633          	add	a2,a2,t0
    2e7c:	00d60023          	sb	a3,0(a2)
    2e80:	7407a603          	lw	a2,1856(a5)
    2e84:	01f60633          	add	a2,a2,t6
    2e88:	00d60023          	sb	a3,0(a2)
    2e8c:	7407a603          	lw	a2,1856(a5)
    2e90:	01e60633          	add	a2,a2,t5
    2e94:	00d60023          	sb	a3,0(a2)
    2e98:	7407a603          	lw	a2,1856(a5)
    2e9c:	01d60633          	add	a2,a2,t4
    2ea0:	00d60023          	sb	a3,0(a2)
    2ea4:	7407a603          	lw	a2,1856(a5)
    2ea8:	01c60633          	add	a2,a2,t3
    2eac:	00d60023          	sb	a3,0(a2)
    2eb0:	7407a603          	lw	a2,1856(a5)
    2eb4:	00660633          	add	a2,a2,t1
    2eb8:	00d60023          	sb	a3,0(a2)
    2ebc:	f6e590e3          	bne	a1,a4,2e1c <draw_GAMEOVER+0x64>
    2ec0:	010585b3          	add	a1,a1,a6
    2ec4:	f4a59ae3          	bne	a1,a0,2e18 <draw_GAMEOVER+0x60>
    2ec8:	0000a837          	lui	a6,0xa
    2ecc:	0000c537          	lui	a0,0xc
    2ed0:	0000d5b7          	lui	a1,0xd
    2ed4:	ffffc337          	lui	t1,0xffffc
    2ed8:	ffffeeb7          	lui	t4,0xffffe
    2edc:	fffffe37          	lui	t3,0xfffff
    2ee0:	0000d8b7          	lui	a7,0xd
    2ee4:	32f80813          	addi	a6,a6,815 # a32f <__global_pointer+0x53f3>
    2ee8:	c2f50513          	addi	a0,a0,-977 # bc2f <__global_pointer+0x6cf3>
    2eec:	52f58593          	addi	a1,a1,1327 # d52f <__global_pointer+0x85f3>
    2ef0:	18030313          	addi	t1,t1,384 # ffffc180 <_stack_end+0xffef7658>
    2ef4:	fe000713          	li	a4,-32
    2ef8:	a80e8e93          	addi	t4,t4,-1408 # ffffda80 <_stack_end+0xffef8f58>
    2efc:	380e0e13          	addi	t3,t3,896 # fffff380 <_stack_end+0xffefa858>
    2f00:	55788893          	addi	a7,a7,1367 # d557 <__global_pointer+0x861b>
    2f04:	006586b3          	add	a3,a1,t1
    2f08:	7407a603          	lw	a2,1856(a5)
    2f0c:	00168293          	addi	t0,a3,1
    2f10:	00268f93          	addi	t6,a3,2
    2f14:	00d60633          	add	a2,a2,a3
    2f18:	00e60023          	sb	a4,0(a2)
    2f1c:	7407a603          	lw	a2,1856(a5)
    2f20:	00368f13          	addi	t5,a3,3
    2f24:	00468493          	addi	s1,a3,4
    2f28:	00560633          	add	a2,a2,t0
    2f2c:	00e60023          	sb	a4,0(a2)
    2f30:	7407a603          	lw	a2,1856(a5)
    2f34:	00568413          	addi	s0,a3,5
    2f38:	00668393          	addi	t2,a3,6
    2f3c:	01f60633          	add	a2,a2,t6
    2f40:	00e60023          	sb	a4,0(a2)
    2f44:	7407a603          	lw	a2,1856(a5)
    2f48:	00768293          	addi	t0,a3,7
    2f4c:	00868f93          	addi	t6,a3,8
    2f50:	01e60633          	add	a2,a2,t5
    2f54:	00e60023          	sb	a4,0(a2)
    2f58:	7407a603          	lw	a2,1856(a5)
    2f5c:	00968f13          	addi	t5,a3,9
    2f60:	14068693          	addi	a3,a3,320
    2f64:	00960633          	add	a2,a2,s1
    2f68:	00e60023          	sb	a4,0(a2)
    2f6c:	7407a603          	lw	a2,1856(a5)
    2f70:	00860633          	add	a2,a2,s0
    2f74:	00e60023          	sb	a4,0(a2)
    2f78:	7407a603          	lw	a2,1856(a5)
    2f7c:	00760633          	add	a2,a2,t2
    2f80:	00e60023          	sb	a4,0(a2)
    2f84:	7407a603          	lw	a2,1856(a5)
    2f88:	00560633          	add	a2,a2,t0
    2f8c:	00e60023          	sb	a4,0(a2)
    2f90:	7407a603          	lw	a2,1856(a5)
    2f94:	01f60633          	add	a2,a2,t6
    2f98:	00e60023          	sb	a4,0(a2)
    2f9c:	7407a603          	lw	a2,1856(a5)
    2fa0:	01e60633          	add	a2,a2,t5
    2fa4:	00e60023          	sb	a4,0(a2)
    2fa8:	f6d810e3          	bne	a6,a3,2f08 <draw_GAMEOVER+0x150>
    2fac:	01d586b3          	add	a3,a1,t4
    2fb0:	7407a603          	lw	a2,1856(a5)
    2fb4:	00168293          	addi	t0,a3,1
    2fb8:	00268f93          	addi	t6,a3,2
    2fbc:	00d60633          	add	a2,a2,a3
    2fc0:	00e60023          	sb	a4,0(a2)
    2fc4:	7407a603          	lw	a2,1856(a5)
    2fc8:	00368f13          	addi	t5,a3,3
    2fcc:	00468493          	addi	s1,a3,4
    2fd0:	00560633          	add	a2,a2,t0
    2fd4:	00e60023          	sb	a4,0(a2)
    2fd8:	7407a603          	lw	a2,1856(a5)
    2fdc:	00568413          	addi	s0,a3,5
    2fe0:	00668393          	addi	t2,a3,6
    2fe4:	01f60633          	add	a2,a2,t6
    2fe8:	00e60023          	sb	a4,0(a2)
    2fec:	7407a603          	lw	a2,1856(a5)
    2ff0:	00768293          	addi	t0,a3,7
    2ff4:	00868f93          	addi	t6,a3,8
    2ff8:	01e60633          	add	a2,a2,t5
    2ffc:	00e60023          	sb	a4,0(a2)
    3000:	7407a603          	lw	a2,1856(a5)
    3004:	00968f13          	addi	t5,a3,9
    3008:	14068693          	addi	a3,a3,320
    300c:	00960633          	add	a2,a2,s1
    3010:	00e60023          	sb	a4,0(a2)
    3014:	7407a603          	lw	a2,1856(a5)
    3018:	00860633          	add	a2,a2,s0
    301c:	00e60023          	sb	a4,0(a2)
    3020:	7407a603          	lw	a2,1856(a5)
    3024:	00760633          	add	a2,a2,t2
    3028:	00e60023          	sb	a4,0(a2)
    302c:	7407a603          	lw	a2,1856(a5)
    3030:	00560633          	add	a2,a2,t0
    3034:	00e60023          	sb	a4,0(a2)
    3038:	7407a603          	lw	a2,1856(a5)
    303c:	01f60633          	add	a2,a2,t6
    3040:	00e60023          	sb	a4,0(a2)
    3044:	7407a603          	lw	a2,1856(a5)
    3048:	01e60633          	add	a2,a2,t5
    304c:	00e60023          	sb	a4,0(a2)
    3050:	f6d510e3          	bne	a0,a3,2fb0 <draw_GAMEOVER+0x1f8>
    3054:	01c586b3          	add	a3,a1,t3
    3058:	7407a603          	lw	a2,1856(a5)
    305c:	00168293          	addi	t0,a3,1
    3060:	00268f93          	addi	t6,a3,2
    3064:	00d60633          	add	a2,a2,a3
    3068:	00e60023          	sb	a4,0(a2)
    306c:	7407a603          	lw	a2,1856(a5)
    3070:	00368f13          	addi	t5,a3,3
    3074:	00468493          	addi	s1,a3,4
    3078:	00560633          	add	a2,a2,t0
    307c:	00e60023          	sb	a4,0(a2)
    3080:	7407a603          	lw	a2,1856(a5)
    3084:	00568413          	addi	s0,a3,5
    3088:	00668393          	addi	t2,a3,6
    308c:	01f60633          	add	a2,a2,t6
    3090:	00e60023          	sb	a4,0(a2)
    3094:	7407a603          	lw	a2,1856(a5)
    3098:	00768293          	addi	t0,a3,7
    309c:	00868f93          	addi	t6,a3,8
    30a0:	01e60633          	add	a2,a2,t5
    30a4:	00e60023          	sb	a4,0(a2)
    30a8:	7407a603          	lw	a2,1856(a5)
    30ac:	00968f13          	addi	t5,a3,9
    30b0:	14068693          	addi	a3,a3,320
    30b4:	00960633          	add	a2,a2,s1
    30b8:	00e60023          	sb	a4,0(a2)
    30bc:	7407a603          	lw	a2,1856(a5)
    30c0:	00860633          	add	a2,a2,s0
    30c4:	00e60023          	sb	a4,0(a2)
    30c8:	7407a603          	lw	a2,1856(a5)
    30cc:	00760633          	add	a2,a2,t2
    30d0:	00e60023          	sb	a4,0(a2)
    30d4:	7407a603          	lw	a2,1856(a5)
    30d8:	00560633          	add	a2,a2,t0
    30dc:	00e60023          	sb	a4,0(a2)
    30e0:	7407a603          	lw	a2,1856(a5)
    30e4:	01f60633          	add	a2,a2,t6
    30e8:	00e60023          	sb	a4,0(a2)
    30ec:	7407a603          	lw	a2,1856(a5)
    30f0:	01e60633          	add	a2,a2,t5
    30f4:	00e60023          	sb	a4,0(a2)
    30f8:	f6d590e3          	bne	a1,a3,3058 <draw_GAMEOVER+0x2a0>
    30fc:	00a58593          	addi	a1,a1,10
    3100:	00a50513          	addi	a0,a0,10
    3104:	00a80813          	addi	a6,a6,10
    3108:	df159ee3          	bne	a1,a7,2f04 <draw_GAMEOVER+0x14c>
    310c:	00812403          	lw	s0,8(sp)
    3110:	00c12083          	lw	ra,12(sp)
    3114:	00412483          	lw	s1,4(sp)
    3118:	01010113          	addi	sp,sp,16
    311c:	d60ff06f          	j	267c <draw_R>

00003120 <create_background>:
    3120:	000136b7          	lui	a3,0x13
    3124:	00000793          	li	a5,0
    3128:	00004637          	lui	a2,0x4
    312c:	c0068693          	addi	a3,a3,-1024 # 12c00 <__global_pointer+0xdcc4>
    3130:	74062703          	lw	a4,1856(a2) # 4740 <VGA>
    3134:	00f70733          	add	a4,a4,a5
    3138:	00a70023          	sb	a0,0(a4)
    313c:	00178793          	addi	a5,a5,1
    3140:	fed798e3          	bne	a5,a3,3130 <create_background+0x10>
    3144:	000047b7          	lui	a5,0x4
    3148:	73c7a783          	lw	a5,1852(a5) # 473c <VGA_CTRL>
    314c:	74062703          	lw	a4,1856(a2)
    3150:	00e7a223          	sw	a4,4(a5)
    3154:	0007a023          	sw	zero,0(a5)
    3158:	00008067          	ret

0000315c <WIN>:
    315c:	ff010113          	addi	sp,sp,-16
    3160:	000057b7          	lui	a5,0x5
    3164:	000136b7          	lui	a3,0x13
    3168:	00812423          	sw	s0,8(sp)
    316c:	a807a023          	sw	zero,-1408(a5) # 4a80 <run>
    3170:	00112623          	sw	ra,12(sp)
    3174:	00912223          	sw	s1,4(sp)
    3178:	00000793          	li	a5,0
    317c:	00004437          	lui	s0,0x4
    3180:	c0068693          	addi	a3,a3,-1024 # 12c00 <__global_pointer+0xdcc4>
    3184:	74042703          	lw	a4,1856(s0) # 4740 <VGA>
    3188:	00f70733          	add	a4,a4,a5
    318c:	00070023          	sb	zero,0(a4)
    3190:	00178793          	addi	a5,a5,1
    3194:	fed798e3          	bne	a5,a3,3184 <WIN+0x28>
    3198:	000044b7          	lui	s1,0x4
    319c:	73c4a783          	lw	a5,1852(s1) # 473c <VGA_CTRL>
    31a0:	74042703          	lw	a4,1856(s0)
    31a4:	01800513          	li	a0,24
    31a8:	00e7a223          	sw	a4,4(a5)
    31ac:	0007a023          	sw	zero,0(a5)
    31b0:	94dfd0ef          	jal	afc <draw_G>
    31b4:	01800513          	li	a0,24
    31b8:	df9fd0ef          	jal	fb0 <draw_A>
    31bc:	01800513          	li	a0,24
    31c0:	918fe0ef          	jal	12d8 <draw_M>
    31c4:	01800513          	li	a0,24
    31c8:	a4cfd0ef          	jal	414 <draw_E.constprop.0>
    31cc:	73c4a783          	lw	a5,1852(s1)
    31d0:	74042703          	lw	a4,1856(s0)
    31d4:	00c12083          	lw	ra,12(sp)
    31d8:	00812403          	lw	s0,8(sp)
    31dc:	00e7a223          	sw	a4,4(a5)
    31e0:	0007a023          	sw	zero,0(a5)
    31e4:	00412483          	lw	s1,4(sp)
    31e8:	01010113          	addi	sp,sp,16
    31ec:	00008067          	ret

000031f0 <create_playing_field>:
    31f0:	fe010113          	addi	sp,sp,-32
    31f4:	00912a23          	sw	s1,20(sp)
    31f8:	01212823          	sw	s2,16(sp)
    31fc:	01312623          	sw	s3,12(sp)
    3200:	00112e23          	sw	ra,28(sp)
    3204:	00812c23          	sw	s0,24(sp)
    3208:	00050913          	mv	s2,a0
    320c:	00000493          	li	s1,0
    3210:	00a00993          	li	s3,10
    3214:	00000413          	li	s0,0
    3218:	00040513          	mv	a0,s0
    321c:	00090613          	mv	a2,s2
    3220:	00048593          	mv	a1,s1
    3224:	00140413          	addi	s0,s0,1
    3228:	801fd0ef          	jal	a28 <draw_grid_block>
    322c:	ff3416e3          	bne	s0,s3,3218 <create_playing_field+0x28>
    3230:	00148493          	addi	s1,s1,1
    3234:	fe8490e3          	bne	s1,s0,3214 <create_playing_field+0x24>
    3238:	000047b7          	lui	a5,0x4
    323c:	00004737          	lui	a4,0x4
    3240:	73c7a783          	lw	a5,1852(a5) # 473c <VGA_CTRL>
    3244:	74072703          	lw	a4,1856(a4) # 4740 <VGA>
    3248:	01c12083          	lw	ra,28(sp)
    324c:	01812403          	lw	s0,24(sp)
    3250:	00e7a223          	sw	a4,4(a5)
    3254:	0007a023          	sw	zero,0(a5)
    3258:	01412483          	lw	s1,20(sp)
    325c:	01012903          	lw	s2,16(sp)
    3260:	00c12983          	lw	s3,12(sp)
    3264:	02010113          	addi	sp,sp,32
    3268:	00008067          	ret

0000326c <draw_snake_head>:
    326c:	000046b7          	lui	a3,0x4
    3270:	74868693          	addi	a3,a3,1864 # 4748 <snake>
    3274:	00c6a703          	lw	a4,12(a3)
    3278:	000027b7          	lui	a5,0x2
    327c:	90078793          	addi	a5,a5,-1792 # 1900 <draw_M+0x628>
    3280:	00170713          	addi	a4,a4,1
    3284:	02f70733          	mul	a4,a4,a5
    3288:	0086a683          	lw	a3,8(a3)
    328c:	00003837          	lui	a6,0x3
    3290:	25080813          	addi	a6,a6,592 # 3250 <create_playing_field+0x60>
    3294:	00269613          	slli	a2,a3,0x2
    3298:	00d60633          	add	a2,a2,a3
    329c:	00261613          	slli	a2,a2,0x2
    32a0:	05060693          	addi	a3,a2,80
    32a4:	40f705b3          	sub	a1,a4,a5
    32a8:	00c585b3          	add	a1,a1,a2
    32ac:	00e686b3          	add	a3,a3,a4
    32b0:	010585b3          	add	a1,a1,a6
    32b4:	00004637          	lui	a2,0x4
    32b8:	fec68793          	addi	a5,a3,-20
    32bc:	74062703          	lw	a4,1856(a2) # 4740 <VGA>
    32c0:	00f70733          	add	a4,a4,a5
    32c4:	00a70023          	sb	a0,0(a4)
    32c8:	00178793          	addi	a5,a5,1
    32cc:	fed798e3          	bne	a5,a3,32bc <draw_snake_head+0x50>
    32d0:	14078693          	addi	a3,a5,320
    32d4:	feb692e3          	bne	a3,a1,32b8 <draw_snake_head+0x4c>
    32d8:	00008067          	ret

000032dc <draw_pineapple>:
    32dc:	00158593          	addi	a1,a1,1
    32e0:	00259713          	slli	a4,a1,0x2
    32e4:	00b70733          	add	a4,a4,a1
    32e8:	00271713          	slli	a4,a4,0x2
    32ec:	00a70713          	addi	a4,a4,10
    32f0:	00251613          	slli	a2,a0,0x2
    32f4:	000047b7          	lui	a5,0x4
    32f8:	00a60633          	add	a2,a2,a0
    32fc:	00271693          	slli	a3,a4,0x2
    3300:	7407a583          	lw	a1,1856(a5) # 4740 <VGA>
    3304:	00261613          	slli	a2,a2,0x2
    3308:	00e686b3          	add	a3,a3,a4
    330c:	00669693          	slli	a3,a3,0x6
    3310:	04360893          	addi	a7,a2,67
    3314:	fc010113          	addi	sp,sp,-64
    3318:	00d88533          	add	a0,a7,a3
    331c:	ffc00713          	li	a4,-4
    3320:	02812e23          	sw	s0,60(sp)
    3324:	02912c23          	sw	s1,56(sp)
    3328:	03212a23          	sw	s2,52(sp)
    332c:	03312823          	sw	s3,48(sp)
    3330:	03412623          	sw	s4,44(sp)
    3334:	03512423          	sw	s5,40(sp)
    3338:	03612223          	sw	s6,36(sp)
    333c:	03712023          	sw	s7,32(sp)
    3340:	01812e23          	sw	s8,28(sp)
    3344:	01912c23          	sw	s9,24(sp)
    3348:	01a12a23          	sw	s10,20(sp)
    334c:	01b12823          	sw	s11,16(sp)
    3350:	00a585b3          	add	a1,a1,a0
    3354:	00e58023          	sb	a4,0(a1)
    3358:	7407a583          	lw	a1,1856(a5)
    335c:	04460813          	addi	a6,a2,68
    3360:	00d80533          	add	a0,a6,a3
    3364:	00a585b3          	add	a1,a1,a0
    3368:	00e58023          	sb	a4,0(a1)
    336c:	7407a583          	lw	a1,1856(a5)
    3370:	04560513          	addi	a0,a2,69
    3374:	00d50333          	add	t1,a0,a3
    3378:	006585b3          	add	a1,a1,t1
    337c:	00e58023          	sb	a4,0(a1)
    3380:	7407a303          	lw	t1,1856(a5)
    3384:	04660593          	addi	a1,a2,70
    3388:	00d58e33          	add	t3,a1,a3
    338c:	01c30333          	add	t1,t1,t3
    3390:	00e30023          	sb	a4,0(t1)
    3394:	7407a303          	lw	t1,1856(a5)
    3398:	04760e93          	addi	t4,a2,71
    339c:	00de8e33          	add	t3,t4,a3
    33a0:	01c30333          	add	t1,t1,t3
    33a4:	00e30023          	sb	a4,0(t1)
    33a8:	7407a303          	lw	t1,1856(a5)
    33ac:	04860613          	addi	a2,a2,72
    33b0:	00d60e33          	add	t3,a2,a3
    33b4:	01c30333          	add	t1,t1,t3
    33b8:	00e30023          	sb	a4,0(t1)
    33bc:	7407ae03          	lw	t3,1856(a5)
    33c0:	14068313          	addi	t1,a3,320
    33c4:	00688f33          	add	t5,a7,t1
    33c8:	01ee0e33          	add	t3,t3,t5
    33cc:	00ee0023          	sb	a4,0(t3)
    33d0:	7407ae03          	lw	t3,1856(a5)
    33d4:	00680fb3          	add	t6,a6,t1
    33d8:	00650f33          	add	t5,a0,t1
    33dc:	01fe0e33          	add	t3,t3,t6
    33e0:	00ee0023          	sb	a4,0(t3)
    33e4:	7407ae03          	lw	t3,1856(a5)
    33e8:	006582b3          	add	t0,a1,t1
    33ec:	006e8fb3          	add	t6,t4,t1
    33f0:	01ee0e33          	add	t3,t3,t5
    33f4:	00ee0023          	sb	a4,0(t3)
    33f8:	7407af03          	lw	t5,1856(a5)
    33fc:	00660333          	add	t1,a2,t1
    3400:	28068e13          	addi	t3,a3,640
    3404:	005f0f33          	add	t5,t5,t0
    3408:	00ef0023          	sb	a4,0(t5)
    340c:	7407af03          	lw	t5,1856(a5)
    3410:	01c88433          	add	s0,a7,t3
    3414:	01c803b3          	add	t2,a6,t3
    3418:	01ff0f33          	add	t5,t5,t6
    341c:	00ef0023          	sb	a4,0(t5)
    3420:	7407af03          	lw	t5,1856(a5)
    3424:	01c502b3          	add	t0,a0,t3
    3428:	01c58fb3          	add	t6,a1,t3
    342c:	006f0333          	add	t1,t5,t1
    3430:	00e30023          	sb	a4,0(t1)
    3434:	7407a303          	lw	t1,1856(a5)
    3438:	01ce89b3          	add	s3,t4,t3
    343c:	01c60e33          	add	t3,a2,t3
    3440:	00830333          	add	t1,t1,s0
    3444:	00e30023          	sb	a4,0(t1)
    3448:	7407af03          	lw	t5,1856(a5)
    344c:	3c068313          	addi	t1,a3,960
    3450:	00688933          	add	s2,a7,t1
    3454:	007f0f33          	add	t5,t5,t2
    3458:	00ef0023          	sb	a4,0(t5)
    345c:	7407af03          	lw	t5,1856(a5)
    3460:	006804b3          	add	s1,a6,t1
    3464:	00650433          	add	s0,a0,t1
    3468:	005f0f33          	add	t5,t5,t0
    346c:	00ef0023          	sb	a4,0(t5)
    3470:	7407af03          	lw	t5,1856(a5)
    3474:	006582b3          	add	t0,a1,t1
    3478:	006e83b3          	add	t2,t4,t1
    347c:	01ff0f33          	add	t5,t5,t6
    3480:	00ef0023          	sb	a4,0(t5)
    3484:	7407af83          	lw	t6,1856(a5)
    3488:	50068f13          	addi	t5,a3,1280
    348c:	01e88b33          	add	s6,a7,t5
    3490:	013f8fb3          	add	t6,t6,s3
    3494:	00ef8023          	sb	a4,0(t6)
    3498:	7407af83          	lw	t6,1856(a5)
    349c:	01e80ab3          	add	s5,a6,t5
    34a0:	01e50a33          	add	s4,a0,t5
    34a4:	01cf8e33          	add	t3,t6,t3
    34a8:	00ee0023          	sb	a4,0(t3)
    34ac:	7407ae03          	lw	t3,1856(a5)
    34b0:	01e589b3          	add	s3,a1,t5
    34b4:	00660333          	add	t1,a2,t1
    34b8:	012e0e33          	add	t3,t3,s2
    34bc:	00ee0023          	sb	a4,0(t3)
    34c0:	7407af83          	lw	t6,1856(a5)
    34c4:	01ee8933          	add	s2,t4,t5
    34c8:	01e60e33          	add	t3,a2,t5
    34cc:	009f8f33          	add	t5,t6,s1
    34d0:	00ef0023          	sb	a4,0(t5)
    34d4:	7407af03          	lw	t5,1856(a5)
    34d8:	64068f93          	addi	t6,a3,1600
    34dc:	01f88d33          	add	s10,a7,t6
    34e0:	008f0f33          	add	t5,t5,s0
    34e4:	00ef0023          	sb	a4,0(t5)
    34e8:	7407af03          	lw	t5,1856(a5)
    34ec:	01f80cb3          	add	s9,a6,t6
    34f0:	01f504b3          	add	s1,a0,t6
    34f4:	005f0f33          	add	t5,t5,t0
    34f8:	00ef0023          	sb	a4,0(t5)
    34fc:	7407af03          	lw	t5,1856(a5)
    3500:	01f58433          	add	s0,a1,t6
    3504:	01fe82b3          	add	t0,t4,t6
    3508:	007f0f33          	add	t5,t5,t2
    350c:	00ef0023          	sb	a4,0(t5)
    3510:	7407a383          	lw	t2,1856(a5)
    3514:	01f60fb3          	add	t6,a2,t6
    3518:	78068f13          	addi	t5,a3,1920
    351c:	00638333          	add	t1,t2,t1
    3520:	00e30023          	sb	a4,0(t1)
    3524:	7407a303          	lw	t1,1856(a5)
    3528:	01e88db3          	add	s11,a7,t5
    352c:	01e803b3          	add	t2,a6,t5
    3530:	01630333          	add	t1,t1,s6
    3534:	00e30023          	sb	a4,0(t1)
    3538:	7407a303          	lw	t1,1856(a5)
    353c:	01e50c33          	add	s8,a0,t5
    3540:	01e58bb3          	add	s7,a1,t5
    3544:	01530333          	add	t1,t1,s5
    3548:	00e30023          	sb	a4,0(t1)
    354c:	7407a303          	lw	t1,1856(a5)
    3550:	01ee8b33          	add	s6,t4,t5
    3554:	01e60f33          	add	t5,a2,t5
    3558:	01430333          	add	t1,t1,s4
    355c:	00e30023          	sb	a4,0(t1)
    3560:	7407aa03          	lw	s4,1856(a5)
    3564:	00001337          	lui	t1,0x1
    3568:	8c030313          	addi	t1,t1,-1856 # 8c0 <draw_block+0x38>
    356c:	013a09b3          	add	s3,s4,s3
    3570:	00e98023          	sb	a4,0(s3)
    3574:	7407a983          	lw	s3,1856(a5)
    3578:	00668333          	add	t1,a3,t1
    357c:	00688ab3          	add	s5,a7,t1
    3580:	01298933          	add	s2,s3,s2
    3584:	00e90023          	sb	a4,0(s2)
    3588:	7407a903          	lw	s2,1856(a5)
    358c:	00680a33          	add	s4,a6,t1
    3590:	006509b3          	add	s3,a0,t1
    3594:	01c90e33          	add	t3,s2,t3
    3598:	00ee0023          	sb	a4,0(t3)
    359c:	7407ae03          	lw	t3,1856(a5)
    35a0:	00658933          	add	s2,a1,t1
    35a4:	01c12023          	sw	t3,0(sp)
    35a8:	006e8e33          	add	t3,t4,t1
    35ac:	01c12223          	sw	t3,4(sp)
    35b0:	00012e03          	lw	t3,0(sp)
    35b4:	00660333          	add	t1,a2,t1
    35b8:	00612023          	sw	t1,0(sp)
    35bc:	01ae0e33          	add	t3,t3,s10
    35c0:	00ee0023          	sb	a4,0(t3)
    35c4:	7407ae03          	lw	t3,1856(a5)
    35c8:	00001337          	lui	t1,0x1
    35cc:	a0030313          	addi	t1,t1,-1536 # a00 <draw_pixel_on_block+0x24>
    35d0:	019e0e33          	add	t3,t3,s9
    35d4:	00ee0023          	sb	a4,0(t3)
    35d8:	7407ae03          	lw	t3,1856(a5)
    35dc:	00668333          	add	t1,a3,t1
    35e0:	00680cb3          	add	s9,a6,t1
    35e4:	009e0e33          	add	t3,t3,s1
    35e8:	00ee0023          	sb	a4,0(t3)
    35ec:	7407ae03          	lw	t3,1856(a5)
    35f0:	006884b3          	add	s1,a7,t1
    35f4:	00912423          	sw	s1,8(sp)
    35f8:	008e0e33          	add	t3,t3,s0
    35fc:	00ee0023          	sb	a4,0(t3)
    3600:	7407ae03          	lw	t3,1856(a5)
    3604:	006584b3          	add	s1,a1,t1
    3608:	006e8433          	add	s0,t4,t1
    360c:	005e0e33          	add	t3,t3,t0
    3610:	00ee0023          	sb	a4,0(t3)
    3614:	7407a283          	lw	t0,1856(a5)
    3618:	01912623          	sw	s9,12(sp)
    361c:	00660e33          	add	t3,a2,t1
    3620:	00650cb3          	add	s9,a0,t1
    3624:	01f28333          	add	t1,t0,t6
    3628:	00e30023          	sb	a4,0(t1)
    362c:	7407a303          	lw	t1,1856(a5)
    3630:	c4068293          	addi	t0,a3,-960
    3634:	00550d33          	add	s10,a0,t0
    3638:	01b30333          	add	t1,t1,s11
    363c:	00e30023          	sb	a4,0(t1)
    3640:	7407af83          	lw	t6,1856(a5)
    3644:	005582b3          	add	t0,a1,t0
    3648:	01c00313          	li	t1,28
    364c:	007f8fb3          	add	t6,t6,t2
    3650:	00ef8023          	sb	a4,0(t6)
    3654:	7407a383          	lw	t2,1856(a5)
    3658:	d8068f93          	addi	t6,a3,-640
    365c:	01f50db3          	add	s11,a0,t6
    3660:	018383b3          	add	t2,t2,s8
    3664:	00e38023          	sb	a4,0(t2)
    3668:	7407ac03          	lw	s8,1856(a5)
    366c:	01f583b3          	add	t2,a1,t6
    3670:	01f888b3          	add	a7,a7,t6
    3674:	017c0bb3          	add	s7,s8,s7
    3678:	00eb8023          	sb	a4,0(s7)
    367c:	7407ab83          	lw	s7,1856(a5)
    3680:	01f60fb3          	add	t6,a2,t6
    3684:	ec068693          	addi	a3,a3,-320
    3688:	016b8b33          	add	s6,s7,s6
    368c:	00eb0023          	sb	a4,0(s6)
    3690:	7407ab03          	lw	s6,1856(a5)
    3694:	00d50533          	add	a0,a0,a3
    3698:	00d585b3          	add	a1,a1,a3
    369c:	01eb0f33          	add	t5,s6,t5
    36a0:	00ef0023          	sb	a4,0(t5)
    36a4:	7407af03          	lw	t5,1856(a5)
    36a8:	00d80833          	add	a6,a6,a3
    36ac:	00de86b3          	add	a3,t4,a3
    36b0:	015f0f33          	add	t5,t5,s5
    36b4:	00ef0023          	sb	a4,0(t5)
    36b8:	7407a603          	lw	a2,1856(a5)
    36bc:	00412e83          	lw	t4,4(sp)
    36c0:	01460633          	add	a2,a2,s4
    36c4:	00e60023          	sb	a4,0(a2)
    36c8:	7407a603          	lw	a2,1856(a5)
    36cc:	01360633          	add	a2,a2,s3
    36d0:	00e60023          	sb	a4,0(a2)
    36d4:	7407a603          	lw	a2,1856(a5)
    36d8:	01260633          	add	a2,a2,s2
    36dc:	00e60023          	sb	a4,0(a2)
    36e0:	7407a603          	lw	a2,1856(a5)
    36e4:	01d60633          	add	a2,a2,t4
    36e8:	00e60023          	sb	a4,0(a2)
    36ec:	7407a603          	lw	a2,1856(a5)
    36f0:	00012e83          	lw	t4,0(sp)
    36f4:	01d60633          	add	a2,a2,t4
    36f8:	00e60023          	sb	a4,0(a2)
    36fc:	7407a603          	lw	a2,1856(a5)
    3700:	00812e83          	lw	t4,8(sp)
    3704:	01d60633          	add	a2,a2,t4
    3708:	00e60023          	sb	a4,0(a2)
    370c:	7407a603          	lw	a2,1856(a5)
    3710:	00c12e83          	lw	t4,12(sp)
    3714:	01d60633          	add	a2,a2,t4
    3718:	00e60023          	sb	a4,0(a2)
    371c:	7407a603          	lw	a2,1856(a5)
    3720:	01960633          	add	a2,a2,s9
    3724:	00e60023          	sb	a4,0(a2)
    3728:	7407a603          	lw	a2,1856(a5)
    372c:	00960633          	add	a2,a2,s1
    3730:	00e60023          	sb	a4,0(a2)
    3734:	7407a603          	lw	a2,1856(a5)
    3738:	00860633          	add	a2,a2,s0
    373c:	00e60023          	sb	a4,0(a2)
    3740:	7407a603          	lw	a2,1856(a5)
    3744:	01c60633          	add	a2,a2,t3
    3748:	00e60023          	sb	a4,0(a2)
    374c:	7407a703          	lw	a4,1856(a5)
    3750:	01a70733          	add	a4,a4,s10
    3754:	00670023          	sb	t1,0(a4)
    3758:	7407a703          	lw	a4,1856(a5)
    375c:	00570733          	add	a4,a4,t0
    3760:	00670023          	sb	t1,0(a4)
    3764:	7407a703          	lw	a4,1856(a5)
    3768:	01b70733          	add	a4,a4,s11
    376c:	00670023          	sb	t1,0(a4)
    3770:	7407a703          	lw	a4,1856(a5)
    3774:	00770733          	add	a4,a4,t2
    3778:	00670023          	sb	t1,0(a4)
    377c:	7407a703          	lw	a4,1856(a5)
    3780:	00a70733          	add	a4,a4,a0
    3784:	00670023          	sb	t1,0(a4)
    3788:	7407a703          	lw	a4,1856(a5)
    378c:	00b70733          	add	a4,a4,a1
    3790:	00670023          	sb	t1,0(a4)
    3794:	7407a703          	lw	a4,1856(a5)
    3798:	01170733          	add	a4,a4,a7
    379c:	00670023          	sb	t1,0(a4)
    37a0:	7407a703          	lw	a4,1856(a5)
    37a4:	01070733          	add	a4,a4,a6
    37a8:	00670023          	sb	t1,0(a4)
    37ac:	7407a703          	lw	a4,1856(a5)
    37b0:	00d70733          	add	a4,a4,a3
    37b4:	00670023          	sb	t1,0(a4)
    37b8:	7407a783          	lw	a5,1856(a5)
    37bc:	01f787b3          	add	a5,a5,t6
    37c0:	00678023          	sb	t1,0(a5)
    37c4:	03c12403          	lw	s0,60(sp)
    37c8:	03812483          	lw	s1,56(sp)
    37cc:	03412903          	lw	s2,52(sp)
    37d0:	03012983          	lw	s3,48(sp)
    37d4:	02c12a03          	lw	s4,44(sp)
    37d8:	02812a83          	lw	s5,40(sp)
    37dc:	02412b03          	lw	s6,36(sp)
    37e0:	02012b83          	lw	s7,32(sp)
    37e4:	01c12c03          	lw	s8,28(sp)
    37e8:	01812c83          	lw	s9,24(sp)
    37ec:	01412d03          	lw	s10,20(sp)
    37f0:	01012d83          	lw	s11,16(sp)
    37f4:	04010113          	addi	sp,sp,64
    37f8:	00008067          	ret

000037fc <create_snake>:
    37fc:	000047b7          	lui	a5,0x4
    3800:	74878793          	addi	a5,a5,1864 # 4748 <snake>
    3804:	00300713          	li	a4,3
    3808:	00e7a423          	sw	a4,8(a5)
    380c:	00e7a623          	sw	a4,12(a5)
    3810:	00100713          	li	a4,1
    3814:	000066b7          	lui	a3,0x6
    3818:	000085b7          	lui	a1,0x8
    381c:	00e7a023          	sw	a4,0(a5)
    3820:	05200713          	li	a4,82
    3824:	00e78223          	sb	a4,4(a5)
    3828:	48c68693          	addi	a3,a3,1164 # 648c <__global_pointer+0x1550>
    382c:	00004637          	lui	a2,0x4
    3830:	d8c58593          	addi	a1,a1,-628 # 7d8c <__global_pointer+0x2e50>
    3834:	fec68793          	addi	a5,a3,-20
    3838:	74062703          	lw	a4,1856(a2) # 4740 <VGA>
    383c:	00f70733          	add	a4,a4,a5
    3840:	00a70023          	sb	a0,0(a4)
    3844:	00178793          	addi	a5,a5,1
    3848:	fed798e3          	bne	a5,a3,3838 <create_snake+0x3c>
    384c:	14078693          	addi	a3,a5,320
    3850:	feb692e3          	bne	a3,a1,3834 <create_snake+0x38>
    3854:	000047b7          	lui	a5,0x4
    3858:	73c7a783          	lw	a5,1852(a5) # 473c <VGA_CTRL>
    385c:	74062703          	lw	a4,1856(a2)
    3860:	00e7a223          	sw	a4,4(a5)
    3864:	0007a023          	sw	zero,0(a5)
    3868:	00008067          	ret

0000386c <lengthen_snake>:
    386c:	00005737          	lui	a4,0x5
    3870:	a8470713          	addi	a4,a4,-1404 # 4a84 <snake_tail>
    3874:	00472e03          	lw	t3,4(a4)
    3878:	000027b7          	lui	a5,0x2
    387c:	90078793          	addi	a5,a5,-1792 # 1900 <draw_M+0x628>
    3880:	001e0613          	addi	a2,t3,1
    3884:	02f60633          	mul	a2,a2,a5
    3888:	00072303          	lw	t1,0(a4)
    388c:	00004837          	lui	a6,0x4
    3890:	74880813          	addi	a6,a6,1864 # 4748 <snake>
    3894:	00082683          	lw	a3,0(a6)
    3898:	00231713          	slli	a4,t1,0x2
    389c:	00670733          	add	a4,a4,t1
    38a0:	00271713          	slli	a4,a4,0x2
    38a4:	00369593          	slli	a1,a3,0x3
    38a8:	000038b7          	lui	a7,0x3
    38ac:	40f60533          	sub	a0,a2,a5
    38b0:	00b805b3          	add	a1,a6,a1
    38b4:	00168793          	addi	a5,a3,1
    38b8:	00e50533          	add	a0,a0,a4
    38bc:	05070693          	addi	a3,a4,80
    38c0:	25088893          	addi	a7,a7,592 # 3250 <create_playing_field+0x60>
    38c4:	0065a423          	sw	t1,8(a1)
    38c8:	01c5a623          	sw	t3,12(a1)
    38cc:	00c686b3          	add	a3,a3,a2
    38d0:	00f82023          	sw	a5,0(a6)
    38d4:	01150533          	add	a0,a0,a7
    38d8:	000045b7          	lui	a1,0x4
    38dc:	01c00613          	li	a2,28
    38e0:	fec68793          	addi	a5,a3,-20
    38e4:	7405a703          	lw	a4,1856(a1) # 4740 <VGA>
    38e8:	00f70733          	add	a4,a4,a5
    38ec:	00c70023          	sb	a2,0(a4)
    38f0:	00178793          	addi	a5,a5,1
    38f4:	fed798e3          	bne	a5,a3,38e4 <lengthen_snake+0x78>
    38f8:	14078693          	addi	a3,a5,320
    38fc:	fea692e3          	bne	a3,a0,38e0 <lengthen_snake+0x74>
    3900:	00082703          	lw	a4,0(a6)
    3904:	06400793          	li	a5,100
    3908:	00f70463          	beq	a4,a5,3910 <lengthen_snake+0xa4>
    390c:	00008067          	ret
    3910:	000057b7          	lui	a5,0x5
    3914:	00100713          	li	a4,1
    3918:	a6e7aa23          	sw	a4,-1420(a5) # 4a74 <victory>
    391c:	00008067          	ret

00003920 <increment_score>:
    3920:	000057b7          	lui	a5,0x5
    3924:	a787a503          	lw	a0,-1416(a5) # 4a78 <score>
    3928:	00150513          	addi	a0,a0,1
    392c:	a6a7ac23          	sw	a0,-1416(a5)
    3930:	1490006f          	j	4278 <set_score>

00003934 <game_over>:
    3934:	000057b7          	lui	a5,0x5
    3938:	ff010113          	addi	sp,sp,-16
    393c:	000136b7          	lui	a3,0x13
    3940:	a807a023          	sw	zero,-1408(a5) # 4a80 <run>
    3944:	000057b7          	lui	a5,0x5
    3948:	00812423          	sw	s0,8(sp)
    394c:	a607ac23          	sw	zero,-1416(a5) # 4a78 <score>
    3950:	00112623          	sw	ra,12(sp)
    3954:	00912223          	sw	s1,4(sp)
    3958:	00000793          	li	a5,0
    395c:	00004437          	lui	s0,0x4
    3960:	c0068693          	addi	a3,a3,-1024 # 12c00 <__global_pointer+0xdcc4>
    3964:	74042703          	lw	a4,1856(s0) # 4740 <VGA>
    3968:	00f70733          	add	a4,a4,a5
    396c:	00070023          	sb	zero,0(a4)
    3970:	00178793          	addi	a5,a5,1
    3974:	fed798e3          	bne	a5,a3,3964 <game_over+0x30>
    3978:	000044b7          	lui	s1,0x4
    397c:	73c4a783          	lw	a5,1852(s1) # 473c <VGA_CTRL>
    3980:	74042703          	lw	a4,1856(s0)
    3984:	00e7a223          	sw	a4,4(a5)
    3988:	0007a023          	sw	zero,0(a5)
    398c:	c2cff0ef          	jal	2db8 <draw_GAMEOVER>
    3990:	73c4a783          	lw	a5,1852(s1)
    3994:	74042703          	lw	a4,1856(s0)
    3998:	00c12083          	lw	ra,12(sp)
    399c:	00812403          	lw	s0,8(sp)
    39a0:	00e7a223          	sw	a4,4(a5)
    39a4:	0007a023          	sw	zero,0(a5)
    39a8:	00412483          	lw	s1,4(sp)
    39ac:	01010113          	addi	sp,sp,16
    39b0:	00008067          	ret

000039b4 <move_snake>:
    39b4:	ff010113          	addi	sp,sp,-16
    39b8:	00812423          	sw	s0,8(sp)
    39bc:	00004437          	lui	s0,0x4
    39c0:	74840413          	addi	s0,s0,1864 # 4748 <snake>
    39c4:	00042783          	lw	a5,0(s0)
    39c8:	00005737          	lui	a4,0x5
    39cc:	a8470713          	addi	a4,a4,-1404 # 4a84 <snake_tail>
    39d0:	fff78793          	addi	a5,a5,-1
    39d4:	00379793          	slli	a5,a5,0x3
    39d8:	00f407b3          	add	a5,s0,a5
    39dc:	0087a503          	lw	a0,8(a5)
    39e0:	00c7a583          	lw	a1,12(a5)
    39e4:	00112623          	sw	ra,12(sp)
    39e8:	00a72023          	sw	a0,0(a4)
    39ec:	00b72223          	sw	a1,4(a4)
    39f0:	d59fc0ef          	jal	748 <draw_grid_block.constprop.0>
    39f4:	00042703          	lw	a4,0(s0)
    39f8:	00100793          	li	a5,1
    39fc:	12e7d263          	bge	a5,a4,3b20 <move_snake+0x16c>
    3a00:	00371793          	slli	a5,a4,0x3
    3a04:	00f407b3          	add	a5,s0,a5
    3a08:	00840813          	addi	a6,s0,8
    3a0c:	ff87a603          	lw	a2,-8(a5)
    3a10:	ffc7a683          	lw	a3,-4(a5)
    3a14:	ff878793          	addi	a5,a5,-8
    3a18:	00c7a423          	sw	a2,8(a5)
    3a1c:	00d7a623          	sw	a3,12(a5)
    3a20:	fef816e3          	bne	a6,a5,3a0c <move_snake+0x58>
    3a24:	00444783          	lbu	a5,4(s0)
    3a28:	05200693          	li	a3,82
    3a2c:	0ed78263          	beq	a5,a3,3b10 <move_snake+0x15c>
    3a30:	0cf6e463          	bltu	a3,a5,3af8 <move_snake+0x144>
    3a34:	04400693          	li	a3,68
    3a38:	0ad78863          	beq	a5,a3,3ae8 <move_snake+0x134>
    3a3c:	04c00693          	li	a3,76
    3a40:	00d79863          	bne	a5,a3,3a50 <move_snake+0x9c>
    3a44:	00842783          	lw	a5,8(s0)
    3a48:	fff78793          	addi	a5,a5,-1
    3a4c:	00f42423          	sw	a5,8(s0)
    3a50:	08e05463          	blez	a4,3ad8 <move_snake+0x124>
    3a54:	00004837          	lui	a6,0x4
    3a58:	75080813          	addi	a6,a6,1872 # 4750 <snake+0x8>
    3a5c:	000028b7          	lui	a7,0x2
    3a60:	00003e37          	lui	t3,0x3
    3a64:	00000313          	li	t1,0
    3a68:	000045b7          	lui	a1,0x4
    3a6c:	90088893          	addi	a7,a7,-1792 # 1900 <draw_M+0x628>
    3a70:	250e0e13          	addi	t3,t3,592 # 3250 <create_playing_field+0x60>
    3a74:	01c00613          	li	a2,28
    3a78:	00482783          	lw	a5,4(a6)
    3a7c:	00082683          	lw	a3,0(a6)
    3a80:	00178793          	addi	a5,a5,1
    3a84:	031787b3          	mul	a5,a5,a7
    3a88:	00269713          	slli	a4,a3,0x2
    3a8c:	00d70733          	add	a4,a4,a3
    3a90:	00271713          	slli	a4,a4,0x2
    3a94:	05070693          	addi	a3,a4,80
    3a98:	41178533          	sub	a0,a5,a7
    3a9c:	00e50533          	add	a0,a0,a4
    3aa0:	00f686b3          	add	a3,a3,a5
    3aa4:	01c50533          	add	a0,a0,t3
    3aa8:	fec68793          	addi	a5,a3,-20
    3aac:	7405a703          	lw	a4,1856(a1) # 4740 <VGA>
    3ab0:	00f70733          	add	a4,a4,a5
    3ab4:	00c70023          	sb	a2,0(a4)
    3ab8:	00178793          	addi	a5,a5,1
    3abc:	fef698e3          	bne	a3,a5,3aac <move_snake+0xf8>
    3ac0:	14068693          	addi	a3,a3,320
    3ac4:	fed512e3          	bne	a0,a3,3aa8 <move_snake+0xf4>
    3ac8:	00042783          	lw	a5,0(s0)
    3acc:	00130313          	addi	t1,t1,1
    3ad0:	00880813          	addi	a6,a6,8
    3ad4:	faf342e3          	blt	t1,a5,3a78 <move_snake+0xc4>
    3ad8:	00c12083          	lw	ra,12(sp)
    3adc:	00812403          	lw	s0,8(sp)
    3ae0:	01010113          	addi	sp,sp,16
    3ae4:	00008067          	ret
    3ae8:	00c42783          	lw	a5,12(s0)
    3aec:	00178793          	addi	a5,a5,1
    3af0:	00f42623          	sw	a5,12(s0)
    3af4:	f5dff06f          	j	3a50 <move_snake+0x9c>
    3af8:	05500693          	li	a3,85
    3afc:	f6d790e3          	bne	a5,a3,3a5c <move_snake+0xa8>
    3b00:	00c42783          	lw	a5,12(s0)
    3b04:	fff78793          	addi	a5,a5,-1
    3b08:	00f42623          	sw	a5,12(s0)
    3b0c:	f45ff06f          	j	3a50 <move_snake+0x9c>
    3b10:	00842783          	lw	a5,8(s0)
    3b14:	00178793          	addi	a5,a5,1
    3b18:	00f42423          	sw	a5,8(s0)
    3b1c:	f41ff06f          	j	3a5c <move_snake+0xa8>
    3b20:	00444783          	lbu	a5,4(s0)
    3b24:	05200693          	li	a3,82
    3b28:	00d78a63          	beq	a5,a3,3b3c <move_snake+0x188>
    3b2c:	f0f6f4e3          	bgeu	a3,a5,3a34 <move_snake+0x80>
    3b30:	05500693          	li	a3,85
    3b34:	fcd786e3          	beq	a5,a3,3b00 <move_snake+0x14c>
    3b38:	f19ff06f          	j	3a50 <move_snake+0x9c>
    3b3c:	00842783          	lw	a5,8(s0)
    3b40:	00178793          	addi	a5,a5,1
    3b44:	00f42423          	sw	a5,8(s0)
    3b48:	f09ff06f          	j	3a50 <move_snake+0x9c>

00003b4c <change_direction>:
    3b4c:	05200713          	li	a4,82
    3b50:	02e50e63          	beq	a0,a4,3b8c <change_direction+0x40>
    3b54:	04c00793          	li	a5,76
    3b58:	00f50463          	beq	a0,a5,3b60 <change_direction+0x14>
    3b5c:	00008067          	ret
    3b60:	000047b7          	lui	a5,0x4
    3b64:	74878793          	addi	a5,a5,1864 # 4748 <snake>
    3b68:	0047c683          	lbu	a3,4(a5)
    3b6c:	04e68263          	beq	a3,a4,3bb0 <change_direction+0x64>
    3b70:	06d76063          	bltu	a4,a3,3bd0 <change_direction+0x84>
    3b74:	04400713          	li	a4,68
    3b78:	04e68663          	beq	a3,a4,3bc4 <change_direction+0x78>
    3b7c:	06a69463          	bne	a3,a0,3be4 <change_direction+0x98>
    3b80:	04400713          	li	a4,68
    3b84:	00e78223          	sb	a4,4(a5)
    3b88:	00008067          	ret
    3b8c:	000047b7          	lui	a5,0x4
    3b90:	74878793          	addi	a5,a5,1864 # 4748 <snake>
    3b94:	0047c703          	lbu	a4,4(a5)
    3b98:	fea704e3          	beq	a4,a0,3b80 <change_direction+0x34>
    3b9c:	02e56063          	bltu	a0,a4,3bbc <change_direction+0x70>
    3ba0:	04400693          	li	a3,68
    3ba4:	02d70a63          	beq	a4,a3,3bd8 <change_direction+0x8c>
    3ba8:	04c00693          	li	a3,76
    3bac:	04d71063          	bne	a4,a3,3bec <change_direction+0xa0>
    3bb0:	05500713          	li	a4,85
    3bb4:	00e78223          	sb	a4,4(a5)
    3bb8:	00008067          	ret
    3bbc:	05500693          	li	a3,85
    3bc0:	02d71463          	bne	a4,a3,3be8 <change_direction+0x9c>
    3bc4:	05200713          	li	a4,82
    3bc8:	00e78223          	sb	a4,4(a5)
    3bcc:	00008067          	ret
    3bd0:	05500713          	li	a4,85
    3bd4:	f8e694e3          	bne	a3,a4,3b5c <change_direction+0x10>
    3bd8:	04c00713          	li	a4,76
    3bdc:	00e78223          	sb	a4,4(a5)
    3be0:	00008067          	ret
    3be4:	00008067          	ret
    3be8:	00008067          	ret
    3bec:	00008067          	ret

00003bf0 <is_head_on_body>:
    3bf0:	000047b7          	lui	a5,0x4
    3bf4:	74878793          	addi	a5,a5,1864 # 4748 <snake>
    3bf8:	0007a603          	lw	a2,0(a5)
    3bfc:	00100713          	li	a4,1
    3c00:	02c75c63          	bge	a4,a2,3c38 <is_head_on_body+0x48>
    3c04:	0087a583          	lw	a1,8(a5)
    3c08:	00c7a503          	lw	a0,12(a5)
    3c0c:	01078793          	addi	a5,a5,16
    3c10:	00c0006f          	j	3c1c <is_head_on_body+0x2c>
    3c14:	00878793          	addi	a5,a5,8
    3c18:	02c70063          	beq	a4,a2,3c38 <is_head_on_body+0x48>
    3c1c:	0007a683          	lw	a3,0(a5)
    3c20:	00170713          	addi	a4,a4,1
    3c24:	fed598e3          	bne	a1,a3,3c14 <is_head_on_body+0x24>
    3c28:	0047a683          	lw	a3,4(a5)
    3c2c:	fed514e3          	bne	a0,a3,3c14 <is_head_on_body+0x24>
    3c30:	00100513          	li	a0,1
    3c34:	00008067          	ret
    3c38:	00000513          	li	a0,0
    3c3c:	00008067          	ret

00003c40 <is_head_outside_map>:
    3c40:	000047b7          	lui	a5,0x4
    3c44:	74878793          	addi	a5,a5,1864 # 4748 <snake>
    3c48:	0087a683          	lw	a3,8(a5)
    3c4c:	00900713          	li	a4,9
    3c50:	00100513          	li	a0,1
    3c54:	00d76863          	bltu	a4,a3,3c64 <is_head_outside_map+0x24>
    3c58:	00c7a503          	lw	a0,12(a5)
    3c5c:	00a53513          	sltiu	a0,a0,10
    3c60:	00153513          	seqz	a0,a0
    3c64:	00008067          	ret

00003c68 <is_head_on_apple>:
    3c68:	000047b7          	lui	a5,0x4
    3c6c:	74878793          	addi	a5,a5,1864 # 4748 <snake>
    3c70:	0087a683          	lw	a3,8(a5)
    3c74:	00052703          	lw	a4,0(a0)
    3c78:	00e68663          	beq	a3,a4,3c84 <is_head_on_apple+0x1c>
    3c7c:	00000513          	li	a0,0
    3c80:	00008067          	ret
    3c84:	00452503          	lw	a0,4(a0)
    3c88:	00c7a783          	lw	a5,12(a5)
    3c8c:	40f50533          	sub	a0,a0,a5
    3c90:	00153513          	seqz	a0,a0
    3c94:	00008067          	ret

00003c98 <is_block_snake>:
    3c98:	000047b7          	lui	a5,0x4
    3c9c:	74878793          	addi	a5,a5,1864 # 4748 <snake>
    3ca0:	0007a603          	lw	a2,0(a5)
    3ca4:	02c05a63          	blez	a2,3cd8 <is_block_snake+0x40>
    3ca8:	00878793          	addi	a5,a5,8
    3cac:	00000713          	li	a4,0
    3cb0:	00c0006f          	j	3cbc <is_block_snake+0x24>
    3cb4:	00878793          	addi	a5,a5,8
    3cb8:	02c70063          	beq	a4,a2,3cd8 <is_block_snake+0x40>
    3cbc:	0007a683          	lw	a3,0(a5)
    3cc0:	00170713          	addi	a4,a4,1
    3cc4:	fea698e3          	bne	a3,a0,3cb4 <is_block_snake+0x1c>
    3cc8:	0047a683          	lw	a3,4(a5)
    3ccc:	feb694e3          	bne	a3,a1,3cb4 <is_block_snake+0x1c>
    3cd0:	00100513          	li	a0,1
    3cd4:	00008067          	ret
    3cd8:	00000513          	li	a0,0
    3cdc:	00008067          	ret

00003ce0 <spawn_apple>:
    3ce0:	000046b7          	lui	a3,0x4
    3ce4:	7446a783          	lw	a5,1860(a3) # 4744 <random_number_seed>
    3ce8:	004dc737          	lui	a4,0x4dc
    3cec:	70170713          	addi	a4,a4,1793 # 4dc701 <_stack_end+0x3d7bd9>
    3cf0:	02e787b3          	mul	a5,a5,a4
    3cf4:	00014737          	lui	a4,0x14
    3cf8:	ff010113          	addi	sp,sp,-16
    3cfc:	e2070713          	addi	a4,a4,-480 # 13e20 <__global_pointer+0xeee4>
    3d00:	00812423          	sw	s0,8(sp)
    3d04:	00005437          	lui	s0,0x5
    3d08:	a7c42603          	lw	a2,-1412(s0) # 4a7c <apple_exists>
    3d0c:	00112623          	sw	ra,12(sp)
    3d10:	00e78333          	add	t1,a5,a4
    3d14:	00c31313          	slli	t1,t1,0xc
    3d18:	00c35313          	srli	t1,t1,0xc
    3d1c:	7466a223          	sw	t1,1860(a3)
    3d20:	08061463          	bnez	a2,3da8 <spawn_apple+0xc8>
    3d24:	00a00793          	li	a5,10
    3d28:	02f37333          	remu	t1,t1,a5
    3d2c:	000047b7          	lui	a5,0x4
    3d30:	7487a603          	lw	a2,1864(a5) # 4748 <snake>
    3d34:	00004e37          	lui	t3,0x4
    3d38:	00050893          	mv	a7,a0
    3d3c:	00a00f13          	li	t5,10
    3d40:	750e0e13          	addi	t3,t3,1872 # 4750 <snake+0x8>
    3d44:	00a30e93          	addi	t4,t1,10
    3d48:	00030f93          	mv	t6,t1
    3d4c:	03efe5b3          	rem	a1,t6,t5
    3d50:	00030513          	mv	a0,t1
    3d54:	04c05063          	blez	a2,3d94 <spawn_apple+0xb4>
    3d58:	00030813          	mv	a6,t1
    3d5c:	000e0793          	mv	a5,t3
    3d60:	00000713          	li	a4,0
    3d64:	00c0006f          	j	3d70 <spawn_apple+0x90>
    3d68:	00878793          	addi	a5,a5,8
    3d6c:	02c70463          	beq	a4,a2,3d94 <spawn_apple+0xb4>
    3d70:	0007a683          	lw	a3,0(a5)
    3d74:	00170713          	addi	a4,a4,1
    3d78:	fea698e3          	bne	a3,a0,3d68 <spawn_apple+0x88>
    3d7c:	0047a683          	lw	a3,4(a5)
    3d80:	fed594e3          	bne	a1,a3,3d68 <spawn_apple+0x88>
    3d84:	00180813          	addi	a6,a6,1
    3d88:	03d80863          	beq	a6,t4,3db8 <spawn_apple+0xd8>
    3d8c:	03e86533          	rem	a0,a6,t5
    3d90:	fcdff06f          	j	3d5c <spawn_apple+0x7c>
    3d94:	00a8a023          	sw	a0,0(a7)
    3d98:	00b8a223          	sw	a1,4(a7)
    3d9c:	d40ff0ef          	jal	32dc <draw_pineapple>
    3da0:	00100793          	li	a5,1
    3da4:	a6f42e23          	sw	a5,-1412(s0)
    3da8:	00c12083          	lw	ra,12(sp)
    3dac:	00812403          	lw	s0,8(sp)
    3db0:	01010113          	addi	sp,sp,16
    3db4:	00008067          	ret
    3db8:	001f8f93          	addi	t6,t6,1
    3dbc:	f9df98e3          	bne	t6,t4,3d4c <spawn_apple+0x6c>
    3dc0:	fe9ff06f          	j	3da8 <spawn_apple+0xc8>

00003dc4 <create_first_apple>:
    3dc4:	00500793          	li	a5,5
    3dc8:	ff010113          	addi	sp,sp,-16
    3dcc:	00f52023          	sw	a5,0(a0)
    3dd0:	00f52223          	sw	a5,4(a0)
    3dd4:	00112623          	sw	ra,12(sp)
    3dd8:	d18fc0ef          	jal	2f0 <draw_pineapple.constprop.0>
    3ddc:	00c12083          	lw	ra,12(sp)
    3de0:	000057b7          	lui	a5,0x5
    3de4:	00100713          	li	a4,1
    3de8:	a6e7ae23          	sw	a4,-1412(a5) # 4a7c <apple_exists>
    3dec:	01010113          	addi	sp,sp,16
    3df0:	00008067          	ret

00003df4 <check_collision>:
    3df4:	00004837          	lui	a6,0x4
    3df8:	74880813          	addi	a6,a6,1864 # 4748 <snake>
    3dfc:	00882603          	lw	a2,8(a6)
    3e00:	ff010113          	addi	sp,sp,-16
    3e04:	00112623          	sw	ra,12(sp)
    3e08:	00912223          	sw	s1,4(sp)
    3e0c:	00900793          	li	a5,9
    3e10:	0ac7ea63          	bltu	a5,a2,3ec4 <check_collision+0xd0>
    3e14:	00c82883          	lw	a7,12(a6)
    3e18:	0b17e663          	bltu	a5,a7,3ec4 <check_collision+0xd0>
    3e1c:	00082583          	lw	a1,0(a6)
    3e20:	00100713          	li	a4,1
    3e24:	00050493          	mv	s1,a0
    3e28:	01080793          	addi	a5,a6,16
    3e2c:	00b74863          	blt	a4,a1,3e3c <check_collision+0x48>
    3e30:	0d00006f          	j	3f00 <check_collision+0x10c>
    3e34:	00878793          	addi	a5,a5,8
    3e38:	0cb70463          	beq	a4,a1,3f00 <check_collision+0x10c>
    3e3c:	0007a683          	lw	a3,0(a5)
    3e40:	00170713          	addi	a4,a4,1
    3e44:	fed618e3          	bne	a2,a3,3e34 <check_collision+0x40>
    3e48:	0047a683          	lw	a3,4(a5)
    3e4c:	fed894e3          	bne	a7,a3,3e34 <check_collision+0x40>
    3e50:	000057b7          	lui	a5,0x5
    3e54:	000136b7          	lui	a3,0x13
    3e58:	a807a023          	sw	zero,-1408(a5) # 4a80 <run>
    3e5c:	000057b7          	lui	a5,0x5
    3e60:	00812423          	sw	s0,8(sp)
    3e64:	a607ac23          	sw	zero,-1416(a5) # 4a78 <score>
    3e68:	00004437          	lui	s0,0x4
    3e6c:	00000793          	li	a5,0
    3e70:	c0068693          	addi	a3,a3,-1024 # 12c00 <__global_pointer+0xdcc4>
    3e74:	74042703          	lw	a4,1856(s0) # 4740 <VGA>
    3e78:	00f70733          	add	a4,a4,a5
    3e7c:	00070023          	sb	zero,0(a4)
    3e80:	00178793          	addi	a5,a5,1
    3e84:	fed798e3          	bne	a5,a3,3e74 <check_collision+0x80>
    3e88:	000044b7          	lui	s1,0x4
    3e8c:	74042703          	lw	a4,1856(s0)
    3e90:	73c4a783          	lw	a5,1852(s1) # 473c <VGA_CTRL>
    3e94:	00e7a223          	sw	a4,4(a5)
    3e98:	0007a023          	sw	zero,0(a5)
    3e9c:	f1dfe0ef          	jal	2db8 <draw_GAMEOVER>
    3ea0:	74042703          	lw	a4,1856(s0)
    3ea4:	73c4a783          	lw	a5,1852(s1)
    3ea8:	00812403          	lw	s0,8(sp)
    3eac:	00e7a223          	sw	a4,4(a5)
    3eb0:	0007a023          	sw	zero,0(a5)
    3eb4:	00c12083          	lw	ra,12(sp)
    3eb8:	00412483          	lw	s1,4(sp)
    3ebc:	01010113          	addi	sp,sp,16
    3ec0:	00008067          	ret
    3ec4:	000057b7          	lui	a5,0x5
    3ec8:	000136b7          	lui	a3,0x13
    3ecc:	a807a023          	sw	zero,-1408(a5) # 4a80 <run>
    3ed0:	000057b7          	lui	a5,0x5
    3ed4:	00812423          	sw	s0,8(sp)
    3ed8:	a607ac23          	sw	zero,-1416(a5) # 4a78 <score>
    3edc:	00004437          	lui	s0,0x4
    3ee0:	00000793          	li	a5,0
    3ee4:	c0068693          	addi	a3,a3,-1024 # 12c00 <__global_pointer+0xdcc4>
    3ee8:	74042703          	lw	a4,1856(s0) # 4740 <VGA>
    3eec:	00f70733          	add	a4,a4,a5
    3ef0:	00070023          	sb	zero,0(a4)
    3ef4:	00178793          	addi	a5,a5,1
    3ef8:	fed798e3          	bne	a5,a3,3ee8 <check_collision+0xf4>
    3efc:	f8dff06f          	j	3e88 <check_collision+0x94>
    3f00:	0004a783          	lw	a5,0(s1)
    3f04:	faf618e3          	bne	a2,a5,3eb4 <check_collision+0xc0>
    3f08:	0044a783          	lw	a5,4(s1)
    3f0c:	faf894e3          	bne	a7,a5,3eb4 <check_collision+0xc0>
    3f10:	00005737          	lui	a4,0x5
    3f14:	a8470713          	addi	a4,a4,-1404 # 4a84 <snake_tail>
    3f18:	00472e03          	lw	t3,4(a4)
    3f1c:	000027b7          	lui	a5,0x2
    3f20:	90078793          	addi	a5,a5,-1792 # 1900 <draw_M+0x628>
    3f24:	001e0613          	addi	a2,t3,1
    3f28:	02f60633          	mul	a2,a2,a5
    3f2c:	00072303          	lw	t1,0(a4)
    3f30:	00359513          	slli	a0,a1,0x3
    3f34:	000038b7          	lui	a7,0x3
    3f38:	00231713          	slli	a4,t1,0x2
    3f3c:	00670733          	add	a4,a4,t1
    3f40:	00271713          	slli	a4,a4,0x2
    3f44:	00812423          	sw	s0,8(sp)
    3f48:	01212023          	sw	s2,0(sp)
    3f4c:	00a80533          	add	a0,a6,a0
    3f50:	40f607b3          	sub	a5,a2,a5
    3f54:	00158593          	addi	a1,a1,1
    3f58:	00005937          	lui	s2,0x5
    3f5c:	05070693          	addi	a3,a4,80
    3f60:	00e787b3          	add	a5,a5,a4
    3f64:	25088893          	addi	a7,a7,592 # 3250 <create_playing_field+0x60>
    3f68:	00b82023          	sw	a1,0(a6)
    3f6c:	00c686b3          	add	a3,a3,a2
    3f70:	a6092e23          	sw	zero,-1412(s2) # 4a7c <apple_exists>
    3f74:	00652423          	sw	t1,8(a0)
    3f78:	01c52623          	sw	t3,12(a0)
    3f7c:	011785b3          	add	a1,a5,a7
    3f80:	00004437          	lui	s0,0x4
    3f84:	01c00613          	li	a2,28
    3f88:	fec68793          	addi	a5,a3,-20
    3f8c:	74042703          	lw	a4,1856(s0) # 4740 <VGA>
    3f90:	00f70733          	add	a4,a4,a5
    3f94:	00c70023          	sb	a2,0(a4)
    3f98:	00178793          	addi	a5,a5,1
    3f9c:	fef698e3          	bne	a3,a5,3f8c <check_collision+0x198>
    3fa0:	14068693          	addi	a3,a3,320
    3fa4:	feb692e3          	bne	a3,a1,3f88 <check_collision+0x194>
    3fa8:	00082703          	lw	a4,0(a6)
    3fac:	06400793          	li	a5,100
    3fb0:	00f71863          	bne	a4,a5,3fc0 <check_collision+0x1cc>
    3fb4:	000057b7          	lui	a5,0x5
    3fb8:	00100713          	li	a4,1
    3fbc:	a6e7aa23          	sw	a4,-1420(a5) # 4a74 <victory>
    3fc0:	000057b7          	lui	a5,0x5
    3fc4:	a787a503          	lw	a0,-1416(a5) # 4a78 <score>
    3fc8:	00150513          	addi	a0,a0,1
    3fcc:	a6a7ac23          	sw	a0,-1416(a5)
    3fd0:	2a8000ef          	jal	4278 <set_score>
    3fd4:	a7c92783          	lw	a5,-1412(s2)
    3fd8:	00079a63          	bnez	a5,3fec <check_collision+0x1f8>
    3fdc:	00048513          	mv	a0,s1
    3fe0:	d01ff0ef          	jal	3ce0 <spawn_apple>
    3fe4:	a7c92783          	lw	a5,-1412(s2)
    3fe8:	fe078ae3          	beqz	a5,3fdc <check_collision+0x1e8>
    3fec:	00812403          	lw	s0,8(sp)
    3ff0:	00012903          	lw	s2,0(sp)
    3ff4:	ec1ff06f          	j	3eb4 <check_collision+0xc0>

00003ff8 <game_init>:
    3ff8:	fe010113          	addi	sp,sp,-32
    3ffc:	000057b7          	lui	a5,0x5
    4000:	000136b7          	lui	a3,0x13
    4004:	00100713          	li	a4,1
    4008:	00812c23          	sw	s0,24(sp)
    400c:	a8e7a023          	sw	a4,-1408(a5) # 4a80 <run>
    4010:	00112e23          	sw	ra,28(sp)
    4014:	00912a23          	sw	s1,20(sp)
    4018:	01212823          	sw	s2,16(sp)
    401c:	01312623          	sw	s3,12(sp)
    4020:	01412423          	sw	s4,8(sp)
    4024:	00000793          	li	a5,0
    4028:	00004437          	lui	s0,0x4
    402c:	fe000613          	li	a2,-32
    4030:	c0068693          	addi	a3,a3,-1024 # 12c00 <__global_pointer+0xdcc4>
    4034:	74042703          	lw	a4,1856(s0) # 4740 <VGA>
    4038:	00f70733          	add	a4,a4,a5
    403c:	00c70023          	sb	a2,0(a4)
    4040:	00178793          	addi	a5,a5,1
    4044:	fed798e3          	bne	a5,a3,4034 <game_init+0x3c>
    4048:	00004a37          	lui	s4,0x4
    404c:	73ca2783          	lw	a5,1852(s4) # 473c <VGA_CTRL>
    4050:	74042703          	lw	a4,1856(s0)
    4054:	00000913          	li	s2,0
    4058:	00a00993          	li	s3,10
    405c:	00e7a223          	sw	a4,4(a5)
    4060:	0007a023          	sw	zero,0(a5)
    4064:	00000493          	li	s1,0
    4068:	00048513          	mv	a0,s1
    406c:	00090593          	mv	a1,s2
    4070:	00148493          	addi	s1,s1,1
    4074:	ed4fc0ef          	jal	748 <draw_grid_block.constprop.0>
    4078:	ff3498e3          	bne	s1,s3,4068 <game_init+0x70>
    407c:	00190913          	addi	s2,s2,1
    4080:	fe9912e3          	bne	s2,s1,4064 <game_init+0x6c>
    4084:	73ca2783          	lw	a5,1852(s4)
    4088:	74042703          	lw	a4,1856(s0)
    408c:	00e7a223          	sw	a4,4(a5)
    4090:	0007a023          	sw	zero,0(a5)
    4094:	1ac000ef          	jal	4240 <init_display>
    4098:	000057b7          	lui	a5,0x5
    409c:	a8c78793          	addi	a5,a5,-1396 # 4a8c <apple>
    40a0:	00500713          	li	a4,5
    40a4:	00e7a023          	sw	a4,0(a5)
    40a8:	00e7a223          	sw	a4,4(a5)
    40ac:	a44fc0ef          	jal	2f0 <draw_pineapple.constprop.0>
    40b0:	000047b7          	lui	a5,0x4
    40b4:	74878793          	addi	a5,a5,1864 # 4748 <snake>
    40b8:	00100713          	li	a4,1
    40bc:	00005537          	lui	a0,0x5
    40c0:	00300613          	li	a2,3
    40c4:	000066b7          	lui	a3,0x6
    40c8:	000085b7          	lui	a1,0x8
    40cc:	a6e52e23          	sw	a4,-1412(a0) # 4a7c <apple_exists>
    40d0:	00e7a023          	sw	a4,0(a5)
    40d4:	05200713          	li	a4,82
    40d8:	00c7a423          	sw	a2,8(a5)
    40dc:	00c7a623          	sw	a2,12(a5)
    40e0:	00e78223          	sb	a4,4(a5)
    40e4:	48c68693          	addi	a3,a3,1164 # 648c <__global_pointer+0x1550>
    40e8:	01c00613          	li	a2,28
    40ec:	d8c58593          	addi	a1,a1,-628 # 7d8c <__global_pointer+0x2e50>
    40f0:	fec68793          	addi	a5,a3,-20
    40f4:	74042703          	lw	a4,1856(s0)
    40f8:	00f70733          	add	a4,a4,a5
    40fc:	00c70023          	sb	a2,0(a4)
    4100:	00178793          	addi	a5,a5,1
    4104:	fef698e3          	bne	a3,a5,40f4 <game_init+0xfc>
    4108:	14068693          	addi	a3,a3,320
    410c:	feb692e3          	bne	a3,a1,40f0 <game_init+0xf8>
    4110:	73ca2783          	lw	a5,1852(s4)
    4114:	74042703          	lw	a4,1856(s0)
    4118:	01c12083          	lw	ra,28(sp)
    411c:	01812403          	lw	s0,24(sp)
    4120:	00e7a223          	sw	a4,4(a5)
    4124:	0007a023          	sw	zero,0(a5)
    4128:	01412483          	lw	s1,20(sp)
    412c:	01012903          	lw	s2,16(sp)
    4130:	00c12983          	lw	s3,12(sp)
    4134:	00812a03          	lw	s4,8(sp)
    4138:	02010113          	addi	sp,sp,32
    413c:	00008067          	ret

00004140 <game>:
    4140:	ff010113          	addi	sp,sp,-16
    4144:	00112623          	sw	ra,12(sp)
    4148:	00812423          	sw	s0,8(sp)
    414c:	00912223          	sw	s1,4(sp)
    4150:	865ff0ef          	jal	39b4 <move_snake>
    4154:	00005537          	lui	a0,0x5
    4158:	a8c50513          	addi	a0,a0,-1396 # 4a8c <apple>
    415c:	c99ff0ef          	jal	3df4 <check_collision>
    4160:	00004437          	lui	s0,0x4
    4164:	000044b7          	lui	s1,0x4
    4168:	74042703          	lw	a4,1856(s0) # 4740 <VGA>
    416c:	73c4a783          	lw	a5,1852(s1) # 473c <VGA_CTRL>
    4170:	000056b7          	lui	a3,0x5
    4174:	a746a683          	lw	a3,-1420(a3) # 4a74 <victory>
    4178:	00e7a223          	sw	a4,4(a5)
    417c:	0007a023          	sw	zero,0(a5)
    4180:	00069c63          	bnez	a3,4198 <game+0x58>
    4184:	00c12083          	lw	ra,12(sp)
    4188:	00812403          	lw	s0,8(sp)
    418c:	00412483          	lw	s1,4(sp)
    4190:	01010113          	addi	sp,sp,16
    4194:	00008067          	ret
    4198:	000057b7          	lui	a5,0x5
    419c:	a807a023          	sw	zero,-1408(a5) # 4a80 <run>
    41a0:	000136b7          	lui	a3,0x13
    41a4:	00070023          	sb	zero,0(a4)
    41a8:	00100793          	li	a5,1
    41ac:	c0068693          	addi	a3,a3,-1024 # 12c00 <__global_pointer+0xdcc4>
    41b0:	74042703          	lw	a4,1856(s0)
    41b4:	00f70733          	add	a4,a4,a5
    41b8:	00070023          	sb	zero,0(a4)
    41bc:	00178793          	addi	a5,a5,1
    41c0:	fed798e3          	bne	a5,a3,41b0 <game+0x70>
    41c4:	73c4a783          	lw	a5,1852(s1)
    41c8:	74042703          	lw	a4,1856(s0)
    41cc:	01800513          	li	a0,24
    41d0:	00e7a223          	sw	a4,4(a5)
    41d4:	0007a023          	sw	zero,0(a5)
    41d8:	925fc0ef          	jal	afc <draw_G>
    41dc:	01800513          	li	a0,24
    41e0:	dd1fc0ef          	jal	fb0 <draw_A>
    41e4:	01800513          	li	a0,24
    41e8:	8f0fd0ef          	jal	12d8 <draw_M>
    41ec:	01800513          	li	a0,24
    41f0:	a24fc0ef          	jal	414 <draw_E.constprop.0>
    41f4:	73c4a783          	lw	a5,1852(s1)
    41f8:	74042703          	lw	a4,1856(s0)
    41fc:	00c12083          	lw	ra,12(sp)
    4200:	00812403          	lw	s0,8(sp)
    4204:	00e7a223          	sw	a4,4(a5)
    4208:	0007a023          	sw	zero,0(a5)
    420c:	00412483          	lw	s1,4(sp)
    4210:	01010113          	addi	sp,sp,16
    4214:	00008067          	ret

00004218 <set_displays>:
    4218:	000057b7          	lui	a5,0x5
    421c:	a9478793          	addi	a5,a5,-1388 # 4a94 <segm7_display>
    4220:	00400737          	lui	a4,0x400
    4224:	00b787b3          	add	a5,a5,a1
    4228:	0007c783          	lbu	a5,0(a5)
    422c:	00570713          	addi	a4,a4,5 # 400005 <_stack_end+0x2fb4dd>
    4230:	00e50533          	add	a0,a0,a4
    4234:	00451513          	slli	a0,a0,0x4
    4238:	00f50023          	sb	a5,0(a0)
    423c:	00008067          	ret

00004240 <init_display>:
    4240:	04000793          	li	a5,64
    4244:	04000837          	lui	a6,0x4000
    4248:	04f80823          	sb	a5,80(a6) # 4000050 <_stack_end+0x3efb528>
    424c:	04000537          	lui	a0,0x4000
    4250:	06f50023          	sb	a5,96(a0) # 4000060 <_stack_end+0x3efb538>
    4254:	040005b7          	lui	a1,0x4000
    4258:	06f58823          	sb	a5,112(a1) # 4000070 <_stack_end+0x3efb548>
    425c:	04000637          	lui	a2,0x4000
    4260:	08f60023          	sb	a5,128(a2) # 4000080 <_stack_end+0x3efb558>
    4264:	040006b7          	lui	a3,0x4000
    4268:	04000737          	lui	a4,0x4000
    426c:	08f68823          	sb	a5,144(a3) # 4000090 <_stack_end+0x3efb568>
    4270:	0af70023          	sb	a5,160(a4) # 40000a0 <_stack_end+0x3efb578>
    4274:	00008067          	ret

00004278 <set_score>:
    4278:	00a00693          	li	a3,10
    427c:	02d54733          	div	a4,a0,a3
    4280:	000057b7          	lui	a5,0x5
    4284:	a9478793          	addi	a5,a5,-1388 # 4a94 <segm7_display>
    4288:	040008b7          	lui	a7,0x4000
    428c:	04000837          	lui	a6,0x4000
    4290:	04000637          	lui	a2,0x4000
    4294:	02d745b3          	div	a1,a4,a3
    4298:	02d56533          	rem	a0,a0,a3
    429c:	02d76733          	rem	a4,a4,a3
    42a0:	00a78533          	add	a0,a5,a0
    42a4:	00054503          	lbu	a0,0(a0)
    42a8:	04a88823          	sb	a0,80(a7) # 4000050 <_stack_end+0x3efb528>
    42ac:	02d5e6b3          	rem	a3,a1,a3
    42b0:	00e78733          	add	a4,a5,a4
    42b4:	00074703          	lbu	a4,0(a4)
    42b8:	06e80023          	sb	a4,96(a6) # 4000060 <_stack_end+0x3efb538>
    42bc:	00d787b3          	add	a5,a5,a3
    42c0:	0007c783          	lbu	a5,0(a5)
    42c4:	06f60823          	sb	a5,112(a2) # 4000070 <_stack_end+0x3efb548>
    42c8:	00008067          	ret

000042cc <printc>:
    42cc:	04000737          	lui	a4,0x4000
    42d0:	04470713          	addi	a4,a4,68 # 4000044 <_stack_end+0x3efb51c>
    42d4:	000106b7          	lui	a3,0x10
    42d8:	00072783          	lw	a5,0(a4)
    42dc:	fed7eee3          	bltu	a5,a3,42d8 <printc+0xc>
    42e0:	040007b7          	lui	a5,0x4000
    42e4:	04a7a023          	sw	a0,64(a5) # 4000040 <_stack_end+0x3efb518>
    42e8:	00008067          	ret

000042ec <print>:
    42ec:	00054603          	lbu	a2,0(a0)
    42f0:	02060863          	beqz	a2,4320 <print+0x34>
    42f4:	04000737          	lui	a4,0x4000
    42f8:	040005b7          	lui	a1,0x4000
    42fc:	04470713          	addi	a4,a4,68 # 4000044 <_stack_end+0x3efb51c>
    4300:	000106b7          	lui	a3,0x10
    4304:	04058593          	addi	a1,a1,64 # 4000040 <_stack_end+0x3efb518>
    4308:	00072783          	lw	a5,0(a4)
    430c:	fed7eee3          	bltu	a5,a3,4308 <print+0x1c>
    4310:	00c5a023          	sw	a2,0(a1)
    4314:	00154603          	lbu	a2,1(a0)
    4318:	00150513          	addi	a0,a0,1
    431c:	fe0616e3          	bnez	a2,4308 <print+0x1c>
    4320:	00008067          	ret

00004324 <print_dec>:
    4324:	3b9ad737          	lui	a4,0x3b9ad
    4328:	040006b7          	lui	a3,0x4000
    432c:	04000337          	lui	t1,0x4000
    4330:	00a00593          	li	a1,10
    4334:	00000793          	li	a5,0
    4338:	a0070713          	addi	a4,a4,-1536 # 3b9aca00 <_stack_end+0x3b8a7ed8>
    433c:	04468693          	addi	a3,a3,68 # 4000044 <_stack_end+0x3efb51c>
    4340:	00010637          	lui	a2,0x10
    4344:	04030313          	addi	t1,t1,64 # 4000040 <_stack_end+0x3efb518>
    4348:	00a00893          	li	a7,10
    434c:	04e57063          	bgeu	a0,a4,438c <print_dec+0x68>
    4350:	02079e63          	bnez	a5,438c <print_dec+0x68>
    4354:	fff58593          	addi	a1,a1,-1
    4358:	02e57533          	remu	a0,a0,a4
    435c:	03175733          	divu	a4,a4,a7
    4360:	fe0596e3          	bnez	a1,434c <print_dec+0x28>
    4364:	02079263          	bnez	a5,4388 <print_dec+0x64>
    4368:	04000737          	lui	a4,0x4000
    436c:	04470713          	addi	a4,a4,68 # 4000044 <_stack_end+0x3efb51c>
    4370:	000106b7          	lui	a3,0x10
    4374:	00072783          	lw	a5,0(a4)
    4378:	fed7eee3          	bltu	a5,a3,4374 <print_dec+0x50>
    437c:	040007b7          	lui	a5,0x4000
    4380:	03000713          	li	a4,48
    4384:	04e7a023          	sw	a4,64(a5) # 4000040 <_stack_end+0x3efb518>
    4388:	00008067          	ret
    438c:	02e55833          	divu	a6,a0,a4
    4390:	03080813          	addi	a6,a6,48
    4394:	0ff87813          	zext.b	a6,a6
    4398:	0006a783          	lw	a5,0(a3) # 10000 <__global_pointer+0xb0c4>
    439c:	fec7eee3          	bltu	a5,a2,4398 <print_dec+0x74>
    43a0:	01032023          	sw	a6,0(t1)
    43a4:	00100793          	li	a5,1
    43a8:	fadff06f          	j	4354 <print_dec+0x30>

000043ac <print_hex32>:
    43ac:	04000737          	lui	a4,0x4000
    43b0:	04470713          	addi	a4,a4,68 # 4000044 <_stack_end+0x3efb51c>
    43b4:	000106b7          	lui	a3,0x10
    43b8:	00072783          	lw	a5,0(a4)
    43bc:	fed7eee3          	bltu	a5,a3,43b8 <print_hex32+0xc>
    43c0:	03000693          	li	a3,48
    43c4:	040007b7          	lui	a5,0x4000
    43c8:	04000737          	lui	a4,0x4000
    43cc:	04d7a023          	sw	a3,64(a5) # 4000040 <_stack_end+0x3efb518>
    43d0:	04470713          	addi	a4,a4,68 # 4000044 <_stack_end+0x3efb51c>
    43d4:	000106b7          	lui	a3,0x10
    43d8:	00072783          	lw	a5,0(a4)
    43dc:	fed7eee3          	bltu	a5,a3,43d8 <print_hex32+0x2c>
    43e0:	04000837          	lui	a6,0x4000
    43e4:	04080813          	addi	a6,a6,64 # 4000040 <_stack_end+0x3efb518>
    43e8:	04000737          	lui	a4,0x4000
    43ec:	07800793          	li	a5,120
    43f0:	00f82023          	sw	a5,0(a6)
    43f4:	01c00613          	li	a2,28
    43f8:	00900313          	li	t1,9
    43fc:	04470713          	addi	a4,a4,68 # 4000044 <_stack_end+0x3efb51c>
    4400:	000106b7          	lui	a3,0x10
    4404:	ffc00893          	li	a7,-4
    4408:	00c557b3          	srl	a5,a0,a2
    440c:	00f7f793          	andi	a5,a5,15
    4410:	03778593          	addi	a1,a5,55
    4414:	00f36463          	bltu	t1,a5,441c <print_hex32+0x70>
    4418:	03078593          	addi	a1,a5,48
    441c:	00072783          	lw	a5,0(a4)
    4420:	fed7eee3          	bltu	a5,a3,441c <print_hex32+0x70>
    4424:	00b82023          	sw	a1,0(a6)
    4428:	ffc60613          	addi	a2,a2,-4 # fffc <__global_pointer+0xb0c0>
    442c:	fd161ee3          	bne	a2,a7,4408 <print_hex32+0x5c>
    4430:	00008067          	ret

00004434 <handle_exception>:
    4434:	00200793          	li	a5,2
    4438:	18f80863          	beq	a6,a5,45c8 <handle_exception+0x194>
    443c:	00b00793          	li	a5,11
    4440:	12f80063          	beq	a6,a5,4560 <handle_exception+0x12c>
    4444:	04000737          	lui	a4,0x4000
    4448:	14081463          	bnez	a6,4590 <handle_exception+0x15c>
    444c:	04000837          	lui	a6,0x4000
    4450:	00005637          	lui	a2,0x5
    4454:	aa060613          	addi	a2,a2,-1376 # 4aa0 <segm7_display+0xc>
    4458:	00a00593          	li	a1,10
    445c:	04470713          	addi	a4,a4,68 # 4000044 <_stack_end+0x3efb51c>
    4460:	000106b7          	lui	a3,0x10
    4464:	04080813          	addi	a6,a6,64 # 4000040 <_stack_end+0x3efb518>
    4468:	00072783          	lw	a5,0(a4)
    446c:	fed7eee3          	bltu	a5,a3,4468 <handle_exception+0x34>
    4470:	00b82023          	sw	a1,0(a6)
    4474:	00164583          	lbu	a1,1(a2)
    4478:	00160613          	addi	a2,a2,1
    447c:	fe0596e3          	bnez	a1,4468 <handle_exception+0x34>
    4480:	04000737          	lui	a4,0x4000
    4484:	04000837          	lui	a6,0x4000
    4488:	00005637          	lui	a2,0x5
    448c:	b1460613          	addi	a2,a2,-1260 # 4b14 <segm7_display+0x80>
    4490:	04500593          	li	a1,69
    4494:	04470713          	addi	a4,a4,68 # 4000044 <_stack_end+0x3efb51c>
    4498:	000106b7          	lui	a3,0x10
    449c:	04080813          	addi	a6,a6,64 # 4000040 <_stack_end+0x3efb518>
    44a0:	00072783          	lw	a5,0(a4)
    44a4:	fed7eee3          	bltu	a5,a3,44a0 <handle_exception+0x6c>
    44a8:	00b82023          	sw	a1,0(a6)
    44ac:	00164583          	lbu	a1,1(a2)
    44b0:	00160613          	addi	a2,a2,1
    44b4:	fe0596e3          	bnez	a1,44a0 <handle_exception+0x6c>
    44b8:	04000737          	lui	a4,0x4000
    44bc:	04470713          	addi	a4,a4,68 # 4000044 <_stack_end+0x3efb51c>
    44c0:	000106b7          	lui	a3,0x10
    44c4:	00072783          	lw	a5,0(a4)
    44c8:	fed7eee3          	bltu	a5,a3,44c4 <handle_exception+0x90>
    44cc:	03000693          	li	a3,48
    44d0:	040007b7          	lui	a5,0x4000
    44d4:	04000737          	lui	a4,0x4000
    44d8:	04d7a023          	sw	a3,64(a5) # 4000040 <_stack_end+0x3efb518>
    44dc:	04470713          	addi	a4,a4,68 # 4000044 <_stack_end+0x3efb51c>
    44e0:	000106b7          	lui	a3,0x10
    44e4:	00072783          	lw	a5,0(a4)
    44e8:	fed7eee3          	bltu	a5,a3,44e4 <handle_exception+0xb0>
    44ec:	04000837          	lui	a6,0x4000
    44f0:	04080813          	addi	a6,a6,64 # 4000040 <_stack_end+0x3efb518>
    44f4:	04000737          	lui	a4,0x4000
    44f8:	07800793          	li	a5,120
    44fc:	00f82023          	sw	a5,0(a6)
    4500:	01c00613          	li	a2,28
    4504:	00900313          	li	t1,9
    4508:	04470713          	addi	a4,a4,68 # 4000044 <_stack_end+0x3efb51c>
    450c:	000106b7          	lui	a3,0x10
    4510:	ffc00893          	li	a7,-4
    4514:	00c557b3          	srl	a5,a0,a2
    4518:	00f7f793          	andi	a5,a5,15
    451c:	03778593          	addi	a1,a5,55
    4520:	00f36463          	bltu	t1,a5,4528 <handle_exception+0xf4>
    4524:	03078593          	addi	a1,a5,48
    4528:	00072783          	lw	a5,0(a4)
    452c:	fed7eee3          	bltu	a5,a3,4528 <handle_exception+0xf4>
    4530:	00b82023          	sw	a1,0(a6)
    4534:	ffc60613          	addi	a2,a2,-4
    4538:	fd161ee3          	bne	a2,a7,4514 <handle_exception+0xe0>
    453c:	04000737          	lui	a4,0x4000
    4540:	04470713          	addi	a4,a4,68 # 4000044 <_stack_end+0x3efb51c>
    4544:	000106b7          	lui	a3,0x10
    4548:	00072783          	lw	a5,0(a4)
    454c:	fed7eee3          	bltu	a5,a3,4548 <handle_exception+0x114>
    4550:	040007b7          	lui	a5,0x4000
    4554:	00a00713          	li	a4,10
    4558:	04e7a023          	sw	a4,64(a5) # 4000040 <_stack_end+0x3efb518>
    455c:	0000006f          	j	455c <handle_exception+0x128>
    4560:	00400793          	li	a5,4
    4564:	0af88063          	beq	a7,a5,4604 <handle_exception+0x1d0>
    4568:	0d089a63          	bne	a7,a6,463c <handle_exception+0x208>
    456c:	04000737          	lui	a4,0x4000
    4570:	04470713          	addi	a4,a4,68 # 4000044 <_stack_end+0x3efb51c>
    4574:	000106b7          	lui	a3,0x10
    4578:	00072783          	lw	a5,0(a4)
    457c:	fed7eee3          	bltu	a5,a3,4578 <handle_exception+0x144>
    4580:	040007b7          	lui	a5,0x4000
    4584:	0ff57513          	zext.b	a0,a0
    4588:	04a7a023          	sw	a0,64(a5) # 4000040 <_stack_end+0x3efb518>
    458c:	00008067          	ret
    4590:	04000837          	lui	a6,0x4000
    4594:	00005637          	lui	a2,0x5
    4598:	af460613          	addi	a2,a2,-1292 # 4af4 <segm7_display+0x60>
    459c:	00a00593          	li	a1,10
    45a0:	04470713          	addi	a4,a4,68
    45a4:	000106b7          	lui	a3,0x10
    45a8:	04080813          	addi	a6,a6,64 # 4000040 <_stack_end+0x3efb518>
    45ac:	00072783          	lw	a5,0(a4)
    45b0:	fed7eee3          	bltu	a5,a3,45ac <handle_exception+0x178>
    45b4:	00b82023          	sw	a1,0(a6)
    45b8:	00164583          	lbu	a1,1(a2)
    45bc:	00160613          	addi	a2,a2,1
    45c0:	fe0596e3          	bnez	a1,45ac <handle_exception+0x178>
    45c4:	ebdff06f          	j	4480 <handle_exception+0x4c>
    45c8:	04000737          	lui	a4,0x4000
    45cc:	04000837          	lui	a6,0x4000
    45d0:	00005637          	lui	a2,0x5
    45d4:	ad060613          	addi	a2,a2,-1328 # 4ad0 <segm7_display+0x3c>
    45d8:	00a00593          	li	a1,10
    45dc:	04470713          	addi	a4,a4,68 # 4000044 <_stack_end+0x3efb51c>
    45e0:	000106b7          	lui	a3,0x10
    45e4:	04080813          	addi	a6,a6,64 # 4000040 <_stack_end+0x3efb518>
    45e8:	00072783          	lw	a5,0(a4)
    45ec:	fed7eee3          	bltu	a5,a3,45e8 <handle_exception+0x1b4>
    45f0:	00b82023          	sw	a1,0(a6)
    45f4:	00164583          	lbu	a1,1(a2)
    45f8:	00160613          	addi	a2,a2,1
    45fc:	fe0596e3          	bnez	a1,45e8 <handle_exception+0x1b4>
    4600:	e81ff06f          	j	4480 <handle_exception+0x4c>
    4604:	00054603          	lbu	a2,0(a0)
    4608:	02060a63          	beqz	a2,463c <handle_exception+0x208>
    460c:	04000737          	lui	a4,0x4000
    4610:	040005b7          	lui	a1,0x4000
    4614:	04470713          	addi	a4,a4,68 # 4000044 <_stack_end+0x3efb51c>
    4618:	000106b7          	lui	a3,0x10
    461c:	04058593          	addi	a1,a1,64 # 4000040 <_stack_end+0x3efb518>
    4620:	00072783          	lw	a5,0(a4)
    4624:	fed7eee3          	bltu	a5,a3,4620 <handle_exception+0x1ec>
    4628:	00c5a023          	sw	a2,0(a1)
    462c:	00154603          	lbu	a2,1(a0)
    4630:	00150513          	addi	a0,a0,1
    4634:	fe0616e3          	bnez	a2,4620 <handle_exception+0x1ec>
    4638:	00008067          	ret
    463c:	00008067          	ret

00004640 <nextprime>:
    4640:	00200713          	li	a4,2
    4644:	00050793          	mv	a5,a0
    4648:	02a74063          	blt	a4,a0,4668 <nextprime+0x28>
    464c:	00100513          	li	a0,1
    4650:	00f05a63          	blez	a5,4664 <nextprime+0x24>
    4654:	fff78793          	addi	a5,a5,-1
    4658:	00f037b3          	snez	a5,a5
    465c:	00278513          	addi	a0,a5,2
    4660:	00008067          	ret
    4664:	00008067          	ret
    4668:	00150793          	addi	a5,a0,1
    466c:	0017e513          	ori	a0,a5,1
    4670:	00300613          	li	a2,3
    4674:	02c567b3          	rem	a5,a0,a2
    4678:	40155693          	srai	a3,a0,0x1
    467c:	02078263          	beqz	a5,46a0 <nextprime+0x60>
    4680:	00268693          	addi	a3,a3,2 # 10002 <__global_pointer+0xb0c6>
    4684:	00300793          	li	a5,3
    4688:	00c0006f          	j	4694 <nextprime+0x54>
    468c:	02f56733          	rem	a4,a0,a5
    4690:	00070863          	beqz	a4,46a0 <nextprime+0x60>
    4694:	00178793          	addi	a5,a5,1
    4698:	fef69ae3          	bne	a3,a5,468c <nextprime+0x4c>
    469c:	00008067          	ret
    46a0:	00250513          	addi	a0,a0,2
    46a4:	fd1ff06f          	j	4674 <nextprime+0x34>
